;
; pdp11dasm version 0.0.3
; disassembly of rwg_le16.bin
;
000000: 111662 000340       	movb	(r6),340(r2)		; 2.`.
000004: 002416              	blt	42			; ..
000006: 000340              	swab	-(r0)			; `.
000010: 002404              	blt	22			; ..
000012: 000340              	swab	-(r0)			; `.
000014: 002430              	blt	76			; ..
000016: 000340              	swab	-(r0)			; `.
000020: 013574 000340       	mov	@(r5)+,@340(r4)		; |.`.
000024: 014316              	mov	-(r3),(r6)		; N.
000026: 000340              	swab	-(r0)			; `.
000030: 003076              	bgt	226			; >.
000032: 000340              	swab	-(r0)			; `.
000034: 003200              	bgt	37777777436		; ..
000036: 000340              	swab	-(r0)			; `.
000040: 000000              	halt				; ..
000042: 000000              	halt				; ..
000044: 000000              	halt				; ..
000046: 000000              	halt				; ..
000050: 000000              	halt				; ..
000052: 000000              	halt				; ..
000054: 000000              	halt				; ..
000056: 000000              	halt				; ..
;
000060: 111716              	movb	(r7),(r6)		; N.
000062: 000340              	swab	-(r0)			; `.
000064: 111752              	movb	(r7),@-(r2)		; j.
000066: 000340              	swab	-(r0)			; `.
000070: 111662 000340       	movb	(r6),340(r2)		; 2.`.
000074: 111662 000340       	movb	(r6),340(r2)		; 2.`.
000100: 112006              	movb	(r0)+,r6		; ..
000102: 000340              	swab	-(r0)			; `.
000104: 111662 000340       	movb	(r6),340(r2)		; 2.`.
000110: 111662 000340       	movb	(r6),340(r2)		; 2.`.
000114: 111662 000340       	movb	(r6),340(r2)		; 2.`.
000120: 111662 000340       	movb	(r6),340(r2)		; 2.`.
000124: 111662 000340       	movb	(r6),340(r2)		; 2.`.
000130: 111662 000340       	movb	(r6),340(r2)		; 2.`.
000134: 111662 000340       	movb	(r6),340(r2)		; 2.`.
000140: 111662 000340       	movb	(r6),340(r2)		; 2.`.
000144: 111662 000340       	movb	(r6),340(r2)		; 2.`.
000150: 111662 000340       	movb	(r6),340(r2)		; 2.`.
000154: 111662 000340       	movb	(r6),340(r2)		; 2.`.
000160: 111662 000340       	movb	(r6),340(r2)		; 2.`.
000164: 111662 000340       	movb	(r6),340(r2)		; 2.`.
000170: 111662 000340       	movb	(r6),340(r2)		; 2.`.
000174: 111662 000340       	movb	(r6),340(r2)		; 2.`.
000200: 111662 000340       	movb	(r6),340(r2)		; 2.`.
000204: 111662 000340       	movb	(r6),340(r2)		; 2.`.
000210: 111662 000340       	movb	(r6),340(r2)		; 2.`.
000214: 111662 000340       	movb	(r6),340(r2)		; 2.`.
000220: 111662 000340       	movb	(r6),340(r2)		; 2.`.
000224: 111662 000340       	movb	(r6),340(r2)		; 2.`.
000230: 111662 000340       	movb	(r6),340(r2)		; 2.`.
000234: 111662 000340       	movb	(r6),340(r2)		; 2.`.
000240: 111662 000340       	movb	(r6),340(r2)		; 2.`.
000244: 002442              	blt	352			; ".
000246: 000340              	swab	-(r0)			; `.
000250: 003136              	bgt	546			; ^.
000252: 000340              	swab	-(r0)			; `.
000254: 111662 000340       	movb	(r6),340(r2)		; 2.`.
000260: 111662 000340       	movb	(r6),340(r2)		; 2.`.
000264: 112042              	movb	(r0)+,-(r2)		; ".
000266: 000340              	swab	-(r0)			; `.
000270: 111662 000340       	movb	(r6),340(r2)		; 2.`.
000274: 111662 000340       	movb	(r6),340(r2)		; 2.`.
000300: 112076 000340       	movb	(r0)+,@340(r6)		; >.`.
000304: 112132              	movb	(r1)+,@(r2)+		; Z.
000306: 000340              	swab	-(r0)			; `.
000310: 111662 000340       	movb	(r6),340(r2)		; 2.`.
000314: 111662 000340       	movb	(r6),340(r2)		; 2.`.
000320: 111662 000340       	movb	(r6),340(r2)		; 2.`.
000324: 111662 000340       	movb	(r6),340(r2)		; 2.`.
000330: 111662 000340       	movb	(r6),340(r2)		; 2.`.
000334: 111662 000340       	movb	(r6),340(r2)		; 2.`.
000340: 111662 000340       	movb	(r6),340(r2)		; 2.`.
000344: 111662 000340       	movb	(r6),340(r2)		; 2.`.
000350: 111662 000340       	movb	(r6),340(r2)		; 2.`.
000354: 111662 000340       	movb	(r6),340(r2)		; 2.`.
000360: 111662 000340       	movb	(r6),340(r2)		; 2.`.
000364: 111662 000340       	movb	(r6),340(r2)		; 2.`.
000370: 111662 000340       	movb	(r6),340(r2)		; 2.`.
000374: 111662 000340       	movb	(r6),340(r2)		; 2.`.
000400: 112166 000340       	movb	(r1)+,340(r6)		; v.`.
000404: 112222              	movb	(r2)+,(r2)+		; ..
000406: 000340              	swab	-(r0)			; `.
000410: 112256              	movb	(r2)+,@-(r6)		; ..
000412: 000340              	swab	-(r0)			; `.
000414: 112312              	movb	(r3)+,(r2)		; J.
000416: 000340              	swab	-(r0)			; `.
000420: 112346              	movb	(r3)+,-(r6)		; f.
000422: 000340              	swab	-(r0)			; `.
000424: 112402              	movb	(r4)+,r2		; ..
000426: 000340              	swab	-(r0)			; `.
000430: 112436              	movb	(r4)+,@(r6)+		; ..
000432: 000340              	swab	-(r0)			; `.
000434: 112472 000340       	movb	(r4)+,@340(r2)		; :.`.
000440: 112526              	movb	(r5)+,(r6)+		; V.
000442: 000340              	swab	-(r0)			; `.
000444: 112562 000340       	movb	(r5)+,340(r2)		; r.`.
000450: 112616              	movb	(r6)+,(r6)		; ..
000452: 000340              	swab	-(r0)			; `.
000454: 112652              	movb	(r6)+,@-(r2)		; *.
000456: 000340              	swab	-(r0)			; `.
000460: 112706 000340       	movb	#340,r6			; F.`.
000464: 112742 000340       	movb	#340,-(r2)		; b.`.
000470: 112776 000340 113032	movb	#340,@113032(r6)	; ~.`...
000476: 000340              	swab	-(r0)			; `.
000500: 111662 000340       	movb	(r6),340(r2)		; 2.`.
000504: 111662 000340       	movb	(r6),340(r2)		; 2.`.
000510: 111662 000340       	movb	(r6),340(r2)		; 2.`.
000514: 111662 000340       	movb	(r6),340(r2)		; 2.`.
000520: 111662 000340       	movb	(r6),340(r2)		; 2.`.
000524: 111662 000340       	movb	(r6),340(r2)		; 2.`.
000530: 111662 000340       	movb	(r6),340(r2)		; 2.`.
000534: 111662 000340       	movb	(r6),340(r2)		; 2.`.
000540: 111662 000340       	movb	(r6),340(r2)		; 2.`.
000544: 111662 000340       	movb	(r6),340(r2)		; 2.`.
000550: 111662 000340       	movb	(r6),340(r2)		; 2.`.
000554: 111662 000340       	movb	(r6),340(r2)		; 2.`.
000560: 111662 000340       	movb	(r6),340(r2)		; 2.`.
000564: 111662 000340       	movb	(r6),340(r2)		; 2.`.
000570: 111662 000340       	movb	(r6),340(r2)		; 2.`.
000574: 111662 000340       	movb	(r6),340(r2)		; 2.`.
000600: 111662 000340       	movb	(r6),340(r2)		; 2.`.
000604: 111662 000340       	movb	(r6),340(r2)		; 2.`.
000610: 111662 000340       	movb	(r6),340(r2)		; 2.`.
000614: 111662 000340       	movb	(r6),340(r2)		; 2.`.
000620: 111662 000340       	movb	(r6),340(r2)		; 2.`.
000624: 111662 000340       	movb	(r6),340(r2)		; 2.`.
000630: 111662 000340       	movb	(r6),340(r2)		; 2.`.
000634: 111662 000340       	movb	(r6),340(r2)		; 2.`.
000640: 111662 000340       	movb	(r6),340(r2)		; 2.`.
000644: 111662 000340       	movb	(r6),340(r2)		; 2.`.
000650: 111662 000340       	movb	(r6),340(r2)		; 2.`.
000654: 111662 000340       	movb	(r6),340(r2)		; 2.`.
000660: 111662 000340       	movb	(r6),340(r2)		; 2.`.
000664: 111662 000340       	movb	(r6),340(r2)		; 2.`.
000670: 111662 000340       	movb	(r6),340(r2)		; 2.`.
000674: 111662 000340       	movb	(r6),340(r2)		; 2.`.
000700: 111662 000340       	movb	(r6),340(r2)		; 2.`.
000704: 111662 000340       	movb	(r6),340(r2)		; 2.`.
000710: 111662 000340       	movb	(r6),340(r2)		; 2.`.
000714: 111662 000340       	movb	(r6),340(r2)		; 2.`.
000720: 111662 000340       	movb	(r6),340(r2)		; 2.`.
000724: 111662 000340       	movb	(r6),340(r2)		; 2.`.
000730: 111662 000340       	movb	(r6),340(r2)		; 2.`.
000734: 111662 000340       	movb	(r6),340(r2)		; 2.`.
000740: 111662 000340       	movb	(r6),340(r2)		; 2.`.
000744: 111662 000340       	movb	(r6),340(r2)		; 2.`.
000750: 111662 000340       	movb	(r6),340(r2)		; 2.`.
000754: 111662 000340       	movb	(r6),340(r2)		; 2.`.
000760: 111662 000340       	movb	(r6),340(r2)		; 2.`.
000764: 111662 000340       	movb	(r6),340(r2)		; 2.`.
000770: 111662 000340       	movb	(r6),340(r2)		; 2.`.
000774: 111662 000340       	movb	(r6),340(r2)		; 2.`.
001000: 012746 000340       	mov	#340,-(r6)		; f.`.
001004: 012746 001012       	mov	#1012,-(r6)		; f...
001010: 000002              	rti				; ..
;
001012: 010637 111266       	mov	r6,@#111266		; ..6.
001016: 012737 042557 110776	mov	#42557,@#110776		; _.oE~.
001024: 012737 042557 111252	mov	#42557,@#111252		; _.oE*.
001032: 012737 111262 111264	mov	#111262,@#111264	; _.2.4.
001040: 012700 111656       	mov	#111656,r0		; @...
001044: 012760 177777 000000	mov	#177777,0(r0)		; p.....
001052: 000405              	br	1066			; ..
;
001054: 062700 000034       	add	#34,r0			; @e..
001060: 020027 113062       	cmp	r0,#113062		; . 2.
001064: 103012              	bcc	1112			; ..
001066: 012760 004537 000004	mov	#4537,4(r0)		; p._...
001074: 012760 003340 000006	mov	#3340,6(r0)		; p.`...
001102: 012760 002376 000032	mov	#2376,32(r0)		; p.~...
001110: 000761              	br	1054			; q.
;
001112: 005037 111312       	clr	@#111312		; ..J.
001116: 012700 111314       	mov	#111314,r0		; @.L.
001122: 010010              	mov	r0,(r0)			; ..
001124: 010060 000002       	mov	r0,2(r0)		; 0...
001130: 112760 000001 000005	movb	#1,5(r0)		; p.....
001136: 012700 111322       	mov	#111322,r0		; @.R.
001142: 010010              	mov	r0,(r0)			; ..
001144: 010060 000002       	mov	r0,2(r0)		; 0...
001150: 112760 000002 000005	movb	#2,5(r0)		; p.....
001156: 012700 111330       	mov	#111330,r0		; @.X.
001162: 010010              	mov	r0,(r0)			; ..
001164: 010060 000002       	mov	r0,2(r0)		; 0...
001170: 112760 000007 000005	movb	#7,5(r0)		; p.....
001176: 012700 111340       	mov	#111340,r0		; @.`.
001202: 012720 000002       	mov	#2,(r0)+		; P...
001206: 005720              	tst	(r0)+			; P.
001210: 012720 000200       	mov	#200,(r0)+		; P...
001214: 012710 000016       	mov	#16,(r0)		; H...
001220: 012737 170000 111362	mov	#170000,@#111362	; _..pr.
001226: 012737 000004 111406	mov	#4,@#111406		; _.....
001234: 012737 000004 111410	mov	#4,@#111410		; _.....
001242: 012737 000010 111416	mov	#10,@#111416		; _.....
001250: 012737 000006 111420	mov	#6,@#111420		; _.....
001256: 012737 100006 111422	mov	#100006,@#111422	; _.....
001264: 005037 100006       	clr	@#100006		; ....
001270: 012737 010770 100010	mov	#10770,@#100010		; _.x...
001276: 012700 111570       	mov	#111570,r0		; @.x.
001302: 005020              	clr	(r0)+			; ..
001304: 005720              	tst	(r0)+			; P.
001306: 012720 001000       	mov	#1000,(r0)+		; P...
001312: 012720 000022       	mov	#22,(r0)+		; P...
001316: 012737 111600 111602	mov	#111600,@#111602	; _.....
001324: 012700 111614       	mov	#111614,r0		; @...
001330: 012701 000020       	mov	#20,r1			; A...
001334: 010010              	mov	r0,(r0)			; ..
001336: 005720              	tst	(r0)+			; P.
001340: 077103              	sob	r1,1334			; C~
001342: 052737 000100 177546	bis	#100,@#177546		; _U@.f.
001350: 013700 000100       	mov	@#100,r0		; @.@.
001354: 012760 002030 000026	mov	#2030,26(r0)		; p.....
001362: 012737 000003 111254	mov	#3,@#111254		; _...,.
001370: 005046              	clr	-(r6)			; &.
001372: 012746 000200       	mov	#200,-(r6)		; f...
001376: 012746 000002       	mov	#2,-(r6)		; f...
001402: 012746 111526       	mov	#111526,-(r6)		; f.V.
001406: 010600              	mov	r6,r0			; ..
001410: 004737 004504       	call	@#4504			; _.D.
001414: 005737 111400       	tst	@#111400		; _...
001420: 001034              	bne	1512			; ..
001422: 062706 000010       	add	#10,r6			; Fe..
001426: 012703 001130       	mov	#1130,r3		; C.X.
001432: 001433              	beq	1522			; ..
001434: 004737 015704       	call	@#15704			; _.D.
001440: 103424              	bcs	1512			; ..
001442: 010337 111536       	mov	r3,@#111536		; _.^.
001446: 013701 111526       	mov	@#111526,r1		; A.V.
001452: 010361 000002       	mov	r3,2(r1)		; q...
001456: 012702 000017       	mov	#17,r2			; B...
001462: 010261 000006       	mov	r2,6(r1)		; 1...
001466: 005302              	dec	r2			; B.
001470: 010100              	mov	r1,r0			; @.
001472: 010301              	mov	r3,r1			; A.
001474: 062703 000050       	add	#50,r3			; Ce(.
001500: 010311              	mov	r3,(r1)			; I.
001502: 077205              	sob	r2,1472			; .~
001504: 010360 000004       	mov	r3,4(r0)		; p...
001510: 000404              	br	1522			; ..
;
001512: 012700 044001       	mov	#44001,r0		; @..H
001516: 000137 002366       	jmp	@#2366			; _.v.
;
001522: 012700 111546       	mov	#111546,r0		; @.f.
001526: 012720 052044       	mov	#52044,(r0)+		; P.$T
001532: 012720 046511       	mov	#46511,(r0)+		; P.IM
001536: 012720 051105       	mov	#51105,(r0)+		; P.ER
001542: 005046              	clr	-(r6)			; &.
001544: 012746 000200       	mov	#200,-(r6)		; f...
001550: 012746 000001       	mov	#1,-(r6)		; f...
001554: 012746 111540       	mov	#111540,-(r6)		; f.`.
001560: 010600              	mov	r6,r0			; ..
001562: 004737 004504       	call	@#4504			; _.D.
001566: 005737 111400       	tst	@#111400		; _...
001572: 001402              	beq	1600			; ..
001574: 000137 002366       	jmp	@#2366			; _.v.
;
001600: 062706 000010       	add	#10,r6			; Fe..
001604: 012737 077777 111564	mov	#77777,@#111564		; _...t.
001612: 012737 177777 111562	mov	#177777,@#111562	; _...r.
001620: 012703 000142       	mov	#142,r3			; C.b.
001624: 004737 015704       	call	@#15704			; _.D.
001630: 103457              	bcs	1770			; /.
001632: 010337 111304       	mov	r3,@#111304		; _.D.
001636: 012702 021024       	mov	#21024,r2		; B.."
001642: 005712              	tst	(r2)			; J.
001644: 001453              	beq	1774			; +.
001646: 011237 172344       	mov	(r2),@#172344		; ..dt
001652: 012702 040000       	mov	#40000,r2		; B..@
001656: 012701 111270       	mov	#111270,r1		; A.8.
001662: 005011              	clr	(r1)			; ..
001664: 062701 000006       	add	#6,r1			; Ae..
001670: 005722              	tst	(r2)+			; R.
001672: 012221              	mov	(r2)+,(r1)+		; ..
001674: 012221              	mov	(r2)+,(r1)+		; ..
001676: 012221              	mov	(r2)+,(r1)+		; ..
001700: 011101              	mov	(r1),r1			; A.
001702: 012721 111270       	mov	#111270,(r1)+		; Q.8.
001706: 112221              	movb	(r2)+,(r1)+		; ..
001710: 112221              	movb	(r2)+,(r1)+		; ..
001712: 012703 000011       	mov	#11,r3			; C...
001716: 012221              	mov	(r2)+,(r1)+		; ..
001720: 077302              	sob	r3,1716			; B~
001722: 010246              	mov	r2,-(r6)		; &.
001724: 005722              	tst	(r2)+			; R.
001726: 012703 000040       	mov	#40,r3			; C. .
001732: 132761 000010 177756	bitb	#10,177756(r1)		; q5..n.
001740: 001001              	bne	1744			; ..
001742: 006203              	asr	r3			; ..
001744: 012221              	mov	(r2)+,(r1)+		; ..
001746: 077302              	sob	r3,1744			; B~
001750: 012602              	mov	(r6)+,r2		; ..
001752: 013700 111304       	mov	@#111304,r0		; @.D.
001756: 004737 012230       	call	@#12230			; _...
001762: 005737 111400       	tst	@#111400		; _...
001766: 001725              	beq	1642			; U.
001770: 000137 002366       	jmp	@#2366			; _.v.
;
001774: 013704 111304       	mov	@#111304,r4		; D.D.
002000: 012703 000142       	mov	#142,r3			; C.b.
002004: 004737 016400       	call	@#16400			; _...
002010: 010637 111336       	mov	r6,@#111336		; ..^.
002014: 005037 111266       	clr	@#111266		; ..6.
002020: 004737 002306       	call	@#2306			; _.F.
002024: 000137 002520       	jmp	@#2520			; _.P.
;
002030: 005337 111254       	dec	@#111254		; _.,.
002034: 001025              	bne	2110			; ..
002036: 012737 000003 111254	mov	#3,@#111254		; _...,.
002044: 062737 000020 111554	add	#20,@#111554		; _e..l.
002052: 005537 111556       	adc	@#111556		; _.n.
002056: 005537 111560       	adc	@#111560		; _.p.
002062: 162737 000020 111562	sub	#20,@#111562		; _e..r.
002070: 005637 111564       	sbc	@#111564		; ..t.
002074: 100427              	bmi	2154			; ..
002076: 001003              	bne	2106			; ..
002100: 005737 111562       	tst	@#111562		; _.r.
002104: 001423              	beq	2154			; ..
002106: 000204              	rts	r4			; ..
;
002110: 062737 000021 111554	add	#21,@#111554		; _e..l.
002116: 005537 111556       	adc	@#111556		; _.n.
002122: 005537 111560       	adc	@#111560		; _.p.
002126: 162737 000021 111562	sub	#21,@#111562		; _e..r.
002134: 005637 111564       	sbc	@#111564		; ..t.
002140: 100405              	bmi	2154			; ..
002142: 001003              	bne	2152			; ..
002144: 005737 111562       	tst	@#111562		; _.r.
002150: 001401              	beq	2154			; ..
002152: 000204              	rts	r4			; ..
;
002154: 112765 000300 177772	movb	#300,177772(r5)		; u.@.z.
002162: 004337 003404       	jsr	r3,@#3404		; _...
002166: 004737 002314       	call	@#2314			; _.L.
002172: 103444              	bcs	2304			; $.
002174: 013704 111540       	mov	@#111540,r4		; D.`.
002200: 005003              	clr	r3			; ..
002202: 011404              	mov	(r4),r4			; ..
002204: 001434              	beq	2276			; ..
002206: 000410              	br	2230			; ..
;
002210: 066437 000050 111562	add	50(r4),@#111562		; .m(.r.
002216: 005537 111564       	adc	@#111564		; _.t.
002222: 066437 000052 111564	add	52(r4),@#111564		; .m*.t.
002230: 005737 111564       	tst	@#111564		; _.t.
002234: 100404              	bmi	2246			; ..
002236: 001006              	bne	2254			; ..
002240: 005737 111562       	tst	@#111562		; _.r.
002244: 001003              	bne	2254			; ..
002246: 005203              	inc	r3			; ..
002250: 011404              	mov	(r4),r4			; ..
002252: 001356              	bne	2210			; n.
002254: 013704 111540       	mov	@#111540,r4		; D.`.
002260: 005703              	tst	r3			; C.
002262: 001403              	beq	2272			; ..
002264: 004737 010124       	call	@#10124			; _.T.
002270: 077303              	sob	r3,2264			; C~
002272: 005714              	tst	(r4)			; L.
002274: 001003              	bne	2304			; ..
002276: 012737 077777 111564	mov	#77777,@#111564		; _...t.
002304: 000207              	ret				; ..
;
002306: 000207              	ret				; ..
;
002310: 000241              	clc				; !.
002312: 000207              	ret				; ..
;
002314: 022715 000000       	cmp	#0,(r5)			; M%..
002320: 001015              	bne	2354			; ..
002322: 012625              	mov	(r6)+,(r5)+		; ..
002324: 106746              	mfps	-(r6)			; f.
002326: 010325              	mov	r3,(r5)+		; U.
002330: 010425              	mov	r4,(r5)+		; ..
002332: 106427 000340       	mtps	#340			; ..`.
002336: 013703 111264       	mov	@#111264,r3		; C.4.
002342: 010513              	mov	r5,(r3)			; K.
002344: 005015              	clr	(r5)			; ..
002346: 010537 111264       	mov	r5,@#111264		; _.4.
002352: 106426              	mtps	(r6)+			; ..
002354: 000207              	ret				; ..
;
002356: 004737 002306       	call	@#2306			; _.F.
002362: 000000              	halt				; ..
;
002364: 000776              	br	2362			; ~.
;
002366: 004737 002306       	call	@#2306			; _.F.
002372: 000000              	halt				; ..
;
002374: 000776              	br	2372			; ~.
;
002376: 005237 111306       	inc	@#111306		; ..F.
002402: 000204              	rts	r4			; ..
;
002404: 004537 003612       	jsr	r5,@#3612		; _...
002410: 012705 020602       	mov	#20602,r5		; E..!
002414: 000113              	jmp	(r3)			; K.
;
002416: 004537 003612       	jsr	r5,@#3612		; _...
002422: 012705 020612       	mov	#20612,r5		; E..!
002426: 000113              	jmp	(r3)			; K.
;
002430: 004537 003612       	jsr	r5,@#3612		; _...
002434: 012705 020622       	mov	#20622,r5		; E..!
002440: 000113              	jmp	(r3)			; K.
;
002442: 004537 003612       	jsr	r5,@#3612		; _...
002446: 170337 111350       	stst	@#111350		; _ph.
002452: 023727 111350 000002	cmp	@#111350,#2		; W'h...
002460: 001414              	beq	2512			; ..
002462: 012705 020636       	mov	#20636,r5		; E..!
002466: 063705 111350       	add	@#111350,r5		; Egh.
002472: 011537 111342       	mov	(r5),@#111342		; _.b.
002476: 013746 111352       	mov	@#111352,-(r6)		; f.j.
002502: 106644              	mtpd	-(r4)			; $.
002504: 012705 111340       	mov	#111340,r5		; E.`.
002510: 000113              	jmp	(r3)			; K.
;
002512: 012705 020632       	mov	#20632,r5		; E..!
002516: 000113              	jmp	(r3)			; K.
;
002520: 106427 000340       	mtps	#340			; ..`.
002524: 012706 111234       	mov	#111234,r6		; F...
002530: 005037 111610       	clr	@#111610		; ....
002534: 000402              	br	2542			; ..
;
002536: 106427 000340       	mtps	#340			; ..`.
002542: 013705 111262       	mov	@#111262,r5		; E.2.
002546: 001025              	bne	2622			; ..
002550: 013705 111600       	mov	@#111600,r5		; E...
002554: 001060              	bne	2716			; 0.
002556: 005737 111336       	tst	@#111336		; _.^.
002562: 001012              	bne	2610			; ..
002564: 012637 172346       	mov	(r6)+,@#172346		; ..ft
002570: 012637 172344       	mov	(r6)+,@#172344		; ..dt
002574: 012603              	mov	(r6)+,r3		; ..
002576: 012604              	mov	(r6)+,r4		; ..
002600: 012605              	mov	(r6)+,r5		; ..
002602: 005337 111606       	dec	@#111606		; _...
002606: 000002              	rti				; ..
;
002610: 106427 000000       	mtps	#0			; ....
002614: 004737 007216       	call	@#7216			; _...
002620: 000746              	br	2536			; f.
;
002622: 011537 111262       	mov	(r5),@#111262		; _.2.
002626: 001003              	bne	2636			; ..
002630: 012737 111262 111264	mov	#111262,@#111264	; _.2.4.
002636: 106427 000000       	mtps	#0			; ....
002642: 010046              	mov	r0,-(r6)		; &.
002644: 010146              	mov	r1,-(r6)		; f.
002646: 010246              	mov	r2,-(r6)		; &.
002650: 016537 177764 172344	mov	177764(r5),@#172344	; _.t.dt
002656: 016537 177766 172346	mov	177766(r5),@#172346	; _.v.ft
002664: 014504              	mov	-(r5),r4		; D.
002666: 014503              	mov	-(r5),r3		; C.
002670: 014500              	mov	-(r5),r0		; @.
002672: 005137 111266       	com	@#111266		; _.6.
002676: 005015              	clr	(r5)			; ..
002700: 004710              	call	(r0)			; H.
002702: 005037 111266       	clr	@#111266		; ..6.
002706: 012602              	mov	(r6)+,r2		; ..
002710: 012601              	mov	(r6)+,r1		; ..
002712: 012600              	mov	(r6)+,r0		; ..
002714: 000710              	br	2536			; H.
;
002716: 011537 111600       	mov	(r5),@#111600		; _...
002722: 001003              	bne	2732			; ..
002724: 012737 111600 111602	mov	#111600,@#111602	; _.....
002732: 010037 111354       	mov	r0,@#111354		; ..l.
002736: 010637 111610       	mov	r6,@#111610		; ....
002742: 062705 000056       	add	#56,r5			; Ee..
002746: 011506              	mov	(r5),r6			; F.
002750: 106427 000000       	mtps	#0			; ....
002754: 005025              	clr	(r5)+			; ..
002756: 012504              	mov	(r5)+,r4		; D.
002760: 012503              	mov	(r5)+,r3		; C.
002762: 012500              	mov	(r5)+,r0		; @.
002764: 012537 172344       	mov	(r5)+,@#172344		; _.dt
002770: 011537 172346       	mov	(r5),@#172346		; _.ft
002774: 162705 000116       	sub	#116,r5			; EeN.
003000: 010537 111604       	mov	r5,@#111604		; _...
003004: 142765 000040 000007	bicb	#40,7(r5)		; uE ...
003012: 000241              	clc				; !.
003014: 132765 000100 000007	bitb	#100,7(r5)		; u5@...
003022: 001404              	beq	3034			; ..
003024: 142765 000100 000007	bicb	#100,7(r5)		; uE@...
003032: 000261              	sec				; 1.
003034: 000207              	ret				; ..
;
003036: 013705 111604       	mov	@#111604,r5		; E...
003042: 010065 000120       	mov	r0,120(r5)		; 5.P.
003046: 005737 111400       	tst	@#111400		; _...
003052: 001403              	beq	3062			; ..
003054: 052765 000001 000140	bis	#1,140(r5)		; uU..`.
003062: 005037 111604       	clr	@#111604		; ....
003066: 013700 111354       	mov	@#111354,r0		; @.l.
003072: 000137 002520       	jmp	@#2520			; _.P.
;
003076: 004537 003612       	jsr	r5,@#3612		; _...
003102: 013705 111246       	mov	@#111246,r5		; E.&.
003106: 006565 177776       	mfpi	177776(r5)		; u.~.
003112: 012637 111404       	mov	(r6)+,@#111404		; ....
003116: 105037 111405       	clrb	@#111405		; ....
003122: 052737 014000 111404	bis	#14000,@#111404		; _U....
003130: 012705 111402       	mov	#111402,r5		; E...
003134: 000113              	jmp	(r3)			; K.
;
003136: 004537 003612       	jsr	r5,@#3612		; _...
003142: 013746 177572       	mov	@#177572,-(r6)		; f.z.
003146: 106644              	mtpd	-(r4)			; $.
003150: 013746 177574       	mov	@#177574,-(r6)		; f.|.
003154: 106644              	mtpd	-(r4)			; $.
003156: 013746 177576       	mov	@#177576,-(r6)		; f.~.
003162: 106644              	mtpd	-(r4)			; $.
003164: 013746 172516       	mov	@#172516,-(r6)		; f.Nu
003170: 106644              	mtpd	-(r4)			; $.
003172: 012705 020732       	mov	#20732,r5		; E.Z!
003176: 000113              	jmp	(r3)			; K.
;
003200: 004537 003612       	jsr	r5,@#3612		; _...
003204: 013705 111246       	mov	@#111246,r5		; E.&.
003210: 006565 177776       	mfpi	177776(r5)		; u.~.
003214: 012637 111414       	mov	(r6)+,@#111414		; ....
003220: 105037 111415       	clrb	@#111415		; ....
003224: 052737 020000 111414	bis	#20000,@#111414		; _U. ..
003232: 012705 111412       	mov	#111412,r5		; E...
003236: 000113              	jmp	(r3)			; K.
;
003240: 005037 111566       	clr	@#111566		; ..v.
003244: 000402              	br	3252			; ..
;
003246: 010637 111566       	mov	r6,@#111566		; ..v.
003252: 010566 177776       	mov	r5,177776(r6)		; v.~.
003256: 013705 111312       	mov	@#111312,r5		; E.J.
003262: 016566 000044 000002	mov	44(r5),2(r6)		; v.$...
003270: 016516 000042       	mov	42(r5),(r6)		; N.".
003274: 016605 177776       	mov	177776(r6),r5		; ..~.
003300: 004537 003612       	jsr	r5,@#3612		; _...
003304: 013705 111312       	mov	@#111312,r5		; E.J.
003310: 012737 050002 111572	mov	#50002,@#111572		; _..Pz.
003316: 005737 111566       	tst	@#111566		; _.v.
003322: 001403              	beq	3332			; ..
003324: 012737 050001 111572	mov	#50001,@#111572		; _..Pz.
003332: 012705 111570       	mov	#111570,r5		; E.x.
003336: 000113              	jmp	(r3)			; K.
;
003340: 013746 172344       	mov	@#172344,-(r6)		; f.dt
003344: 013746 172346       	mov	@#172346,-(r6)		; f.ft
003350: 016537 000004 172344	mov	4(r5),@#172344		; _...dt
003356: 016537 000006 172346	mov	6(r5),@#172346		; _...ft
003364: 004475 000022       	jsr	r4,@22(r5)		; =...
003370: 012637 172346       	mov	(r6)+,@#172346		; ..ft
003374: 012637 172344       	mov	(r6)+,@#172344		; ..dt
003400: 012605              	mov	(r6)+,r5		; ..
003402: 000002              	rti				; ..
;
003404: 010365 000010       	mov	r3,10(r5)		; u...
003410: 016604 000006       	mov	6(r6),r4		; ....
003414: 016603 000004       	mov	4(r6),r3		; ....
003420: 016666 000002 000006	mov	2(r6),6(r6)		; 6.....
003426: 011666 000004       	mov	(r6),4(r6)		; 6...
003432: 010466 000002       	mov	r4,2(r6)		; 6...
003436: 010316              	mov	r3,(r6)			; N.
003440: 000406              	br	3456			; ..
;
003442: 010446              	mov	r4,-(r6)		; &.
003444: 010346              	mov	r3,-(r6)		; f.
003446: 013746 172344       	mov	@#172344,-(r6)		; f.dt
003452: 013746 172346       	mov	@#172346,-(r6)		; f.ft
003456: 005237 111606       	inc	@#111606		; ....
003462: 023727 111606 000001	cmp	@#111606,#1		; W'....
003470: 001007              	bne	3510			; ..
003472: 005737 111610       	tst	@#111610		; _...
003476: 001404              	beq	3510			; ..
003500: 010637 111612       	mov	r6,@#111612		; ....
003504: 012706 111234       	mov	#111234,r6		; F...
003510: 106465 177772       	mtps	177772(r5)		; 5.z.
003514: 012504              	mov	(r5)+,r4		; D.
003516: 012503              	mov	(r5)+,r3		; C.
003520: 012537 172344       	mov	(r5)+,@#172344		; _.dt
003524: 012537 172346       	mov	(r5)+,@#172346		; _.ft
003530: 004735              	call	@(r5)+			; ].
003532: 023727 111606 000001	cmp	@#111606,#1		; W'....
003540: 002422              	blt	3606			; ..
003542: 003007              	bgt	3562			; ..
003544: 005737 111610       	tst	@#111610		; _...
003550: 001404              	beq	3562			; ..
003552: 106427 000340       	mtps	#340			; ..`.
003556: 013706 111612       	mov	@#111612,r6		; F...
003562: 012637 172346       	mov	(r6)+,@#172346		; ..ft
003566: 012637 172344       	mov	(r6)+,@#172344		; ..dt
003572: 012603              	mov	(r6)+,r3		; ..
003574: 012604              	mov	(r6)+,r4		; ..
003576: 012605              	mov	(r6)+,r5		; ..
003600: 005337 111606       	dec	@#111606		; _...
003604: 000002              	rti				; ..
;
003606: 000137 002536       	jmp	@#2536			; _.^.
;
003612: 005737 111606       	tst	@#111606		; _...
003616: 100412              	bmi	3644			; ..
003620: 022737 000001 111654	cmp	#1,@#111654		; _%..,.
003626: 001402              	beq	3634			; ..
003630: 000137 002356       	jmp	@#2356			; _.n.
;
003634: 005726              	tst	(r6)+			; V.
003636: 012716 003710       	mov	#3710,(r6)		; N.H.
003642: 000002              	rti				; ..
;
003644: 010446              	mov	r4,-(r6)		; &.
003646: 010346              	mov	r3,-(r6)		; f.
003650: 013746 172344       	mov	@#172344,-(r6)		; f.dt
003654: 013746 172346       	mov	@#172346,-(r6)		; f.ft
003660: 005237 111606       	inc	@#111606		; ....
003664: 013706 111312       	mov	@#111312,r6		; F.J.
003670: 062706 000272       	add	#272,r6			; Fe:.
003674: 005137 111610       	com	@#111610		; _...
003700: 106427 000000       	mtps	#0			; ....
003704: 106506              	mfpd	r6			; F.
003706: 012604              	mov	(r6)+,r4		; ..
003710: 010003              	mov	r0,r3			; ..
003712: 010446              	mov	r4,-(r6)		; &.
003714: 010600              	mov	r6,r0			; ..
003716: 004737 002310       	call	@#2310			; _.H.
003722: 012600              	mov	(r6)+,r0		; ..
003724: 010300              	mov	r3,r0			; @.
003726: 103006              	bcc	3744			; ..
003730: 013703 111312       	mov	@#111312,r3		; C.J.
003734: 016346 000040       	mov	40(r3),-(r6)		; f. .
003740: 106606              	mtpd	r6			; ..
003742: 000760              	br	3704			; p.
;
003744: 012703 111252       	mov	#111252,r3		; C.*.
003750: 005237 111654       	inc	@#111654		; ..,.
003754: 014346              	mov	-(r3),-(r6)		; f.
003756: 106644              	mtpd	-(r4)			; $.
003760: 014346              	mov	-(r3),-(r6)		; f.
003762: 106644              	mtpd	-(r4)			; $.
003764: 014346              	mov	-(r3),-(r6)		; f.
003766: 106644              	mtpd	-(r4)			; $.
003770: 014346              	mov	-(r3),-(r6)		; f.
003772: 106644              	mtpd	-(r4)			; $.
003774: 014346              	mov	-(r3),-(r6)		; f.
003776: 106644              	mtpd	-(r4)			; $.
004000: 012703 004006       	mov	#4006,r3		; C...
004004: 000115              	jmp	(r5)			; M.
;
004006: 012546              	mov	(r5)+,-(r6)		; f.
004010: 106644              	mtpd	-(r4)			; $.
004012: 012546              	mov	(r5)+,-(r6)		; f.
004014: 106644              	mtpd	-(r4)			; $.
004016: 012546              	mov	(r5)+,-(r6)		; f.
004020: 106644              	mtpd	-(r4)			; $.
004022: 010446              	mov	r4,-(r6)		; &.
004024: 106606              	mtpd	r6			; ..
004026: 005037 111654       	clr	@#111654		; ..,.
004032: 012504              	mov	(r5)+,r4		; D.
004034: 013705 111312       	mov	@#111312,r5		; E.J.
004040: 004737 004324       	call	@#4324			; _.T.
004044: 103435              	bcs	4140			; ..
004046: 010046              	mov	r0,-(r6)		; &.
004050: 010546              	mov	r5,-(r6)		; f.
004052: 010446              	mov	r4,-(r6)		; &.
004054: 010600              	mov	r6,r0			; ..
004056: 010637 111266       	mov	r6,@#111266		; ..6.
004062: 004737 007732       	call	@#7732			; _.Z.
004066: 005037 111266       	clr	@#111266		; ..6.
004072: 005726              	tst	(r6)+			; V.
004074: 012605              	mov	(r6)+,r5		; ..
004076: 012600              	mov	(r6)+,r0		; ..
004100: 005737 111400       	tst	@#111400		; _...
004104: 001015              	bne	4140			; ..
004106: 112765 000005 000005	movb	#5,5(r5)		; u.....
004114: 005065 000002       	clr	2(r5)			; 5...
004120: 010637 111336       	mov	r6,@#111336		; ..^.
004124: 005037 111312       	clr	@#111312		; ..J.
004130: 004737 012012       	call	@#12012			; _...
004134: 000137 002520       	jmp	@#2520			; _.P.
;
004140: 106506              	mfpd	r6			; F.
004142: 012604              	mov	(r6)+,r4		; ..
004144: 106514              	mfpd	(r4)			; L.
004146: 012604              	mov	(r6)+,r4		; ..
004150: 030465 000014       	bit	r4,14(r5)		; 51..
004154: 001405              	beq	4170			; ..
004156: 016504 000012       	mov	12(r5),r4		; D...
004162: 116503 000147       	movb	147(r5),r3		; C.g.
004166: 000426              	br	4244			; ..
;
004170: 005765 000046       	tst	46(r5)			; u.&.
004174: 001006              	bne	4212			; ..
004176: 106506              	mfpd	r6			; F.
004200: 012604              	mov	(r6)+,r4		; ..
004202: 106564 000002       	mfpd	2(r4)			; t...
004206: 012665 000046       	mov	(r6)+,46(r5)		; 5.&.
004212: 132765 000200 000007	bitb	#200,7(r5)		; u5....
004220: 001033              	bne	4310			; ..
004222: 152765 000220 000007	bisb	#220,7(r5)		; uU....
004230: 004737 002306       	call	@#2306			; _.F.
004234: 016504 000032       	mov	32(r5),r4		; D...
004240: 116503 000151       	movb	151(r5),r3		; C.i.
004244: 110337 111251       	movb	r3,@#111251		; _.).
004250: 000303              	swab	r3			; C.
004252: 006203              	asr	r3			; ..
004254: 006203              	asr	r3			; ..
004256: 042703 147777       	bic	#147777,r3		; CE.O
004262: 106506              	mfpd	r6			; F.
004264: 042737 030000 177776	bic	#30000,@#177776		; _E.0~.
004272: 050337 177776       	bis	r3,@#177776		; _P~.
004276: 106606              	mtpd	r6			; ..
004300: 010437 111246       	mov	r4,@#111246		; ..&.
004304: 000137 002520       	jmp	@#2520			; _.P.
;
004310: 004737 002306       	call	@#2306			; _.F.
004314: 004737 013172       	call	@#13172			; _.z.
004320: 000137 002520       	jmp	@#2520			; _.P.
;
004324: 062704 111614       	add	#111614,r4		; De..
004330: 010446              	mov	r4,-(r6)		; &.
004332: 011404              	mov	(r4),r4			; ..
004334: 021604              	cmp	(r6),r4			; .#
004336: 001417              	beq	4376			; ..
004340: 005764 000002       	tst	2(r4)			; t...
004344: 001410              	beq	4366			; ..
004346: 000403              	br	4356			; ..
;
004350: 011404              	mov	(r4),r4			; ..
004352: 021604              	cmp	(r6),r4			; .#
004354: 001410              	beq	4376			; ..
004356: 126564 000031 000002	cmpb	31(r5),2(r4)		; t-....
004364: 001371              	bne	4350			; y.
004366: 062704 000004       	add	#4,r4			; De..
004372: 005726              	tst	(r6)+			; V.
004374: 000207              	ret				; ..
;
004376: 005126              	com	(r6)+			; V.
004400: 000207              	ret				; ..
;
004402: 013704 111526       	mov	@#111526,r4		; D.V.
004406: 000137 017716       	jmp	@#17716			; _.N.
;
004412: 016605 000002       	mov	2(r6),r5		; ....
004416: 016500 000034       	mov	34(r5),r0		; @...
004422: 005037 111400       	clr	@#111400		; ....
004426: 000207              	ret				; ..
;
004430: 012003              	mov	(r0)+,r3		; ..
004432: 004737 017126       	call	@#17126			; _.V.
004436: 103406              	bcs	4454			; ..
004440: 021027 000377       	cmp	(r0),#377		; ."..
004444: 101410              	blos	4466			; ..
004446: 012700 060011       	mov	#60011,r0		; @..`
004452: 000402              	br	4460			; ..
;
004454: 012700 060001       	mov	#60001,r0		; @..`
004460: 010637 111400       	mov	r6,@#111400		; ....
004464: 000207              	ret				; ..
;
004466: 111064 000004       	movb	(r0),4(r4)		; 4...
004472: 010637 111336       	mov	r6,@#111336		; ..^.
004476: 005037 111400       	clr	@#111400		; ....
004502: 000207              	ret				; ..
;
004504: 010146              	mov	r1,-(r6)		; f.
004506: 010246              	mov	r2,-(r6)		; &.
004510: 004737 002310       	call	@#2310			; _.H.
004514: 103003              	bcc	4524			; ..
004516: 012700 060010       	mov	#60010,r0		; @..`
004522: 000445              	br	4636			; %.
;
004524: 005037 111400       	clr	@#111400		; ....
004530: 012003              	mov	(r0)+,r3		; ..
004532: 004737 013374       	call	@#13374			; _.|.
004536: 010302              	mov	r3,r2			; B.
004540: 005713              	tst	(r3)			; K.
004542: 001020              	bne	4604			; ..
004544: 004737 017246       	call	@#17246			; _.&.
004550: 103411              	bcs	4574			; ..
004552: 021027 000006       	cmp	(r0),#6			; ."..
004556: 001403              	beq	4566			; ..
004560: 004737 017024       	call	@#17024			; _...
004564: 103367              	bcc	4544			; w.
004566: 012700 060004       	mov	#60004,r0		; @..`
004572: 000421              	br	4636			; ..
;
004574: 012001              	mov	(r0)+,r1		; ..
004576: 020127 000010       	cmp	r1,#10			; W ..
004602: 103403              	bcs	4612			; ..
004604: 012700 060011       	mov	#60011,r0		; @..`
004610: 000412              	br	4636			; ..
;
004612: 006301              	asl	r1			; A.
004614: 012046              	mov	(r0)+,-(r6)		; &.
004616: 010446              	mov	r4,-(r6)		; &.
004620: 016104 020462       	mov	20462(r1),r4		; D.2!
004624: 011000              	mov	(r0),r0			; ..
004626: 004771 020522       	call	@20522(r1)		; y.R!
004632: 103004              	bcc	4644			; ..
004634: 032626              	bit	(r6)+,(r6)+		; .5
004636: 010637 111400       	mov	r6,@#111400		; ....
004642: 000476              	br	5040			; >.
;
004644: 012705 000012       	mov	#12,r5			; E...
004650: 105763 000006       	tstb	6(r3)			; s...
004654: 001402              	beq	4662			; ..
004656: 062705 000010       	add	#10,r5			; Ee..
004662: 060504              	add	r5,r4			; Da
004664: 010403              	mov	r4,r3			; ..
004666: 004737 015704       	call	@#15704			; _.D.
004672: 103003              	bcc	4702			; ..
004674: 005000              	clr	r0			; ..
004676: 032626              	bit	(r6)+,(r6)+		; .5
004700: 000457              	br	5040			; /.
;
004702: 004237 016010       	jsr	r2,@#16010		; ....
004706: 060503              	add	r5,r3			; Ca
004710: 010463 177766       	mov	r4,177766(r3)		; 3.v.
004714: 110163 177774       	movb	r1,177774(r3)		; s.|.
004720: 106263 177774       	asrb	177774(r3)		; 3.|.
004724: 012605              	mov	(r6)+,r5		; ..
004726: 012604              	mov	(r6)+,r4		; ..
004730: 105762 000006       	tstb	6(r2)			; r...
004734: 001415              	beq	4770			; ..
004736: 152704 000001       	bisb	#1,r4			; DU..
004742: 016263 000006 177756	mov	6(r2),177756(r3)	; 3...n.
004750: 016263 000010 177760	mov	10(r2),177760(r3)	; 3...p.
004756: 016263 000012 177762	mov	12(r2),177762(r3)	; 3...r.
004764: 010365 177764       	mov	r3,177764(r5)		; u.t.
004770: 110463 177775       	movb	r4,177775(r3)		; 3.}.
004774: 005263 177776       	inc	177776(r3)		; 3.~.
005000: 012704 111256       	mov	#111256,r4		; D...
005004: 005224              	inc	(r4)+			; ..
005006: 001001              	bne	5012			; ..
005010: 005214              	inc	(r4)			; ..
005012: 011463 177772       	mov	(r4),177772(r3)		; 3.z.
005016: 014463 177770       	mov	-(r4),177770(r3)	; 3.x.
005022: 010322              	mov	r3,(r2)+		; R.
005024: 012422              	mov	(r4)+,(r2)+		; ..
005026: 011412              	mov	(r4),(r2)		; ..
005030: 004771 020502       	call	@20502(r1)		; y.B!
005034: 012700 000001       	mov	#1,r0			; @...
005040: 012602              	mov	(r6)+,r2		; ..
005042: 012601              	mov	(r6)+,r1		; ..
005044: 000207              	ret				; ..
;
005046: 022700 000001       	cmp	#1,r0			; @%..
005052: 103443              	bcs	5162			; #.
005054: 000207              	ret				; ..
;
005056: 005700              	tst	r0			; @.
005060: 100440              	bmi	5162			;  .
005062: 000207              	ret				; ..
;
005064: 000412              	br	5112			; ..
;
005066: 042700 000001       	bic	#1,r0			; @E..
005072: 020027 017700       	cmp	r0,#17700		; . @.
005076: 101031              	bhi	5162			; ..
005100: 020027 000010       	cmp	r0,#10			; . ..
005104: 002002              	bge	5112			; ..
005106: 012700 000010       	mov	#10,r0			; @...
005112: 060004              	add	r0,r4			; .`
005114: 000207              	ret				; ..
;
005116: 020027 000400       	cmp	r0,#400			; . ..
005122: 101017              	bhi	5162			; ..
005124: 005700              	tst	r0			; @.
005126: 001415              	beq	5162			; ..
005130: 060004              	add	r0,r4			; .`
005132: 000207              	ret				; ..
;
005134: 000207              	ret				; ..
;
005136: 005737 111356       	tst	@#111356		; _.n.
005142: 001404              	beq	5154			; ..
005144: 005037 111356       	clr	@#111356		; ..n.
005150: 060004              	add	r0,r4			; .`
005152: 000207              	ret				; ..
;
005154: 012700 060014       	mov	#60014,r0		; @..`
005160: 000402              	br	5166			; ..
;
005162: 012700 060011       	mov	#60011,r0		; @..`
005166: 000261              	sec				; 1.
005170: 000207              	ret				; ..
;
005172: 010063 000002       	mov	r0,2(r3)		; 3...
005176: 000207              	ret				; ..
;
005200: 010013              	mov	r0,(r3)			; ..
005202: 000207              	ret				; ..
;
005204: 010305              	mov	r3,r5			; E.
005206: 062705 000034       	add	#34,r5			; Ee..
005212: 010563 000002       	mov	r5,2(r3)		; s...
005216: 010563 000010       	mov	r5,10(r3)		; s...
005222: 010563 000022       	mov	r5,22(r3)		; s...
005226: 010563 000004       	mov	r5,4(r3)		; s...
005232: 060063 000004       	add	r0,4(r3)		; 3`..
005236: 010063 000006       	mov	r0,6(r3)		; 3...
005242: 005263 000026       	inc	26(r3)			; 3...
005246: 005263 000014       	inc	14(r3)			; 3...
005252: 000207              	ret				; ..
;
005254: 011003              	mov	(r0),r3			; ..
005256: 013704 111526       	mov	@#111526,r4		; D.V.
005262: 000137 007754       	jmp	@#7754			; _.l.
;
005266: 011003              	mov	(r0),r3			; ..
005270: 013704 111526       	mov	@#111526,r4		; D.V.
005274: 000137 007760       	jmp	@#7760			; _.p.
;
005300: 005037 111400       	clr	@#111400		; ....
005304: 011003              	mov	(r0),r3			; ..
005306: 004737 017222       	call	@#17222			; _...
005312: 103404              	bcs	5324			; ..
005314: 126427 177774 000006	cmpb	177774(r4),#6		; .-|...
005322: 001422              	beq	5370			; ..
005324: 012700 060001       	mov	#60001,r0		; @..`
005330: 000430              	br	5412			; ..
;
005332: 005037 111400       	clr	@#111400		; ....
005336: 011003              	mov	(r0),r3			; ..
005340: 004737 017222       	call	@#17222			; _...
005344: 103406              	bcs	5362			; ..
005346: 004737 017024       	call	@#17024			; _...
005352: 103406              	bcs	5370			; ..
005354: 004737 017246       	call	@#17246			; _.&.
005360: 103372              	bcc	5346			; z.
005362: 012700 060001       	mov	#60001,r0		; @..`
005366: 000411              	br	5412			; ..
;
005370: 010400              	mov	r4,r0			; ..
005372: 116005 177774       	movb	177774(r0),r5		; ..|.
005376: 106305              	aslb	r5			; E.
005400: 004775 020542       	call	@20542(r5)		; }.b!
005404: 001405              	beq	5420			; ..
005406: 012700 060007       	mov	#60007,r0		; @..`
005412: 010637 111400       	mov	r6,@#111400		; ....
005416: 000207              	ret				; ..
;
005420: 010005              	mov	r0,r5			; ..
005422: 162705 000012       	sub	#12,r5			; Ee..
005426: 132760 000001 177775	bitb	#1,177775(r0)		; p5..}.
005434: 001431              	beq	5520			; ..
005436: 016063 177756 000006	mov	177756(r0),6(r3)	; 3.n...
005444: 016063 177760 000010	mov	177760(r0),10(r3)	; 3.p...
005452: 016063 177762 000012	mov	177762(r0),12(r3)	; 3.r...
005460: 162705 000010       	sub	#10,r5			; Ee..
005464: 004737 017376       	call	@#17376			; _.~.
005470: 103734              	bcs	5362			; \.
005472: 162704 177764       	sub	#177764,r4		; Det.
005476: 026400 177764       	cmp	177764(r4),r0		; .-t.
005502: 001403              	beq	5512			; ..
005504: 016404 177764       	mov	177764(r4),r4		; ..t.
005510: 000772              	br	5476			; z.
;
005512: 016064 177764 177764	mov	177764(r0),177764(r4)	; 4.t.t.
005520: 010504              	mov	r5,r4			; D.
005522: 005060 177770       	clr	177770(r0)		; 0.x.
005526: 005060 177772       	clr	177772(r0)		; 0.z.
005532: 016003 177766       	mov	177766(r0),r3		; ..v.
005536: 004737 016400       	call	@#16400			; _...
005542: 000207              	ret				; ..
;
005544: 005760 000014       	tst	14(r0)			; p...
005550: 001403              	beq	5560			; ..
005552: 005760 000026       	tst	26(r0)			; p...
005556: 001005              	bne	5572			; ..
005560: 000244              	clz				; $.
005562: 000207              	ret				; ..
;
005564: 005760 000006       	tst	6(r0)			; p...
005570: 001001              	bne	5574			; ..
005572: 005710              	tst	(r0)			; H.
005574: 000207              	ret				; ..
;
005576: 000264              	sez				; 4.
005600: 000207              	ret				; ..
;
005602: 004137 017460       	jsr	r1,@#17460		; _.0.
005606: 000004              	iot				; ..
005610: 000012              	invalid opcode			; ..
005612: 000422              	br	5660			; ..
;
005614: 010046              	mov	r0,-(r6)		; &.
005616: 016046 000002       	mov	2(r0),-(r6)		; &...
005622: 010600              	mov	r6,r0			; ..
005624: 004737 002310       	call	@#2310			; _.H.
005630: 005226              	inc	(r6)+			; ..
005632: 012600              	mov	(r6)+,r0		; ..
005634: 103005              	bcc	5650			; ..
005636: 012700 060010       	mov	#60010,r0		; @..`
005642: 010637 111400       	mov	r6,@#111400		; ....
005646: 000207              	ret				; ..
;
005650: 004137 017466       	jsr	r1,@#17466		; _.6.
005654: 000004              	iot				; ..
005656: 000012              	invalid opcode			; ..
005660: 012003              	mov	(r0)+,r3		; ..
005662: 004737 013374       	call	@#13374			; _.|.
005666: 011000              	mov	(r0),r0			; ..
005670: 001467              	beq	6050			; 7.
005672: 020012              	cmp	r0,(r2)			; . 
005674: 101410              	blos	5716			; ..
005676: 132762 000002 177775	bitb	#2,177775(r2)		; r5..}.
005704: 001412              	beq	5732			; ..
005706: 016216 000006       	mov	6(r2),(r6)		; ....
005712: 006216              	asr	(r6)			; ..
005714: 006216              	asr	(r6)			; ..
005716: 005712              	tst	(r2)			; J.
005720: 001023              	bne	5770			; ..
005722: 011662 000030       	mov	(r6),30(r2)		; 2...
005726: 020016              	cmp	r0,(r6)			; . 
005730: 103002              	bcc	5736			; ..
005732: 010062 000030       	mov	r0,30(r2)		; 2...
005736: 010562 000032       	mov	r5,32(r2)		; r...
005742: 112765 000003 000005	movb	#3,5(r5)		; u.....
005750: 005065 000002       	clr	2(r5)			; 5...
005754: 004737 017650       	call	@#17650			; _.(.
005760: 103003              	bcc	5770			; ..
005762: 005062 000032       	clr	32(r2)			; 2...
005766: 000430              	br	6050			; ..
;
005770: 026244 000004       	cmp	4(r2),-(r4)		; $,..
005774: 101002              	bhi	6002			; ..
005776: 016214 000002       	mov	2(r2),(r4)		; ....
006002: 117423 000000       	movb	@0(r4),(r3)+		; ....
006006: 005312              	dec	(r2)			; J.
006010: 005224              	inc	(r4)+			; ..
006012: 026212 000016       	cmp	16(r2),(r2)		; .,..
006016: 001013              	bne	6046			; ..
006020: 005062 000016       	clr	16(r2)			; 2...
006024: 016205 000020       	mov	20(r2),r5		; ....
006030: 001404              	beq	6042			; ..
006032: 005062 000020       	clr	20(r2)			; 2...
006036: 004737 020066       	call	@#20066			; _.6 
006042: 016605 000010       	mov	10(r6),r5		; ....
006046: 077055              	sob	r0,5716			; -~
006050: 005726              	tst	(r6)+			; V.
006052: 005726              	tst	(r6)+			; V.
006054: 001414              	beq	6106			; ..
006056: 004737 020066       	call	@#20066			; _.6 
006062: 011405              	mov	(r4),r5			; ..
006064: 001410              	beq	6106			; ..
006066: 011514              	mov	(r5),(r4)		; L.
006070: 010237 111424       	mov	r2,@#111424		; ....
006074: 004737 020066       	call	@#20066			; _.6 
006100: 005037 111424       	clr	@#111424		; ....
006104: 000402              	br	6112			; ..
;
006106: 005262 000014       	inc	14(r2)			; 2...
006112: 005037 111400       	clr	@#111400		; ....
006116: 012602              	mov	(r6)+,r2		; ..
006120: 000207              	ret				; ..
;
006122: 005037 111400       	clr	@#111400		; ....
006126: 012003              	mov	(r0)+,r3		; ..
006130: 001426              	beq	6206			; ..
006132: 004737 017222       	call	@#17222			; _...
006136: 103005              	bcc	6152			; ..
006140: 012700 060001       	mov	#60001,r0		; @..`
006144: 010637 111400       	mov	r6,@#111400		; ....
006150: 000207              	ret				; ..
;
006152: 004737 017024       	call	@#17024			; _...
006156: 103365              	bcc	6132			; u.
006160: 116405 177774       	movb	177774(r4),r5		; ..|.
006164: 010546              	mov	r5,-(r6)		; f.
006166: 106630              	mtpd	@(r0)+			; ..
006170: 106305              	aslb	r5			; E.
006172: 004775 020562       	call	@20562(r5)		; }.r!
006176: 010346              	mov	r3,-(r6)		; f.
006200: 106670 000000       	mtpd	@0(r0)			; 8...
006204: 000207              	ret				; ..
;
006206: 012705 021020       	mov	#21020,r5		; E.."
006212: 012546              	mov	(r5)+,-(r6)		; f.
006214: 106630              	mtpd	@(r0)+			; ..
006216: 011546              	mov	(r5),-(r6)		; f.
006220: 106670 000000       	mtpd	@0(r0)			; 8...
006224: 000207              	ret				; ..
;
006226: 016403 000002       	mov	2(r4),r3		; ....
006232: 000406              	br	6250			; ..
;
006234: 016403 000006       	mov	6(r4),r3		; ....
006240: 000403              	br	6250			; ..
;
006242: 011403              	mov	(r4),r3			; ..
006244: 000401              	br	6250			; ..
;
006246: 005003              	clr	r3			; ..
006250: 000207              	ret				; ..
;
006252: 012700 060014       	mov	#60014,r0		; @..`
006256: 012637 111400       	mov	(r6)+,@#111400		; ....
006262: 000207              	ret				; ..
;
006264: 010046              	mov	r0,-(r6)		; &.
006266: 016046 000002       	mov	2(r0),-(r6)		; &...
006272: 010600              	mov	r6,r0			; ..
006274: 004737 002310       	call	@#2310			; _.H.
006300: 005226              	inc	(r6)+			; ..
006302: 012600              	mov	(r6)+,r0		; ..
006304: 103005              	bcc	6320			; ..
006306: 012700 060010       	mov	#60010,r0		; @..`
006312: 010637 111400       	mov	r6,@#111400		; ....
006316: 000207              	ret				; ..
;
006320: 004137 017466       	jsr	r1,@#17466		; _.6.
006324: 000002              	rti				; ..
;
006326: 000024              	invalid opcode			; ..
006330: 012003              	mov	(r0)+,r3		; ..
006332: 004737 013374       	call	@#13374			; _.|.
006336: 011000              	mov	(r0),r0			; ..
006340: 001502              	beq	6546			; B.
006342: 016216 000006       	mov	6(r2),(r6)		; ....
006346: 161216              	sub	(r2),(r6)		; .b
006350: 020016              	cmp	r0,(r6)			; . 
006352: 101412              	blos	6400			; ..
006354: 132762 000002 177775	bitb	#2,177775(r2)		; r5..}.
006362: 001415              	beq	6416			; ..
006364: 016216 000006       	mov	6(r2),(r6)		; ....
006370: 006216              	asr	(r6)			; ..
006372: 011646              	mov	(r6),-(r6)		; &.
006374: 006216              	asr	(r6)			; ..
006376: 062616              	add	(r6)+,(r6)		; .e
006400: 026212 000006       	cmp	6(r2),(r2)		; .,..
006404: 001030              	bne	6466			; ..
006406: 011662 000016       	mov	(r6),16(r2)		; 2...
006412: 020016              	cmp	r0,(r6)			; . 
006414: 103002              	bcc	6422			; ..
006416: 010062 000016       	mov	r0,16(r2)		; 2...
006422: 005462 000016       	neg	16(r2)			; 2...
006426: 066262 000006 000016	add	6(r2),16(r2)		; 2l....
006434: 010562 000020       	mov	r5,20(r2)		; r...
006440: 112765 000003 000005	movb	#3,5(r5)		; u.....
006446: 005065 000002       	clr	2(r5)			; 5...
006452: 004737 017650       	call	@#17650			; _.(.
006456: 103003              	bcc	6466			; ..
006460: 005062 000020       	clr	20(r2)			; 2...
006464: 000430              	br	6546			; ..
;
006466: 026244 000004       	cmp	4(r2),-(r4)		; $,..
006472: 101002              	bhi	6500			; ..
006474: 016214 000002       	mov	2(r2),(r4)		; ....
006500: 112374 000000       	movb	(r3)+,@0(r4)		; |...
006504: 005212              	inc	(r2)			; ..
006506: 005224              	inc	(r4)+			; ..
006510: 026212 000030       	cmp	30(r2),(r2)		; .,..
006514: 001013              	bne	6544			; ..
006516: 005062 000030       	clr	30(r2)			; 2...
006522: 016205 000032       	mov	32(r2),r5		; ....
006526: 001404              	beq	6540			; ..
006530: 005062 000032       	clr	32(r2)			; 2...
006534: 004737 020066       	call	@#20066			; _.6 
006540: 016605 000010       	mov	10(r6),r5		; ....
006544: 077063              	sob	r0,6400			; 3~
006546: 005726              	tst	(r6)+			; V.
006550: 005726              	tst	(r6)+			; V.
006552: 001410              	beq	6574			; ..
006554: 004737 020066       	call	@#20066			; _.6 
006560: 011405              	mov	(r4),r5			; ..
006562: 001404              	beq	6574			; ..
006564: 011514              	mov	(r5),(r4)		; L.
006566: 004737 020066       	call	@#20066			; _.6 
006572: 000402              	br	6600			; ..
;
006574: 005262 000026       	inc	26(r2)			; 2...
006600: 005037 111400       	clr	@#111400		; ....
006604: 012602              	mov	(r6)+,r2		; ..
006606: 000207              	ret				; ..
;
006610: 013700 100004       	mov	@#100004,r0		; @...
006614: 000207              	ret				; ..
;
006616: 004237 016732       	jsr	r2,@#16732		; ..Z.
006622: 177402              	ldcdf	f0,r2			; ..
006624: 004737 002310       	call	@#2310			; _.H.
006630: 103542              	bcs	7136			; b.
006632: 005760 000002       	tst	2(r0)			; p...
006636: 001411              	beq	6662			; ..
006640: 010046              	mov	r0,-(r6)		; &.
006642: 016046 000004       	mov	4(r0),-(r6)		; &...
006646: 010600              	mov	r6,r0			; ..
006650: 004737 002310       	call	@#2310			; _.H.
006654: 005226              	inc	(r6)+			; ..
006656: 012600              	mov	(r6)+,r0		; ..
006660: 103526              	bcs	7136			; V.
006662: 005760 000006       	tst	6(r0)			; p...
006666: 001411              	beq	6712			; ..
006670: 010046              	mov	r0,-(r6)		; &.
006672: 016046 000010       	mov	10(r0),-(r6)		; &...
006676: 010600              	mov	r6,r0			; ..
006700: 004737 002310       	call	@#2310			; _.H.
006704: 005226              	inc	(r6)+			; ..
006706: 012600              	mov	(r6)+,r0		; ..
006710: 103512              	bcs	7136			; J.
006712: 010046              	mov	r0,-(r6)		; &.
006714: 005746              	tst	-(r6)			; f.
006716: 010600              	mov	r6,r0			; ..
006720: 016646 000006       	mov	6(r6),-(r6)		; &...
006724: 004737 010652       	call	@#10652			; _.*.
006730: 005726              	tst	(r6)+			; V.
006732: 012604              	mov	(r6)+,r4		; ..
006734: 010437 111310       	mov	r4,@#111310		; ..H.
006740: 012600              	mov	(r6)+,r0		; ..
006742: 012003              	mov	(r0)+,r3		; ..
006744: 004737 013374       	call	@#13374			; _.|.
006750: 062704 000004       	add	#4,r4			; De..
006754: 012413              	mov	(r4)+,(r3)		; ..
006756: 100405              	bmi	6772			; ..
006760: 005063 000006       	clr	6(r3)			; 3...
006764: 116405 177777       	movb	177777(r4),r5		; ....
006770: 000440              	br	7072			;  .
;
006772: 042723 100000       	bic	#100000,(r3)+		; SE..
006776: 116305 177777       	movb	177777(r3),r5		; E...
007002: 010546              	mov	r5,-(r6)		; f.
007004: 010446              	mov	r4,-(r6)		; &.
007006: 062704 000034       	add	#34,r4			; De..
007012: 011423              	mov	(r4),(r3)+		; ..
007014: 016423 000002       	mov	2(r4),(r3)+		; ....
007020: 016413 000004       	mov	4(r4),(r3)		; ....
007024: 016005 000004       	mov	4(r0),r5		; ....
007030: 020513              	cmp	r5,(r3)			; K!
007032: 003401              	ble	7036			; ..
007034: 011305              	mov	(r3),r5			; E.
007036: 016003 000006       	mov	6(r0),r3		; ....
007042: 004737 013374       	call	@#13374			; _.|.
007046: 013746 172344       	mov	@#172344,-(r6)		; f.dt
007052: 004737 020266       	call	@#20266			; _.6 
007056: 004737 014004       	call	@#14004			; _...
007062: 012637 172344       	mov	(r6)+,@#172344		; ..dt
007066: 012604              	mov	(r6)+,r4		; ..
007070: 012605              	mov	(r6)+,r5		; ..
007072: 021005              	cmp	(r0),r5			; ."
007074: 002001              	bge	7100			; ..
007076: 011005              	mov	(r0),r5			; ..
007100: 005705              	tst	r5			; E.
007102: 001406              	beq	7120			; ..
007104: 016003 000002       	mov	2(r0),r3		; ....
007110: 004737 013374       	call	@#13374			; _.|.
007114: 004737 014004       	call	@#14004			; _...
007120: 012700 111310       	mov	#111310,r0		; @.H.
007124: 004737 005266       	call	@#5266			; _.6.
007130: 012700 000001       	mov	#1,r0			; @...
007134: 000207              	ret				; ..
;
007136: 012700 060010       	mov	#60010,r0		; @..`
007142: 010637 111400       	mov	r6,@#111400		; ....
007146: 000207              	ret				; ..
;
007150: 004237 016732       	jsr	r2,@#16732		; ..Z.
007154: 000400              	br	7156			; ..
;
007156: 005000              	clr	r0			; ..
007160: 011405              	mov	(r4),r5			; ..
007162: 001405              	beq	7176			; ..
007164: 012700 000001       	mov	#1,r0			; @...
007170: 004737 007210       	call	@#7210			; _...
007174: 000771              	br	7160			; y.
;
007176: 005700              	tst	r0			; @.
007200: 001402              	beq	7206			; ..
007202: 005064 000002       	clr	2(r4)			; 4...
007206: 000207              	ret				; ..
;
007210: 011514              	mov	(r5),(r4)		; L.
007212: 000137 020066       	jmp	@#20066			; _.6 
;
007216: 005037 111336       	clr	@#111336		; ..^.
007222: 012704 111314       	mov	#111314,r4		; D.L.
007226: 013705 111312       	mov	@#111312,r5		; E.J.
007232: 001427              	beq	7312			; ..
007234: 011403              	mov	(r4),r3			; ..
007236: 126563 000004 000004	cmpb	4(r5),4(r3)		; s-....
007244: 103035              	bcc	7340			; ..
007246: 004737 012012       	call	@#12012			; _...
007252: 116465 000005 000005	movb	5(r4),5(r5)		; 5.....
007260: 010446              	mov	r4,-(r6)		; &.
007262: 000401              	br	7266			; ..
;
007264: 010304              	mov	r3,r4			; D.
007266: 011403              	mov	(r4),r3			; ..
007270: 021603              	cmp	(r6),r3			; .#
007272: 001404              	beq	7304			; ..
007274: 126365 000004 000004	cmpb	4(r3),4(r5)		; u,....
007302: 101370              	bhi	7264			; x.
007304: 004737 016464       	call	@#16464			; _.4.
007310: 012604              	mov	(r6)+,r4		; ..
007312: 004737 016566       	call	@#16566			; _.v.
007316: 001411              	beq	7342			; ..
007320: 004737 011454       	call	@#11454			; _.,.
007324: 010537 111312       	mov	r5,@#111312		; _.J.
007330: 105065 000005       	clrb	5(r5)			; 5...
007334: 005065 000000       	clr	0(r5)			; 5...
007340: 000207              	ret				; ..
;
007342: 005037 111312       	clr	@#111312		; ..J.
007346: 000137 020246       	jmp	@#20246			; _.& 
;
007352: 004237 016732       	jsr	r2,@#16732		; ..Z.
007356: 177402              	ldcdf	f0,r2			; ..
007360: 010446              	mov	r4,-(r6)		; &.
007362: 005760 000002       	tst	2(r0)			; p...
007366: 001411              	beq	7412			; ..
007370: 010046              	mov	r0,-(r6)		; &.
007372: 016046 000004       	mov	4(r0),-(r6)		; &...
007376: 010600              	mov	r6,r0			; ..
007400: 004737 002310       	call	@#2310			; _.H.
007404: 005226              	inc	(r6)+			; ..
007406: 012600              	mov	(r6)+,r0		; ..
007410: 103443              	bcs	7520			; #.
007412: 005760 000006       	tst	6(r0)			; p...
007416: 001411              	beq	7442			; ..
007420: 010046              	mov	r0,-(r6)		; &.
007422: 016046 000010       	mov	10(r0),-(r6)		; &...
007426: 010600              	mov	r6,r0			; ..
007430: 004737 002310       	call	@#2310			; _.H.
007434: 005226              	inc	(r6)+			; ..
007436: 012600              	mov	(r6)+,r0		; ..
007440: 103427              	bcs	7520			; ..
007442: 016005 000002       	mov	2(r0),r5		; ....
007446: 010504              	mov	r5,r4			; D.
007450: 005760 000006       	tst	6(r0)			; p...
007454: 001410              	beq	7476			; ..
007456: 022760 017700 000006	cmp	#17700,6(r0)		; p%@...
007464: 103407              	bcs	7504			; ..
007466: 062704 000006       	add	#6,r4			; De..
007472: 052705 000200       	bis	#200,r5			; EU..
007476: 020427 000042       	cmp	r4,#42			; .!".
007502: 003411              	ble	7526			; ..
007504: 012700 060011       	mov	#60011,r0		; @..`
007510: 010637 111400       	mov	r6,@#111400		; ....
007514: 005726              	tst	(r6)+			; V.
007516: 000207              	ret				; ..
;
007520: 012700 060010       	mov	#60010,r0		; @..`
007524: 000771              	br	7510			; y.
;
007526: 012003              	mov	(r0)+,r3		; ..
007530: 000305              	swab	r5			; E.
007532: 042703 177400       	bic	#177400,r3		; CE..
007536: 050305              	bis	r3,r5			; EP
007540: 010546              	mov	r5,-(r6)		; f.
007542: 010046              	mov	r0,-(r6)		; &.
007544: 010600              	mov	r6,r0			; ..
007546: 011646              	mov	(r6),-(r6)		; &.
007550: 016646 000012       	mov	12(r6),-(r6)		; &...
007554: 004737 016000       	call	@#16000			; _...
007560: 005726              	tst	(r6)+			; V.
007562: 012600              	mov	(r6)+,r0		; ..
007564: 011603              	mov	(r6),r3			; ..
007566: 062703 000004       	add	#4,r3			; Ce..
007572: 016623 000002       	mov	2(r6),(r3)+		; ....
007576: 012005              	mov	(r0)+,r5		; ..
007600: 001406              	beq	7616			; ..
007602: 012004              	mov	(r0)+,r4		; ..
007604: 004737 013444       	call	@#13444			; _.$.
007610: 004737 014004       	call	@#14004			; _...
007614: 000402              	br	7622			; ..
;
007616: 062700 000002       	add	#2,r0			; @e..
007622: 011603              	mov	(r6),r3			; ..
007624: 062703 000042       	add	#42,r3			; Ce".
007630: 012004              	mov	(r0)+,r4		; ..
007632: 001405              	beq	7646			; ..
007634: 012005              	mov	(r0)+,r5		; ..
007636: 010523              	mov	r5,(r3)+		; S.
007640: 004737 020342       	call	@#20342			; _.b 
007644: 010413              	mov	r4,(r3)			; ..
007646: 012603              	mov	(r6)+,r3		; ..
007650: 005726              	tst	(r6)+			; V.
007652: 012604              	mov	(r6)+,r4		; ..
007654: 004737 007760       	call	@#7760			; _.p.
007660: 012700 000001       	mov	#1,r0			; @...
007664: 000207              	ret				; ..
;
007666: 004737 017110       	call	@#17110			; _.H.
007672: 000403              	br	7702			; ..
;
007674: 004237 016732       	jsr	r2,@#16732		; ..Z.
007700: 000400              	br	7702			; ..
;
007702: 005000              	clr	r0			; ..
007704: 011405              	mov	(r4),r5			; ..
007706: 001001              	bne	7712			; ..
007710: 000207              	ret				; ..
;
007712: 011514              	mov	(r5),(r4)		; L.
007714: 005200              	inc	r0			; ..
007716: 000137 020066       	jmp	@#20066			; _.6 
;
007722: 004737 017110       	call	@#17110			; _.H.
007726: 011003              	mov	(r0),r3			; ..
007730: 000413              	br	7760			; ..
;
007732: 004237 016732       	jsr	r2,@#16732		; ..Z.
007736: 177402              	ldcdf	f0,r2			; ..
007740: 011003              	mov	(r0),r3			; ..
007742: 000406              	br	7760			; ..
;
007744: 004237 016732       	jsr	r2,@#16732		; ..Z.
007750: 177402              	ldcdf	f0,r2			; ..
007752: 011003              	mov	(r0),r3			; ..
007754: 004737 002312       	call	@#2312			; _.J.
007760: 011405              	mov	(r4),r5			; ..
007762: 001033              	bne	10052			; ..
007764: 005264 000006       	inc	6(r4)			; 4...
007770: 005724              	tst	(r4)+			; T.
007772: 005013              	clr	(r3)			; ..
007774: 132764 000100 177773	bitb	#100,177773(r4)		; t5@.{.
010002: 001016              	bne	10040			; ..
010004: 005724              	tst	(r4)+			; T.
010006: 001404              	beq	10020			; ..
010010: 010374 000000       	mov	r3,@0(r4)		; |...
010014: 010314              	mov	r3,(r4)			; L.
010016: 000207              	ret				; ..
;
010020: 010314              	mov	r3,(r4)			; L.
010022: 010344              	mov	r3,-(r4)		; d.
010024: 000207              	ret				; ..
;
010026: 126563 000004 000004	cmpb	4(r5),4(r3)		; s-....
010034: 103403              	bcs	10044			; ..
010036: 010504              	mov	r5,r4			; D.
010040: 011405              	mov	(r4),r5			; ..
010042: 001371              	bne	10026			; y.
010044: 011413              	mov	(r4),(r3)		; ..
010046: 010314              	mov	r3,(r4)			; L.
010050: 000207              	ret				; ..
;
010052: 005765 000002       	tst	2(r5)			; u...
010056: 001407              	beq	10076			; ..
010060: 010546              	mov	r5,-(r6)		; f.
010062: 016505 000004       	mov	4(r5),r5		; E...
010066: 010365 000110       	mov	r3,110(r5)		; u.H.
010072: 012605              	mov	(r6)+,r5		; ..
010074: 000402              	br	10102			; ..
;
010076: 010365 000110       	mov	r3,110(r5)		; u.H.
010102: 011514              	mov	(r5),(r4)		; L.
010104: 000137 020066       	jmp	@#20066			; _.6 
;
010110: 004737 017110       	call	@#17110			; _.H.
010114: 000403              	br	10124			; ..
;
010116: 004237 016732       	jsr	r2,@#16732		; ..Z.
010122: 000400              	br	10124			; ..
;
010124: 011405              	mov	(r4),r5			; ..
010126: 001012              	bne	10154			; ..
010130: 005264 000002       	inc	2(r4)			; 4...
010134: 122764 000000 177774	cmpb	#0,177774(r4)		; t%..|.
010142: 001003              	bne	10152			; ..
010144: 012764 000001 000002	mov	#1,2(r4)		; t.....
010152: 000207              	ret				; ..
;
010154: 011514              	mov	(r5),(r4)		; L.
010156: 000137 020066       	jmp	@#20066			; _.6 
;
010162: 010746              	mov	r7,-(r6)		; f.
010164: 000403              	br	10174			; ..
;
010166: 005046              	clr	-(r6)			; &.
010170: 016605 000004       	mov	4(r6),r5		; ....
010174: 004737 002310       	call	@#2310			; _.H.
010200: 103534              	bcs	10472			; \.
010202: 012003              	mov	(r0)+,r3		; ..
010204: 106523              	mfpd	(r3)+			; S.
010206: 012665 000050       	mov	(r6)+,50(r5)		; 5.(.
010212: 106513              	mfpd	(r3)			; K.
010214: 012665 000052       	mov	(r6)+,52(r5)		; 5.*.
010220: 100531              	bmi	10504			; Y.
010222: 005765 000050       	tst	50(r5)			; u.(.
010226: 001003              	bne	10236			; ..
010230: 005765 000052       	tst	52(r5)			; u.*.
010234: 001532              	beq	10522			; Z.
010236: 013704 111540       	mov	@#111540,r4		; D.`.
010242: 112765 000003 000005	movb	#3,5(r5)		; u.....
010250: 010465 000020       	mov	r4,20(r5)		; 5...
010254: 005065 000002       	clr	2(r5)			; 5...
010260: 106427 000340       	mtps	#340			; ..`.
010264: 011403              	mov	(r4),r3			; ..
010266: 001422              	beq	10334			; ..
010270: 013763 111562 000050	mov	@#111562,50(r3)		; s.r.(.
010276: 013763 111564 000052	mov	@#111564,52(r3)		; s.t.*.
010304: 026365 000052 000052	cmp	52(r3),52(r5)		; u,*.*.
010312: 003010              	bgt	10334			; ..
010314: 002404              	blt	10326			; ..
010316: 026365 000050 000050	cmp	50(r3),50(r5)		; u,(.(.
010324: 101003              	bhi	10334			; ..
010326: 106427 000000       	mtps	#0			; ....
010332: 000422              	br	10400			; ..
;
010334: 016537 000050 111562	mov	50(r5),@#111562		; _.(.r.
010342: 016537 000052 111564	mov	52(r5),@#111564		; _.*.t.
010350: 106427 000000       	mtps	#0			; ....
010354: 000424              	br	10426			; ..
;
010356: 026365 000052 000052	cmp	52(r3),52(r5)		; u,*.*.
010364: 101020              	bhi	10426			; ..
010366: 103404              	bcs	10400			; ..
010370: 026365 000050 000050	cmp	50(r3),50(r5)		; u,(.(.
010376: 101013              	bhi	10426			; ..
010400: 166365 000050 000050	sub	50(r3),50(r5)		; ul(.(.
010406: 005665 000052       	sbc	52(r5)			; 5.*.
010412: 166365 000052 000052	sub	52(r3),52(r5)		; ul*.*.
010420: 010304              	mov	r3,r4			; D.
010422: 011403              	mov	(r4),r3			; ..
010424: 001354              	bne	10356			; l.
010426: 011415              	mov	(r4),(r5)		; ..
010430: 010514              	mov	r5,(r4)			; L.
010432: 005703              	tst	r3			; C.
010434: 001410              	beq	10456			; ..
010436: 166563 000050 000050	sub	50(r5),50(r3)		; sm(.(.
010444: 005663 000052       	sbc	52(r3)			; 3.*.
010450: 166563 000052 000052	sub	52(r5),52(r3)		; sm*.*.
010456: 013704 111540       	mov	@#111540,r4		; D.`.
010462: 005726              	tst	(r6)+			; V.
010464: 001034              	bne	10556			; ..
010466: 000137 017762       	jmp	@#17762			; _.r.
;
010472: 004737 010522       	call	@#10522			; _.R.
010476: 012700 060010       	mov	#60010,r0		; @..`
010502: 000404              	br	10514			; ..
;
010504: 004737 010522       	call	@#10522			; _.R.
010510: 012700 060011       	mov	#60011,r0		; @..`
010514: 010637 111400       	mov	r6,@#111400		; ....
010520: 000207              	ret				; ..
;
010522: 005726              	tst	(r6)+			; V.
010524: 001401              	beq	10530			; ..
010526: 005726              	tst	(r6)+			; V.
010530: 132765 000010 000007	bitb	#10,7(r5)		; u5....
010536: 001407              	beq	10556			; ..
010540: 004737 016056       	call	@#16056			; _...
010544: 105065 000005       	clrb	5(r5)			; 5...
010550: 005000              	clr	r0			; ..
010552: 005037 111400       	clr	@#111400		; ....
010556: 000207              	ret				; ..
;
010560: 004237 016732       	jsr	r2,@#16732		; ..Z.
010564: 177402              	ldcdf	f0,r2			; ..
010566: 005714              	tst	(r4)			; L.
010570: 001002              	bne	10576			; ..
010572: 005000              	clr	r0			; ..
010574: 000207              	ret				; ..
;
010576: 000137 007360       	jmp	@#7360			; _.p.
;
010602: 004737 017110       	call	@#17110			; _.H.
010606: 000403              	br	10616			; ..
;
010610: 004237 016732       	jsr	r2,@#16732		; ..Z.
010614: 000400              	br	10616			; ..
;
010616: 005000              	clr	r0			; ..
010620: 005764 000002       	tst	2(r4)			; t...
010624: 001403              	beq	10634			; ..
010626: 005364 000002       	dec	2(r4)			; t...
010632: 005200              	inc	r0			; ..
010634: 000207              	ret				; ..
;
010636: 004737 017110       	call	@#17110			; _.H.
010642: 000403              	br	10652			; ..
;
010644: 004237 016732       	jsr	r2,@#16732		; ..Z.
010650: 177402              	ldcdf	f0,r2			; ..
010652: 005764 000006       	tst	6(r4)			; t...
010656: 001413              	beq	10706			; ..
010660: 005364 000006       	dec	6(r4)			; t...
010664: 016405 000002       	mov	2(r4),r5		; ....
010670: 011564 000002       	mov	(r5),2(r4)		; t...
010674: 001002              	bne	10702			; ..
010676: 005064 000004       	clr	4(r4)			; 4...
010702: 010510              	mov	r5,(r0)			; H.
010704: 000207              	ret				; ..
;
010706: 016605 000002       	mov	2(r6),r5		; ....
010712: 004737 016612       	call	@#16612			; _...
010716: 004737 020020       	call	@#20020			; _.. 
010722: 103405              	bcs	10736			; ..
010724: 010310              	mov	r3,(r0)			; H.
010726: 005037 111400       	clr	@#111400		; ....
010732: 000137 020066       	jmp	@#20066			; _.6 
;
010736: 012700 050010       	mov	#50010,r0		; @..P
010742: 000137 002366       	jmp	@#2366			; _.v.
;
010746: 004737 017110       	call	@#17110			; _.H.
010752: 000403              	br	10762			; ..
;
010754: 004237 016732       	jsr	r2,@#16732		; ..Z.
010760: 000400              	br	10762			; ..
;
010762: 005764 000002       	tst	2(r4)			; t...
010766: 001403              	beq	10776			; ..
010770: 005364 000002       	dec	2(r4)			; t...
010774: 000207              	ret				; ..
;
010776: 016605 000002       	mov	2(r6),r5		; ....
011002: 004737 016612       	call	@#16612			; _...
011006: 000137 017762       	jmp	@#17762			; _.r.
;
011012: 012003              	mov	(r0)+,r3		; ..
011014: 022703 000060       	cmp	#60,r3			; C%0.
011020: 101157              	bhi	11360			; o.
011022: 022703 000774       	cmp	#774,r3			; C%|.
011026: 103554              	bcs	11360			; l.
011030: 011304              	mov	(r3),r4			; D.
011032: 005744              	tst	-(r4)			; d.
011034: 005744              	tst	-(r4)			; d.
011036: 001153              	bne	11366			; k.
011040: 016624 000002       	mov	2(r6),(r4)+		; ....
011044: 112024              	movb	(r0)+,(r4)+		; ..
011046: 105720              	tstb	(r0)+			; P.
011050: 006203              	asr	r3			; ..
011052: 110314              	movb	r3,(r4)			; L.
011054: 062704 000005       	add	#5,r4			; De..
011060: 012024              	mov	(r0)+,(r4)+		; ..
011062: 005760 000004       	tst	4(r0)			; p...
011066: 001440              	beq	11170			;  .
011070: 012705 177640       	mov	#177640,r5		; E. .
011074: 032737 020000 177776	bit	#20000,@#177776		; _5. ~.
011102: 001003              	bne	11112			; ..
011104: 012705 172260       	mov	#172260,r5		; E.0t
011110: 000406              	br	11126			; ..
;
011112: 032737 000001 172516	bit	#1,@#172516		; _5..Nu
011120: 001402              	beq	11126			; ..
011122: 012705 177660       	mov	#177660,r5		; E.0.
011126: 004737 011420       	call	@#11420			; _...
011132: 010524              	mov	r5,(r4)+		; T.
011134: 010346              	mov	r3,-(r6)		; f.
011136: 012705 177640       	mov	#177640,r5		; E. .
011142: 032737 020000 177776	bit	#20000,@#177776		; _5. ~.
011150: 001002              	bne	11156			; ..
011152: 012705 172240       	mov	#172240,r5		; E. t
011156: 004737 011412       	call	@#11412			; _...
011162: 010324              	mov	r3,(r4)+		; T.
011164: 012624              	mov	(r6)+,(r4)+		; ..
011166: 000442              	br	11274			; ".
;
011170: 012014              	mov	(r0)+,(r4)		; ..
011172: 021427 060000       	cmp	(r4),#60000		; .#.`
011176: 103463              	bcs	11346			; 3.
011200: 022427 100000       	cmp	(r4)+,#100000		; .%..
011204: 103060              	bcc	11346			; 0.
011206: 021027 040000       	cmp	(r0),#40000		; .".@
011212: 103455              	bcs	11346			; -.
011214: 021027 060000       	cmp	(r0),#60000		; .".`
011220: 103052              	bcc	11346			; *.
011222: 032737 020000 177776	bit	#20000,@#177776		; _5. ~.
011230: 001005              	bne	11244			; ..
011232: 013724 172244       	mov	@#172244,(r4)+		; T.$t
011236: 013724 172266       	mov	@#172266,(r4)+		; T.6t
011242: 000413              	br	11272			; ..
;
011244: 013724 177644       	mov	@#177644,(r4)+		; T.$.
011250: 032737 000001 172516	bit	#1,@#172516		; _5..Nu
011256: 001403              	beq	11266			; ..
011260: 013724 177666       	mov	@#177666,(r4)+		; T.6.
011264: 000402              	br	11272			; ..
;
011266: 013724 177646       	mov	@#177646,(r4)+		; T.&.
011272: 011005              	mov	(r0),r5			; ..
011274: 106427 000340       	mtps	#340			; ..`.
011300: 126427 177762 000340	cmpb	177762(r4),#340		; .-r.`.
011306: 001006              	bne	11324			; ..
011310: 012764 003340 177766	mov	#3340,177766(r4)	; t.`.v.
011316: 010564 000012       	mov	r5,12(r4)		; t...
011322: 000404              	br	11334			; ..
;
011324: 012764 003442 177766	mov	#3442,177766(r4)	; t.".v.
011332: 010514              	mov	r5,(r4)			; L.
011334: 106427 000000       	mtps	#0			; ....
011340: 005037 111400       	clr	@#111400		; ....
011344: 000207              	ret				; ..
;
011346: 012700 060010       	mov	#60010,r0		; @..`
011352: 005064 177766       	clr	177766(r4)		; 4.v.
011356: 000412              	br	11404			; ..
;
011360: 012700 060012       	mov	#60012,r0		; @..`
011364: 000407              	br	11404			; ..
;
011366: 012700 060013       	mov	#60013,r0		; @..`
011372: 022714 177777       	cmp	#177777,(r4)		; L%..
011376: 001002              	bne	11404			; ..
011400: 012700 060015       	mov	#60015,r0		; @..`
011404: 010637 111400       	mov	r6,@#111400		; ....
011410: 000207              	ret				; ..
;
011412: 012746 040000       	mov	#40000,-(r6)		; f..@
011416: 000402              	br	11424			; ..
;
011420: 012746 060000       	mov	#60000,-(r6)		; f..`
011424: 010546              	mov	r5,-(r6)		; f.
011426: 012003              	mov	(r0)+,r3		; ..
011430: 010305              	mov	r3,r5			; E.
011432: 042703 017777       	bic	#17777,r3		; CE..
011436: 040305              	bic	r3,r5			; E@
011440: 073327 177764       	ashc	#177764,r3		; Wvt.
011444: 062603              	add	(r6)+,r3		; .e
011446: 011303              	mov	(r3),r3			; C.
011450: 062605              	add	(r6)+,r5		; .e
011452: 000207              	ret				; ..
;
011454: 062704 000120       	add	#120,r4			; DeP.
011460: 012703 111240       	mov	#111240,r3		; C. .
011464: 012400              	mov	(r4)+,r0		; ..
011466: 012401              	mov	(r4)+,r1		; ..
011470: 012402              	mov	(r4)+,r2		; ..
011472: 012423              	mov	(r4)+,(r3)+		; ..
011474: 012423              	mov	(r4)+,(r3)+		; ..
011476: 012423              	mov	(r4)+,(r3)+		; ..
011500: 012423              	mov	(r4)+,(r3)+		; ..
011502: 012413              	mov	(r4)+,(r3)		; ..
011504: 052737 030000 177776	bis	#30000,@#177776		; _U.0~.
011512: 012446              	mov	(r4)+,-(r6)		; &.
011514: 106606              	mtpd	r6			; ..
011516: 005724              	tst	(r4)+			; T.
011520: 011404              	mov	(r4),r4			; ..
011522: 012703 177640       	mov	#177640,r3		; C. .
011526: 012423              	mov	(r4)+,(r3)+		; ..
011530: 012423              	mov	(r4)+,(r3)+		; ..
011532: 012423              	mov	(r4)+,(r3)+		; ..
011534: 012423              	mov	(r4)+,(r3)+		; ..
011536: 012423              	mov	(r4)+,(r3)+		; ..
011540: 012423              	mov	(r4)+,(r3)+		; ..
011542: 012423              	mov	(r4)+,(r3)+		; ..
011544: 012413              	mov	(r4)+,(r3)		; ..
011546: 012703 177600       	mov	#177600,r3		; C...
011552: 012423              	mov	(r4)+,(r3)+		; ..
011554: 012423              	mov	(r4)+,(r3)+		; ..
011556: 012423              	mov	(r4)+,(r3)+		; ..
011560: 012423              	mov	(r4)+,(r3)+		; ..
011562: 012423              	mov	(r4)+,(r3)+		; ..
011564: 012423              	mov	(r4)+,(r3)+		; ..
011566: 012423              	mov	(r4)+,(r3)+		; ..
011570: 012413              	mov	(r4)+,(r3)		; ..
011572: 132765 000002 000030	bitb	#2,30(r5)		; u5....
011600: 001404              	beq	11612			; ..
011602: 016546 000142       	mov	142(r5),-(r6)		; f.b.
011606: 106675 000034       	mtpd	@34(r5)			; =...
011612: 132765 000001 000030	bitb	#1,30(r5)		; u5....
011620: 001415              	beq	11654			; ..
011622: 010504              	mov	r5,r4			; D.
011624: 062704 000344       	add	#344,r4			; Ded.
011630: 170011              	setd				; .p
011632: 172414              	ldf	f0,(r4)			; .u
011634: 174005              	stf	f0,r5			; .x
011636: 172444              	ldf	f0,-(r4)		; $u
011640: 174004              	stf	f0,r4			; .x
011642: 172744              	ldf	f3,-(r4)		; du
011644: 172644              	ldf	f2,-(r4)		; $u
011646: 172544              	ldf	f1,-(r4)		; du
011650: 172444              	ldf	f0,-(r4)		; $u
011652: 170144              	ldfps	-(r4)			; dp
011654: 106575 000040       	mfpd	@40(r5)			; }. .
011660: 022627 042557       	cmp	(r6)+,#42557		; .%oE
011664: 001006              	bne	11702			; ..
011666: 106575 000036       	mfpd	@36(r5)			; }...
011672: 022627 042557       	cmp	(r6)+,#42557		; .%oE
011676: 001023              	bne	11746			; ..
011700: 000207              	ret				; ..
;
011702: 012703 111246       	mov	#111246,r3		; C.&.
011706: 011365 000042       	mov	(r3),42(r5)		; u.".
011712: 012723 003246       	mov	#3246,(r3)+		; S.&.
011716: 011365 000044       	mov	(r3),44(r5)		; u.$.
011722: 012746 042557       	mov	#42557,-(r6)		; f.oE
011726: 106675 000040       	mtpd	@40(r5)			; =. .
011732: 016565 000040 000140	mov	40(r5),140(r5)		; u. .`.
011740: 012713 030340       	mov	#30340,(r3)		; K.`0
011744: 000207              	ret				; ..
;
011746: 012703 111246       	mov	#111246,r3		; C.&.
011752: 011365 000042       	mov	(r3),42(r5)		; u.".
011756: 012723 003240       	mov	#3240,(r3)+		; S. .
011762: 011365 000044       	mov	(r3),44(r5)		; u.$.
011766: 012746 042557       	mov	#42557,-(r6)		; f.oE
011772: 106675 000036       	mtpd	@36(r5)			; =...
011776: 016565 000040 000140	mov	40(r5),140(r5)		; u. .`.
012004: 012713 030340       	mov	#30340,(r3)		; K.`0
012010: 000207              	ret				; ..
;
012012: 010446              	mov	r4,-(r6)		; &.
012014: 010503              	mov	r5,r3			; C.
012016: 062703 000120       	add	#120,r3			; CeP.
012022: 012704 111240       	mov	#111240,r4		; D. .
012026: 010023              	mov	r0,(r3)+		; ..
012030: 010123              	mov	r1,(r3)+		; S.
012032: 010223              	mov	r2,(r3)+		; ..
012034: 012423              	mov	(r4)+,(r3)+		; ..
012036: 012423              	mov	(r4)+,(r3)+		; ..
012040: 012423              	mov	(r4)+,(r3)+		; ..
012042: 012423              	mov	(r4)+,(r3)+		; ..
012044: 011423              	mov	(r4),(r3)+		; ..
012046: 052737 030000 177776	bis	#30000,@#177776		; _U.0~.
012054: 106506              	mfpd	r6			; F.
012056: 012623              	mov	(r6)+,(r3)+		; ..
012060: 132765 000002 000030	bitb	#2,30(r5)		; u5....
012066: 001403              	beq	12076			; ..
012070: 106575 000034       	mfpd	@34(r5)			; }...
012074: 012613              	mov	(r6)+,(r3)		; ..
012076: 005723              	tst	(r3)+			; S.
012100: 132765 000004 000030	bitb	#4,30(r5)		; u5....
012106: 001425              	beq	12162			; ..
012110: 011303              	mov	(r3),r3			; C.
012112: 012704 177640       	mov	#177640,r4		; D. .
012116: 012423              	mov	(r4)+,(r3)+		; ..
012120: 012423              	mov	(r4)+,(r3)+		; ..
012122: 012423              	mov	(r4)+,(r3)+		; ..
012124: 012423              	mov	(r4)+,(r3)+		; ..
012126: 012423              	mov	(r4)+,(r3)+		; ..
012130: 012423              	mov	(r4)+,(r3)+		; ..
012132: 012423              	mov	(r4)+,(r3)+		; ..
012134: 011423              	mov	(r4),(r3)+		; ..
012136: 012704 177600       	mov	#177600,r4		; D...
012142: 012423              	mov	(r4)+,(r3)+		; ..
012144: 012423              	mov	(r4)+,(r3)+		; ..
012146: 012423              	mov	(r4)+,(r3)+		; ..
012150: 012423              	mov	(r4)+,(r3)+		; ..
012152: 012423              	mov	(r4)+,(r3)+		; ..
012154: 012423              	mov	(r4)+,(r3)+		; ..
012156: 012423              	mov	(r4)+,(r3)+		; ..
012160: 011423              	mov	(r4),(r3)+		; ..
012162: 132765 000001 000030	bitb	#1,30(r5)		; u5....
012170: 001415              	beq	12224			; ..
012172: 010503              	mov	r5,r3			; C.
012174: 062703 000272       	add	#272,r3			; Ce:.
012200: 170223              	stfps	(r3)+			; .p
012202: 170011              	setd				; .p
012204: 174023              	stf	f0,(r3)+		; .x
012206: 174123              	stf	f1,(r3)+		; Sx
012210: 174223              	stf	f2,(r3)+		; .x
012212: 174323              	stf	f3,(r3)+		; Sx
012214: 172404              	ldf	f0,r4			; .u
012216: 174023              	stf	f0,(r3)+		; .x
012220: 172405              	ldf	f0,r5			; .u
012222: 174013              	stf	f0,(r3)			; .x
012224: 012604              	mov	(r6)+,r4		; ..
012226: 000207              	ret				; ..
;
012230: 116004 000003       	movb	3(r0),r4		; ....
012234: 005046              	clr	-(r6)			; &.
012236: 000415              	br	12272			; ..
;
012240: 013704 111312       	mov	@#111312,r4		; D.J.
012244: 004737 002310       	call	@#2310			; _.H.
012250: 103005              	bcc	12264			; ..
012252: 012700 060010       	mov	#60010,r0		; @..`
012256: 010637 111400       	mov	r6,@#111400		; ....
012262: 000207              	ret				; ..
;
012264: 005046              	clr	-(r6)			; &.
012266: 116404 000006       	movb	6(r4),r4		; ....
012272: 010446              	mov	r4,-(r6)		; &.
012274: 005046              	clr	-(r6)			; &.
012276: 032760 000001 000004	bit	#1,4(r0)		; p5....
012304: 001402              	beq	12312			; ..
012306: 012716 000062       	mov	#62,(r6)		; N.2.
012312: 005046              	clr	-(r6)			; &.
012314: 012746 000004       	mov	#4,-(r6)		; f...
012320: 011046              	mov	(r0),-(r6)		; &.
012322: 010603              	mov	r6,r3			; ..
012324: 010046              	mov	r0,-(r6)		; &.
012326: 010300              	mov	r3,r0			; @.
012330: 010637 111356       	mov	r6,@#111356		; ..n.
012334: 004737 004504       	call	@#4504			; _.D.
012340: 005737 111400       	tst	@#111400		; _...
012344: 001006              	bne	12362			; ..
012346: 005700              	tst	r0			; @.
012350: 001010              	bne	12372			; ..
012352: 010637 111400       	mov	r6,@#111400		; ....
012356: 012700 044001       	mov	#44001,r0		; @..H
012362: 062706 000016       	add	#16,r6			; Fe..
012366: 000261              	sec				; 1.
012370: 000207              	ret				; ..
;
012372: 012600              	mov	(r6)+,r0		; ..
012374: 062706 000010       	add	#10,r6			; Fe..
012400: 012003              	mov	(r0)+,r3		; ..
012402: 004737 013374       	call	@#13374			; _.|.
012406: 011303              	mov	(r3),r3			; C.
012410: 010305              	mov	r3,r5			; E.
012412: 062703 000004       	add	#4,r3			; Ce..
012416: 012023              	mov	(r0)+,(r3)+		; ..
012420: 112613              	movb	(r6)+,(r3)		; ..
012422: 013704 111312       	mov	@#111312,r4		; D.J.
012426: 010463 000002       	mov	r4,2(r3)		; 3...
012432: 013704 111360       	mov	@#111360,r4		; D.p.
012436: 010537 111360       	mov	r5,@#111360		; _.p.
012442: 010465 000022       	mov	r4,22(r5)		; 5...
012446: 062703 000022       	add	#22,r3			; Ce..
012452: 012013              	mov	(r0)+,(r3)		; ..
012454: 052623              	bis	(r6)+,(r3)+		; .U
012456: 111063 177777       	movb	(r0),177777(r3)		; 3...
012462: 005720              	tst	(r0)+			; P.
012464: 012023              	mov	(r0)+,(r3)+		; ..
012466: 012023              	mov	(r0)+,(r3)+		; ..
012470: 010246              	mov	r2,-(r6)		; &.
012472: 012704 177640       	mov	#177640,r4		; D. .
012476: 005737 111312       	tst	@#111312		; _.J.
012502: 001003              	bne	12512			; ..
012504: 010004              	mov	r0,r4			; ..
012506: 062704 000012       	add	#12,r4			; De..
012512: 012046              	mov	(r0)+,-(r6)		; &.
012514: 012013              	mov	(r0)+,(r3)		; ..
012516: 004737 013130       	call	@#13130			; _.X.
012522: 012013              	mov	(r0)+,(r3)		; ..
012524: 021613              	cmp	(r6),(r3)		; .#
012526: 101401              	blos	12532			; ..
012530: 011316              	mov	(r3),(r6)		; N.
012532: 004737 013130       	call	@#13130			; _.X.
012536: 005063 000004       	clr	4(r3)			; 3...
012542: 062703 000076       	add	#76,r3			; Ce>.
012546: 012613              	mov	(r6)+,(r3)		; ..
012550: 013743 111362       	mov	@#111362,-(r3)		; c.r.
012554: 005737 111312       	tst	@#111312		; _.J.
012560: 001400              	beq	12562			; ..
012562: 011365 000150       	mov	(r3),150(r5)		; u.h.
012566: 042765 007777 000150	bic	#7777,150(r5)		; uE..h.
012574: 012043              	mov	(r0)+,-(r3)		; #.
012576: 012063 000006       	mov	(r0)+,6(r3)		; 3...
012602: 012703 000040       	mov	#40,r3			; C. .
012606: 012702 000001       	mov	#1,r2			; B...
012612: 004737 015704       	call	@#15704			; _.D.
012616: 103011              	bcc	12642			; ..
012620: 012602              	mov	(r6)+,r2		; ..
012622: 010500              	mov	r5,r0			; @.
012624: 004737 013206       	call	@#13206			; _...
012630: 010637 111400       	mov	r6,@#111400		; ....
012634: 012700 044001       	mov	#44001,r0		; @..H
012640: 000207              	ret				; ..
;
012642: 010365 000144       	mov	r3,144(r5)		; u.d.
012646: 005737 111312       	tst	@#111312		; _.J.
012652: 001070              	bne	13034			; 8.
012654: 116504 000006       	movb	6(r5),r4		; D...
012660: 006304              	asl	r4			; D.
012662: 012023              	mov	(r0)+,(r3)+		; ..
012664: 012023              	mov	(r0)+,(r3)+		; ..
012666: 012023              	mov	(r0)+,(r3)+		; ..
012670: 012023              	mov	(r0)+,(r3)+		; ..
012672: 012023              	mov	(r0)+,(r3)+		; ..
012674: 012023              	mov	(r0)+,(r3)+		; ..
012676: 012023              	mov	(r0)+,(r3)+		; ..
012700: 012023              	mov	(r0)+,(r3)+		; ..
012702: 012023              	mov	(r0)+,(r3)+		; ..
012704: 012023              	mov	(r0)+,(r3)+		; ..
012706: 012023              	mov	(r0)+,(r3)+		; ..
012710: 012023              	mov	(r0)+,(r3)+		; ..
012712: 012023              	mov	(r0)+,(r3)+		; ..
012714: 012023              	mov	(r0)+,(r3)+		; ..
012716: 012023              	mov	(r0)+,(r3)+		; ..
012720: 012013              	mov	(r0)+,(r3)		; ..
012722: 010046              	mov	r0,-(r6)		; &.
012724: 016400 020654       	mov	20654(r4),r0		; ..,!
012730: 001407              	beq	12750			; ..
012732: 062703 177752       	add	#177752,r3		; Cej.
012736: 012023              	mov	(r0)+,(r3)+		; ..
012740: 012023              	mov	(r0)+,(r3)+		; ..
012742: 012023              	mov	(r0)+,(r3)+		; ..
012744: 012013              	mov	(r0)+,(r3)		; ..
012746: 000407              	br	12766			; ..
;
012750: 062703 177760       	add	#177760,r3		; Cep.
012754: 022704 000004       	cmp	#4,r4			; D%..
012760: 001002              	bne	12766			; ..
012762: 013713 172356       	mov	@#172356,(r3)		; K.nt
012766: 062703 000012       	add	#12,r3			; Ce..
012772: 016400 020664       	mov	20664(r4),r0		; ..4!
012776: 001405              	beq	13012			; ..
013000: 012023              	mov	(r0)+,(r3)+		; ..
013002: 012023              	mov	(r0)+,(r3)+		; ..
013004: 012023              	mov	(r0)+,(r3)+		; ..
013006: 012013              	mov	(r0)+,(r3)		; ..
013010: 000407              	br	13030			; ..
;
013012: 062703 000006       	add	#6,r3			; Ce..
013016: 022704 000004       	cmp	#4,r4			; D%..
013022: 001002              	bne	13030			; ..
013024: 013713 172316       	mov	@#172316,(r3)		; K.Nt
013030: 012600              	mov	(r6)+,r0		; ..
013032: 000424              	br	13104			; ..
;
013034: 012700 177640       	mov	#177640,r0		; @. .
013040: 012704 177600       	mov	#177600,r4		; D...
013044: 012023              	mov	(r0)+,(r3)+		; ..
013046: 012023              	mov	(r0)+,(r3)+		; ..
013050: 012023              	mov	(r0)+,(r3)+		; ..
013052: 012023              	mov	(r0)+,(r3)+		; ..
013054: 012023              	mov	(r0)+,(r3)+		; ..
013056: 012023              	mov	(r0)+,(r3)+		; ..
013060: 012023              	mov	(r0)+,(r3)+		; ..
013062: 012023              	mov	(r0)+,(r3)+		; ..
013064: 012423              	mov	(r4)+,(r3)+		; ..
013066: 012423              	mov	(r4)+,(r3)+		; ..
013070: 012423              	mov	(r4)+,(r3)+		; ..
013072: 012423              	mov	(r4)+,(r3)+		; ..
013074: 012423              	mov	(r4)+,(r3)+		; ..
013076: 012423              	mov	(r4)+,(r3)+		; ..
013100: 012423              	mov	(r4)+,(r3)+		; ..
013102: 012423              	mov	(r4)+,(r3)+		; ..
013104: 012602              	mov	(r6)+,r2		; ..
013106: 012704 111314       	mov	#111314,r4		; D.L.
013112: 004737 016524       	call	@#16524			; _.T.
013116: 010637 111336       	mov	r6,@#111336		; ..^.
013122: 005037 111400       	clr	@#111400		; ....
013126: 000207              	ret				; ..
;
013130: 012302              	mov	(r3)+,r2		; B.
013132: 010346              	mov	r3,-(r6)		; f.
013134: 010203              	mov	r2,r3			; ..
013136: 042703 017777       	bic	#17777,r3		; CE..
013142: 040302              	bic	r3,r2			; B@
013144: 073327 177764       	ashc	#177764,r3		; Wvt.
013150: 060403              	add	r4,r3			; .a
013152: 011337 172346       	mov	(r3),@#172346		; _.ft
013156: 062702 060000       	add	#60000,r2		; Be.`
013162: 012712 042557       	mov	#42557,(r2)		; J.oE
013166: 012603              	mov	(r6)+,r3		; ..
013170: 000207              	ret				; ..
;
013172: 013700 111312       	mov	@#111312,r0		; @.J.
013176: 005037 111312       	clr	@#111312		; ..J.
013202: 010637 111336       	mov	r6,@#111336		; ..^.
013206: 012703 111336       	mov	#111336,r3		; C.^.
013212: 016304 000022       	mov	22(r3),r4		; D...
013216: 020004              	cmp	r0,r4			; . 
013220: 001402              	beq	13226			; ..
013222: 010403              	mov	r4,r3			; ..
013224: 000772              	br	13212			; z.
;
013226: 005037 111400       	clr	@#111400		; ....
013232: 010005              	mov	r0,r5			; ..
013234: 016063 000022 000022	mov	22(r0),22(r3)		; 3.....
013242: 042737 000001 172516	bic	#1,@#172516		; _E..Nu
013250: 132760 000020 000007	bitb	#20,7(r0)		; p5....
013256: 001404              	beq	13270			; ..
013260: 012704 111330       	mov	#111330,r4		; D.X.
013264: 000137 016524       	jmp	@#16524			; _.T.
;
013270: 016004 000144       	mov	144(r0),r4		; ..d.
013274: 012703 000040       	mov	#40,r3			; C. .
013300: 132760 000010 000030	bitb	#10,30(r0)		; p5....
013306: 001401              	beq	13312			; ..
013310: 006303              	asl	r3			; C.
013312: 004737 016400       	call	@#16400			; _...
013316: 132760 000001 177775	bitb	#1,177775(r0)		; p5..}.
013324: 001414              	beq	13356			; ..
013326: 012703 111364       	mov	#111364,r3		; C.t.
013332: 005013              	clr	(r3)			; ..
013334: 016063 177756 000006	mov	177756(r0),6(r3)	; 3.n...
013342: 016063 177760 000010	mov	177760(r0),10(r3)	; 3.p...
013350: 016063 177762 000012	mov	177762(r0),12(r3)	; 3.r...
013356: 000137 005420       	jmp	@#5420			; _...
;
013362: 004537 013472       	jsr	r5,@#13472		; _.:.
013366: 172344              	addf	f3,-(r4)		; dt
013370: 040000              	bic	r0,r0			; .@
013372: 000207              	ret				; ..
;
013374: 010046              	mov	r0,-(r6)		; &.
013376: 010300              	mov	r3,r0			; @.
013400: 004537 013472       	jsr	r5,@#13472		; _.:.
013404: 172346              	addf	f3,-(r6)		; ft
013406: 060000              	add	r0,r0			; .`
013410: 010003              	mov	r0,r3			; ..
013412: 012600              	mov	(r6)+,r0		; ..
013414: 000207              	ret				; ..
;
013416: 010046              	mov	r0,-(r6)		; &.
013420: 010346              	mov	r3,-(r6)		; f.
013422: 010400              	mov	r4,r0			; ..
013424: 004537 013472       	jsr	r5,@#13472		; _.:.
013430: 172344              	addf	f3,-(r4)		; dt
013432: 040000              	bic	r0,r0			; .@
013434: 010004              	mov	r0,r4			; ..
013436: 012603              	mov	(r6)+,r3		; ..
013440: 012600              	mov	(r6)+,r0		; ..
013442: 000207              	ret				; ..
;
013444: 010046              	mov	r0,-(r6)		; &.
013446: 010346              	mov	r3,-(r6)		; f.
013450: 010400              	mov	r4,r0			; ..
013452: 004537 013472       	jsr	r5,@#13472		; _.:.
013456: 172346              	addf	f3,-(r6)		; ft
013460: 060000              	add	r0,r0			; .`
013462: 010004              	mov	r0,r4			; ..
013464: 012603              	mov	(r6)+,r3		; ..
013466: 012600              	mov	(r6)+,r0		; ..
013470: 000207              	ret				; ..
;
013472: 005737 111266       	tst	@#111266		; _.6.
013476: 001034              	bne	13570			; ..
013500: 013703 111604       	mov	@#111604,r3		; C...
013504: 001403              	beq	13514			; ..
013506: 016346 000144       	mov	144(r3),-(r6)		; f.d.
013512: 000404              	br	13524			; ..
;
013514: 012746 177640       	mov	#177640,-(r6)		; f. .
013520: 013703 111312       	mov	@#111312,r3		; C.J.
013524: 010003              	mov	r0,r3			; ..
013526: 042703 017777       	bic	#17777,r3		; CE..
013532: 073327 177764       	ashc	#177764,r3		; Wvt.
013536: 062603              	add	(r6)+,r3		; .e
013540: 011375 000000       	mov	(r3),@0(r5)		; }...
013544: 010003              	mov	r0,r3			; ..
013546: 042703 160000       	bic	#160000,r3		; CE.`
013552: 072327 177772       	ash	#177772,r3		; Wtz.
013556: 060335              	add	r3,@(r5)+		; ]`
013560: 042700 177700       	bic	#177700,r0		; @E@.
013564: 062500              	add	(r5)+,r0		; @e
013566: 000205              	rts	r5			; ..
;
013570: 022525              	cmp	(r5)+,(r5)+		; U%
013572: 000205              	rts	r5			; ..
;
013574: 010546              	mov	r5,-(r6)		; f.
013576: 010446              	mov	r4,-(r6)		; &.
013600: 010346              	mov	r3,-(r6)		; f.
013602: 013746 172344       	mov	@#172344,-(r6)		; f.dt
013606: 013746 172346       	mov	@#172346,-(r6)		; f.ft
013612: 005237 111606       	inc	@#111606		; ....
013616: 042766 000001 000014	bic	#1,14(r6)		; vE....
013624: 005737 111266       	tst	@#111266		; _.6.
013630: 001023              	bne	13700			; ..
013632: 013706 111312       	mov	@#111312,r6		; F.J.
013636: 062706 000272       	add	#272,r6			; Fe:.
013642: 010637 111610       	mov	r6,@#111610		; ....
013646: 106427 000000       	mtps	#0			; ....
013652: 006577 075370       	mfpi	@111246			; ..xz
013656: 011605              	mov	(r6),r5			; ..
013660: 062737 000002 111246	add	#2,@#111246		; _e..&.
013666: 013716 111312       	mov	@#111312,(r6)		; N.J.
013672: 004737 013362       	call	@#13362			; _.r.
013676: 000410              	br	13720			; ..
;
013700: 106427 000000       	mtps	#0			; ....
013704: 017605 000012       	mov	@12(r6),r5		; ....
013710: 062766 000002 000012	add	#2,12(r6)		; ve....
013716: 005046              	clr	-(r6)			; &.
013720: 004715              	call	(r5)			; M.
013722: 005737 111266       	tst	@#111266		; _.6.
013726: 001010              	bne	13750			; ..
013730: 005737 111400       	tst	@#111400		; _...
013734: 001403              	beq	13744			; ..
013736: 052737 000001 111250	bis	#1,@#111250		; _U..(.
013744: 000137 002520       	jmp	@#2520			; _.P.
;
013750: 005726              	tst	(r6)+			; V.
013752: 005737 111400       	tst	@#111400		; _...
013756: 001403              	beq	13766			; ..
013760: 052766 000001 000014	bis	#1,14(r6)		; vU....
013766: 000137 003562       	jmp	@#3562			; _.r.
;
013772: 010546              	mov	r5,-(r6)		; f.
013774: 012705 000042       	mov	#42,r5			; E.".
014000: 005046              	clr	-(r6)			; &.
014002: 000467              	br	14162			; 7.
;
014004: 010546              	mov	r5,-(r6)		; f.
014006: 001540              	beq	14310			; `.
014010: 012746 000001       	mov	#1,-(r6)		; f...
014014: 020527 000015       	cmp	r5,#15			; W!..
014020: 002411              	blt	14044			; ..
014022: 031604              	bit	(r6),r4			; .3
014024: 001405              	beq	14040			; ..
014026: 031603              	bit	(r6),r3			; .3
014030: 001405              	beq	14044			; ..
014032: 112423              	movb	(r4)+,(r3)+		; ..
014034: 005305              	dec	r5			; E.
014036: 000451              	br	14162			; ).
;
014040: 031603              	bit	(r6),r3			; .3
014042: 001447              	beq	14162			; '.
014044: 162705 000040       	sub	#40,r5			; Ee .
014050: 103002              	bcc	14056			; ..
014052: 006305              	asl	r5			; E.
014054: 160507              	sub	r5,r7			; Ga
014056: 112423              	movb	(r4)+,(r3)+		; ..
014060: 112423              	movb	(r4)+,(r3)+		; ..
014062: 112423              	movb	(r4)+,(r3)+		; ..
014064: 112423              	movb	(r4)+,(r3)+		; ..
014066: 112423              	movb	(r4)+,(r3)+		; ..
014070: 112423              	movb	(r4)+,(r3)+		; ..
014072: 112423              	movb	(r4)+,(r3)+		; ..
014074: 112423              	movb	(r4)+,(r3)+		; ..
014076: 112423              	movb	(r4)+,(r3)+		; ..
014100: 112423              	movb	(r4)+,(r3)+		; ..
014102: 112423              	movb	(r4)+,(r3)+		; ..
014104: 112423              	movb	(r4)+,(r3)+		; ..
014106: 112423              	movb	(r4)+,(r3)+		; ..
014110: 112423              	movb	(r4)+,(r3)+		; ..
014112: 112423              	movb	(r4)+,(r3)+		; ..
014114: 112423              	movb	(r4)+,(r3)+		; ..
014116: 112423              	movb	(r4)+,(r3)+		; ..
014120: 112423              	movb	(r4)+,(r3)+		; ..
014122: 112423              	movb	(r4)+,(r3)+		; ..
014124: 112423              	movb	(r4)+,(r3)+		; ..
014126: 112423              	movb	(r4)+,(r3)+		; ..
014130: 112423              	movb	(r4)+,(r3)+		; ..
014132: 112423              	movb	(r4)+,(r3)+		; ..
014134: 112423              	movb	(r4)+,(r3)+		; ..
014136: 112423              	movb	(r4)+,(r3)+		; ..
014140: 112423              	movb	(r4)+,(r3)+		; ..
014142: 112423              	movb	(r4)+,(r3)+		; ..
014144: 112423              	movb	(r4)+,(r3)+		; ..
014146: 112423              	movb	(r4)+,(r3)+		; ..
014150: 112423              	movb	(r4)+,(r3)+		; ..
014152: 112423              	movb	(r4)+,(r3)+		; ..
014154: 112423              	movb	(r4)+,(r3)+		; ..
014156: 103332              	bcc	14044			; Z.
014160: 000450              	br	14302			; (.
;
014162: 162705 000100       	sub	#100,r5			; Ee@.
014166: 103004              	bcc	14200			; ..
014170: 040516              	bic	r5,(r6)			; NA
014172: 001001              	bne	14176			; ..
014174: 005305              	dec	r5			; E.
014176: 160507              	sub	r5,r7			; Ga
014200: 012423              	mov	(r4)+,(r3)+		; ..
014202: 012423              	mov	(r4)+,(r3)+		; ..
014204: 012423              	mov	(r4)+,(r3)+		; ..
014206: 012423              	mov	(r4)+,(r3)+		; ..
014210: 012423              	mov	(r4)+,(r3)+		; ..
014212: 012423              	mov	(r4)+,(r3)+		; ..
014214: 012423              	mov	(r4)+,(r3)+		; ..
014216: 012423              	mov	(r4)+,(r3)+		; ..
014220: 012423              	mov	(r4)+,(r3)+		; ..
014222: 012423              	mov	(r4)+,(r3)+		; ..
014224: 012423              	mov	(r4)+,(r3)+		; ..
014226: 012423              	mov	(r4)+,(r3)+		; ..
014230: 012423              	mov	(r4)+,(r3)+		; ..
014232: 012423              	mov	(r4)+,(r3)+		; ..
014234: 012423              	mov	(r4)+,(r3)+		; ..
014236: 012423              	mov	(r4)+,(r3)+		; ..
014240: 012423              	mov	(r4)+,(r3)+		; ..
014242: 012423              	mov	(r4)+,(r3)+		; ..
014244: 012423              	mov	(r4)+,(r3)+		; ..
014246: 012423              	mov	(r4)+,(r3)+		; ..
014250: 012423              	mov	(r4)+,(r3)+		; ..
014252: 012423              	mov	(r4)+,(r3)+		; ..
014254: 012423              	mov	(r4)+,(r3)+		; ..
014256: 012423              	mov	(r4)+,(r3)+		; ..
014260: 012423              	mov	(r4)+,(r3)+		; ..
014262: 012423              	mov	(r4)+,(r3)+		; ..
014264: 012423              	mov	(r4)+,(r3)+		; ..
014266: 012423              	mov	(r4)+,(r3)+		; ..
014270: 012423              	mov	(r4)+,(r3)+		; ..
014272: 012423              	mov	(r4)+,(r3)+		; ..
014274: 012423              	mov	(r4)+,(r3)+		; ..
014276: 012423              	mov	(r4)+,(r3)+		; ..
014300: 103330              	bcc	14162			; X.
014302: 005726              	tst	(r6)+			; V.
014304: 001001              	bne	14310			; ..
014306: 112423              	movb	(r4)+,(r3)+		; ..
014310: 012605              	mov	(r6)+,r5		; ..
014312: 000241              	clc				; !.
014314: 000207              	ret				; ..
;
014316: 000005              	reset				; ..
014320: 106427 000340       	mtps	#340			; ..`.
014324: 012700 172340       	mov	#172340,r0		; @.`t
014330: 012701 021030       	mov	#21030,r1		; A.."
014334: 012703 014342       	mov	#14342,r3		; C.b.
014340: 000420              	br	14402			; ..
;
014342: 012740 177600       	mov	#177600,-(r0)		; `...
014346: 012700 172300       	mov	#172300,r0		; @.@t
014352: 012703 014360       	mov	#14360,r3		; C.p.
014356: 000411              	br	14402			; ..
;
014360: 012740 077406       	mov	#77406,-(r0)		; `...
014364: 162700 000014       	sub	#14,r0			; @e..
014370: 012710 077406       	mov	#77406,(r0)		; H...
014374: 012010              	mov	(r0)+,(r0)		; ..
014376: 012010              	mov	(r0)+,(r0)		; ..
014400: 000405              	br	14414			; ..
;
014402: 012702 000010       	mov	#10,r2			; B...
014406: 012120              	mov	(r1)+,(r0)+		; P.
014410: 077202              	sob	r2,14406		; .~
014412: 000113              	jmp	(r3)			; K.
;
014414: 132737 000002 021100	bitb	#2,@#21100		; _5..@"
014422: 001403              	beq	14432			; ..
014424: 052737 000020 172516	bis	#20,@#172516		; _U..Nu
014432: 005237 177572       	inc	@#177572		; ..z.
014436: 012706 111234       	mov	#111234,r6		; F...
014442: 022737 074004 100000	cmp	#74004,@#100000		; _%.x..
014450: 001004              	bne	14462			; ..
014452: 022737 103773 100002	cmp	#103773,@#100002	; _%{...
014460: 001500              	beq	14662			; @.
014462: 012702 042557       	mov	#42557,r2		; B.oE
014466: 012700 021024       	mov	#21024,r0		; @.."
014472: 066000 000046       	add	46(r0),r0		; .l&.
014476: 032760 000001 000004	bit	#1,4(r0)		; p5....
014504: 001445              	beq	14620			; %.
014506: 016001 000000       	mov	0(r0),r1		; ....
014512: 016005 000002       	mov	2(r0),r5		; ....
014516: 020227 042557       	cmp	r2,#42557		; . oE
014522: 001014              	bne	14554			; ..
014524: 005002              	clr	r2			; ..
014526: 012706 060000       	mov	#60000,r6		; F..`
014532: 010137 172346       	mov	r1,@#172346		; _.ft
014536: 012704 000020       	mov	#20,r4			; D...
014542: 010226              	mov	r2,(r6)+		; ..
014544: 010226              	mov	r2,(r6)+		; ..
014546: 077403              	sob	r4,14542		; ..
014550: 005201              	inc	r1			; ..
014552: 005305              	dec	r5			; E.
014554: 012703 040000       	mov	#40000,r3		; C..@
014560: 012704 000200       	mov	#200,r4			; D...
014564: 010137 172344       	mov	r1,@#172344		; _.dt
014570: 020504              	cmp	r5,r4			; D!
014572: 103001              	bcc	14576			; ..
014574: 010504              	mov	r5,r4			; D.
014576: 073427 000006       	ashc	#6,r4			; .w..
014602: 004237 016010       	jsr	r2,@#16010		; ....
014606: 073427 177772       	ashc	#177772,r4		; .wz.
014612: 060401              	add	r4,r1			; .a
014614: 160405              	sub	r4,r5			; .a
014616: 001356              	bne	14554			; n.
014620: 062700 000006       	add	#6,r0			; @e..
014624: 021027 177777       	cmp	(r0),#177777		; ."..
014630: 001322              	bne	14476			; R.
014632: 012737 074004 100000	mov	#74004,@#100000		; _..x..
014640: 012737 103773 100002	mov	#103773,@#100002	; _.{...
014646: 005037 100004       	clr	@#100004		; ....
014652: 012706 111252       	mov	#111252,r6		; F.*.
014656: 000137 001000       	jmp	@#1000			; _...
;
014662: 012737 000001 100004	mov	#1,@#100004		; _.....
014670: 012704 100000       	mov	#100000,r4		; D...
014674: 005737 100004       	tst	@#100004		; _...
014700: 077403              	sob	r4,14674		; ..
014702: 012702 042557       	mov	#42557,r2		; B.oE
014706: 012700 021024       	mov	#21024,r0		; @.."
014712: 066000 000046       	add	46(r0),r0		; .l&.
014716: 032760 000001 000004	bit	#1,4(r0)		; p5....
014724: 001451              	beq	15050			; ).
014726: 032760 000002 000004	bit	#2,4(r0)		; p5....
014734: 001045              	bne	15050			; %.
014736: 016001 000000       	mov	0(r0),r1		; ....
014742: 016005 000002       	mov	2(r0),r5		; ....
014746: 020227 042557       	cmp	r2,#42557		; . oE
014752: 001014              	bne	15004			; ..
014754: 005002              	clr	r2			; ..
014756: 012706 060000       	mov	#60000,r6		; F..`
014762: 010137 172346       	mov	r1,@#172346		; _.ft
014766: 012704 000020       	mov	#20,r4			; D...
014772: 010226              	mov	r2,(r6)+		; ..
014774: 010226              	mov	r2,(r6)+		; ..
014776: 077403              	sob	r4,14772		; ..
015000: 005201              	inc	r1			; ..
015002: 005305              	dec	r5			; E.
015004: 012703 040000       	mov	#40000,r3		; C..@
015010: 012704 000200       	mov	#200,r4			; D...
015014: 010137 172344       	mov	r1,@#172344		; _.dt
015020: 020504              	cmp	r5,r4			; D!
015022: 103001              	bcc	15026			; ..
015024: 010504              	mov	r5,r4			; D.
015026: 073427 000006       	ashc	#6,r4			; .w..
015032: 004237 016010       	jsr	r2,@#16010		; ....
015036: 073427 177772       	ashc	#177772,r4		; .wz.
015042: 060401              	add	r4,r1			; .a
015044: 160405              	sub	r4,r5			; .a
015046: 001356              	bne	15004			; n.
015050: 062700 000006       	add	#6,r0			; @e..
015054: 021027 177777       	cmp	(r0),#177777		; ."..
015060: 001316              	bne	14716			; N.
015062: 012703 100006       	mov	#100006,r3		; C...
015066: 012704 013054       	mov	#13054,r4		; D.,.
015072: 004237 016010       	jsr	r2,@#16010		; ....
015076: 012706 111252       	mov	#111252,r6		; F.*.
015102: 000137 001000       	jmp	@#1000			; _...
;
015106: 012005              	mov	(r0)+,r5		; ..
015110: 001464              	beq	15262			; 4.
015112: 005004              	clr	r4			; ..
015114: 006005              	ror	r5			; ..
015116: 103402              	bcs	15124			; ..
015120: 005724              	tst	(r4)+			; T.
015122: 000774              	br	15114			; |.
;
015124: 001056              	bne	15262			; ..
015126: 005720              	tst	(r0)+			; P.
015130: 012005              	mov	(r0)+,r5		; ..
015132: 000241              	clc				; !.
015134: 006005              	ror	r5			; ..
015136: 103451              	bcs	15262			; ).
015140: 001403              	beq	15150			; ..
015142: 004737 002310       	call	@#2310			; _.H.
015146: 103450              	bcs	15270			; (.
015150: 005726              	tst	(r6)+			; V.
015152: 010416              	mov	r4,(r6)			; ..
015154: 106506              	mfpd	r6			; F.
015156: 012604              	mov	(r6)+,r4		; ..
015160: 012703 111252       	mov	#111252,r3		; C.*.
015164: 005237 111654       	inc	@#111654		; ..,.
015170: 014346              	mov	-(r3),-(r6)		; f.
015172: 106644              	mtpd	-(r4)			; $.
015174: 014346              	mov	-(r3),-(r6)		; f.
015176: 106644              	mtpd	-(r4)			; $.
015200: 014346              	mov	-(r3),-(r6)		; f.
015202: 106644              	mtpd	-(r4)			; $.
015204: 014346              	mov	-(r3),-(r6)		; f.
015206: 106644              	mtpd	-(r4)			; $.
015210: 014346              	mov	-(r3),-(r6)		; f.
015212: 106644              	mtpd	-(r4)			; $.
015214: 005705              	tst	r5			; E.
015216: 001404              	beq	15230			; ..
015220: 011003              	mov	(r0),r3			; ..
015222: 106523              	mfpd	(r3)+			; S.
015224: 106644              	mtpd	-(r4)			; $.
015226: 077503              	sob	r5,15222		; C.
015230: 014046              	mov	-(r0),-(r6)		; &.
015232: 106644              	mtpd	-(r4)			; $.
015234: 014046              	mov	-(r0),-(r6)		; &.
015236: 106644              	mtpd	-(r4)			; $.
015240: 014046              	mov	-(r0),-(r6)		; &.
015242: 106644              	mtpd	-(r4)			; $.
015244: 010446              	mov	r4,-(r6)		; &.
015246: 106606              	mtpd	r6			; ..
015250: 005037 111654       	clr	@#111654		; ..,.
015254: 012604              	mov	(r6)+,r4		; ..
015256: 000137 004034       	jmp	@#4034			; _...
;
015262: 012700 060011       	mov	#60011,r0		; @..`
015266: 000402              	br	15274			; ..
;
015270: 012700 060010       	mov	#60010,r0		; @..`
015274: 010637 111400       	mov	r6,@#111400		; ....
015300: 000207              	ret				; ..
;
015302: 011003              	mov	(r0),r3			; ..
015304: 004737 017126       	call	@#17126			; _.V.
015310: 103005              	bcc	15324			; ..
015312: 012700 060001       	mov	#60001,r0		; @..`
015316: 010637 111400       	mov	r6,@#111400		; ....
015322: 000207              	ret				; ..
;
015324: 005037 111400       	clr	@#111400		; ....
015330: 132764 000200 000007	bitb	#200,7(r4)		; t5....
015336: 001371              	bne	15322			; y.
015340: 116405 000005       	movb	5(r4),r5		; ....
015344: 001414              	beq	15376			; ..
015346: 016403 000016       	mov	16(r4),r3		; ....
015352: 001411              	beq	15376			; ..
015354: 010437 111604       	mov	r4,@#111604		; ....
015360: 004737 013374       	call	@#13374			; _.|.
015364: 005037 111604       	clr	@#111604		; ....
015370: 112713 000001       	movb	#1,(r3)			; K...
015374: 000207              	ret				; ..
;
015376: 006305              	asl	r5			; E.
015400: 000175 020674       	jmp	@20674(r5)		; }.<!
;
015404: 016437 000032 111246	mov	32(r4),@#111246		; ....&.
015412: 016437 000150 111250	mov	150(r4),@#111250	; ..h.(.
015420: 152764 000200 000007	bisb	#200,7(r4)		; tU....
015426: 000207              	ret				; ..
;
015430: 016464 000032 000134	mov	32(r4),134(r4)		; 4...\.
015436: 016464 000150 000136	mov	150(r4),136(r4)		; 4.h.^.
015444: 152764 000200 000007	bisb	#200,7(r4)		; tU....
015452: 000207              	ret				; ..
;
015454: 004737 015430       	call	@#15430			; _...
015460: 005064 000024       	clr	24(r4)			; 4...
015464: 010637 111336       	mov	r6,@#111336		; ..^.
015470: 004737 016504       	call	@#16504			; _.D.
015474: 012704 111314       	mov	#111314,r4		; D.L.
015500: 000137 016524       	jmp	@#16524			; _.T.
;
015504: 004737 015430       	call	@#15430			; _...
015510: 132764 000010 000007	bitb	#10,7(r4)		; t5....
015516: 001403              	beq	15526			; ..
015520: 010405              	mov	r4,r5			; ..
015522: 000137 020066       	jmp	@#20066			; _.6 
;
015526: 016405 000020       	mov	20(r4),r5		; ....
015532: 116503 177774       	movb	177774(r5),r3		; C.|.
015536: 006303              	asl	r3			; C.
015540: 000173 020712       	jmp	@20712(r3)		; {.J!
;
015544: 026437 000020 111540	cmp	20(r4),@#111540		; .-..`.
015552: 001005              	bne	15566			; ..
015554: 010405              	mov	r4,r5			; ..
015556: 004737 016254       	call	@#16254			; _.,.
015562: 000137 020066       	jmp	@#20066			; _.6 
;
015566: 010503              	mov	r5,r3			; C.
015570: 011300              	mov	(r3),r0			; @.
015572: 020004              	cmp	r0,r4			; . 
015574: 001402              	beq	15602			; ..
015576: 010003              	mov	r0,r3			; ..
015600: 000773              	br	15570			; {.
;
015602: 011013              	mov	(r0),(r3)		; ..
015604: 010405              	mov	r4,r5			; ..
015606: 000137 020066       	jmp	@#20066			; _.6 
;
015612: 005064 000104       	clr	104(r4)			; 4.D.
015616: 000752              	br	15544			; j.
;
015620: 152764 000100 000007	bisb	#100,7(r4)		; tU@...
015626: 010405              	mov	r4,r5			; ..
015630: 000137 020066       	jmp	@#20066			; _.6 
;
015634: 012700 050010       	mov	#50010,r0		; @..P
015640: 000137 002366       	jmp	@#2366			; _.v.
;
015644: 005064 000024       	clr	24(r4)			; 4...
015650: 112764 000003 000005	movb	#3,5(r4)		; t.....
015656: 000712              	br	15504			; J.
;
015660: 152764 000100 000007	bisb	#100,7(r4)		; tU@...
015666: 000207              	ret				; ..
;
015670: 005064 000024       	clr	24(r4)			; 4...
015674: 112764 000005 000005	movb	#5,5(r4)		; t.....
015702: 000766              	br	15660			; v.
;
015704: 010446              	mov	r4,-(r6)		; &.
015706: 010546              	mov	r5,-(r6)		; f.
015710: 062703 000003       	add	#3,r3			; Ce..
015714: 042703 000003       	bic	#3,r3			; CE..
015720: 012704 111422       	mov	#111422,r4		; D...
015724: 011405              	mov	(r4),r5			; ..
015726: 000261              	sec				; 1.
015730: 001420              	beq	15772			; ..
015732: 020365 000002       	cmp	r3,2(r5)		; u ..
015736: 001412              	beq	15764			; ..
015740: 103402              	bcs	15746			; ..
015742: 010504              	mov	r5,r4			; D.
015744: 000767              	br	15724			; w.
;
015746: 060314              	add	r3,(r4)			; L`
015750: 011404              	mov	(r4),r4			; ..
015752: 011524              	mov	(r5),(r4)+		; T.
015754: 016514 000002       	mov	2(r5),(r4)		; L...
015760: 160314              	sub	r3,(r4)			; L`
015762: 000401              	br	15766			; ..
;
015764: 011514              	mov	(r5),(r4)		; L.
015766: 010503              	mov	r5,r3			; C.
015770: 000241              	clc				; !.
015772: 012605              	mov	(r6)+,r5		; ..
015774: 012604              	mov	(r6)+,r4		; ..
015776: 000207              	ret				; ..
;
016000: 013704 111526       	mov	@#111526,r4		; D.V.
016004: 000137 010652       	jmp	@#10652			; _.*.
;
016010: 010346              	mov	r3,-(r6)		; f.
016012: 010446              	mov	r4,-(r6)		; &.
016014: 010546              	mov	r5,-(r6)		; f.
016016: 005005              	clr	r5			; ..
016020: 006004              	ror	r4			; ..
016022: 001411              	beq	16046			; ..
016024: 000241              	clc				; !.
016026: 006004              	ror	r4			; ..
016030: 103003              	bcc	16040			; ..
016032: 010523              	mov	r5,(r3)+		; S.
016034: 005704              	tst	r4			; D.
016036: 001403              	beq	16046			; ..
016040: 010523              	mov	r5,(r3)+		; S.
016042: 010523              	mov	r5,(r3)+		; S.
016044: 077403              	sob	r4,16040		; ..
016046: 012605              	mov	(r6)+,r5		; ..
016050: 012604              	mov	(r6)+,r4		; ..
016052: 012603              	mov	(r6)+,r3		; ..
016054: 000202              	rts	r2			; ..
;
016056: 010246              	mov	r2,-(r6)		; &.
016060: 012702 000004       	mov	#4,r2			; B...
016064: 010504              	mov	r5,r4			; D.
016066: 062704 000054       	add	#54,r4			; De,.
016072: 005046              	clr	-(r6)			; &.
016074: 016403 000002       	mov	2(r4),r3		; ....
016100: 001452              	beq	16226			; *.
016102: 122763 000003 177774	cmpb	#3,177774(r3)		; s%..|.
016110: 001033              	bne	16200			; ..
016112: 005737 111424       	tst	@#111424		; _...
016116: 001054              	bne	16250			; ,.
016120: 062703 000012       	add	#12,r3			; Ce..
016124: 026304 000020       	cmp	20(r3),r4		; D,..
016130: 001023              	bne	16200			; ..
016132: 005063 000020       	clr	20(r3)			; 3...
016136: 005063 000016       	clr	16(r3)			; 3...
016142: 010546              	mov	r5,-(r6)		; f.
016144: 011305              	mov	(r3),r5			; E.
016146: 001410              	beq	16170			; ..
016150: 011513              	mov	(r5),(r3)		; K.
016152: 010637 111424       	mov	r6,@#111424		; ....
016156: 004737 020066       	call	@#20066			; _.6 
016162: 005037 111424       	clr	@#111424		; ....
016166: 000402              	br	16174			; ..
;
016170: 005263 000002       	inc	2(r3)			; 3...
016174: 012605              	mov	(r6)+,r5		; ..
016176: 000410              	br	16220			; ..
;
016200: 021304              	cmp	(r3),r4			; D"
016202: 001405              	beq	16216			; ..
016204: 011303              	mov	(r3),r3			; C.
016206: 001374              	bne	16200			; |.
016210: 116216 020742       	movb	20742(r2),(r6)		; ..b!
016214: 000401              	br	16220			; ..
;
016216: 011413              	mov	(r4),(r3)		; ..
016220: 062704 000006       	add	#6,r4			; De..
016224: 077255              	sob	r2,16074		; -~
016226: 142765 000010 000007	bicb	#10,7(r5)		; uE....
016234: 004737 016254       	call	@#16254			; _.,.
016240: 012665 000120       	mov	(r6)+,120(r5)		; 5.P.
016244: 012602              	mov	(r6)+,r2		; ..
016246: 000207              	ret				; ..
;
016250: 005316              	dec	(r6)			; N.
016252: 000772              	br	16240			; z.
;
016254: 013704 111540       	mov	@#111540,r4		; D.`.
016260: 026504 000020       	cmp	20(r5),r4		; D-..
016264: 001044              	bne	16376			; $.
016266: 011403              	mov	(r4),r3			; ..
016270: 001442              	beq	16376			; ".
016272: 020305              	cmp	r3,r5			; E 
016274: 001020              	bne	16336			; ..
016276: 011314              	mov	(r3),(r4)		; L.
016300: 011403              	mov	(r4),r3			; ..
016302: 001414              	beq	16334			; ..
016304: 106427 000340       	mtps	#340			; ..`.
016310: 066337 000050 111562	add	50(r3),@#111562		; _l(.r.
016316: 005537 111564       	adc	@#111564		; _.t.
016322: 066337 000052 111564	add	52(r3),@#111564		; _l*.t.
016330: 106427 000000       	mtps	#0			; ....
016334: 000207              	ret				; ..
;
016336: 021305              	cmp	(r3),r5			; E"
016340: 001403              	beq	16350			; ..
016342: 011303              	mov	(r3),r3			; C.
016344: 001414              	beq	16376			; ..
016346: 000773              	br	16336			; {.
;
016350: 011513              	mov	(r5),(r3)		; K.
016352: 001411              	beq	16376			; ..
016354: 011303              	mov	(r3),r3			; C.
016356: 066563 000050 000050	add	50(r5),50(r3)		; sm(.(.
016364: 005563 000052       	adc	52(r3)			; s.*.
016370: 066563 000052 000052	add	52(r5),52(r3)		; sm*.*.
016376: 000207              	ret				; ..
;
016400: 062703 000003       	add	#3,r3			; Ce..
016404: 042703 000003       	bic	#3,r3			; CE..
016410: 010364 000002       	mov	r3,2(r4)		; t...
016414: 012703 111422       	mov	#111422,r3		; C...
016420: 011314              	mov	(r3),(r4)		; L.
016422: 001404              	beq	16434			; ..
016424: 021404              	cmp	(r4),r4			; .#
016426: 101002              	bhi	16434			; ..
016430: 011303              	mov	(r3),r3			; C.
016432: 000772              	br	16420			; z.
;
016434: 010413              	mov	r4,(r3)			; ..
016436: 004717              	call	(r7)			; O.
016440: 011405              	mov	(r4),r5			; ..
016442: 016446 000002       	mov	2(r4),-(r6)		; &...
016446: 060416              	add	r4,(r6)			; .a
016450: 022605              	cmp	(r6)+,r5		; .%
016452: 001002              	bne	16460			; ..
016454: 012524              	mov	(r5)+,(r4)+		; T.
016456: 061514              	add	(r5),(r4)		; Lc
016460: 010304              	mov	r3,r4			; D.
016462: 000207              	ret				; ..
;
016464: 011415              	mov	(r4),(r5)		; ..
016466: 010465 000002       	mov	r4,2(r5)		; 5...
016472: 010514              	mov	r5,(r4)			; L.
016474: 011503              	mov	(r5),r3			; C.
016476: 010563 000002       	mov	r5,2(r3)		; s...
016502: 000207              	ret				; ..
;
016504: 011405              	mov	(r4),r5			; ..
016506: 010574 000002       	mov	r5,@2(r4)		; |...
016512: 016465 000002 000002	mov	2(r4),2(r5)		; 5.....
016520: 010405              	mov	r4,r5			; ..
016522: 000207              	ret				; ..
;
016524: 116465 000005 000005	movb	5(r4),5(r5)		; 5.....
016532: 010446              	mov	r4,-(r6)		; &.
016534: 000401              	br	16540			; ..
;
016536: 010304              	mov	r3,r4			; D.
016540: 011403              	mov	(r4),r3			; ..
016542: 021603              	cmp	(r6),r3			; .#
016544: 001404              	beq	16556			; ..
016546: 126365 000004 000004	cmpb	4(r3),4(r5)		; u,....
016554: 103370              	bcc	16536			; x.
016556: 004737 016464       	call	@#16464			; _.4.
016562: 012604              	mov	(r6)+,r4		; ..
016564: 000207              	ret				; ..
;
016566: 021404              	cmp	(r4),r4			; .#
016570: 001403              	beq	16600			; ..
016572: 011404              	mov	(r4),r4			; ..
016574: 004737 016504       	call	@#16504			; _.D.
016600: 000207              	ret				; ..
;
016602: 116403 177775       	movb	177775(r4),r3		; ..}.
016606: 010246              	mov	r2,-(r6)		; &.
016610: 000404              	br	16622			; ..
;
016612: 116403 177775       	movb	177775(r4),r3		; ..}.
016616: 010246              	mov	r2,-(r6)		; &.
016620: 010502              	mov	r5,r2			; B.
016622: 112765 000003 000005	movb	#3,5(r5)		; u.....
016630: 010465 000020       	mov	r4,20(r5)		; 5...
016634: 005065 000002       	clr	2(r5)			; 5...
016640: 010446              	mov	r4,-(r6)		; &.
016642: 010246              	mov	r2,-(r6)		; &.
016644: 106103              	rolb	r3			; C.
016646: 011403              	mov	(r4),r3			; ..
016650: 001422              	beq	16716			; ..
016652: 103016              	bcc	16710			; ..
016654: 010302              	mov	r3,r2			; B.
016656: 005763 000002       	tst	2(r3)			; s...
016662: 001402              	beq	16670			; ..
016664: 016302 000004       	mov	4(r3),r2		; B...
016670: 126265 000004 000004	cmpb	4(r2),4(r5)		; 5,....
016676: 103407              	bcs	16716			; ..
016700: 010304              	mov	r3,r4			; D.
016702: 011403              	mov	(r4),r3			; ..
016704: 001363              	bne	16654			; s.
016706: 000403              	br	16716			; ..
;
016710: 010304              	mov	r3,r4			; D.
016712: 011403              	mov	(r4),r3			; ..
016714: 001375              	bne	16710			; }.
016716: 012602              	mov	(r6)+,r2		; ..
016720: 011412              	mov	(r4),(r2)		; ..
016722: 010214              	mov	r2,(r4)			; ..
016724: 012604              	mov	(r6)+,r4		; ..
016726: 012602              	mov	(r6)+,r2		; ..
016730: 000207              	ret				; ..
;
016732: 012003              	mov	(r0)+,r3		; ..
016734: 012205              	mov	(r2)+,r5		; ..
016736: 004737 017222       	call	@#17222			; _...
016742: 103422              	bcs	17010			; ..
016744: 120564 177774       	cmpb	r5,177774(r4)		; t!|.
016750: 001404              	beq	16762			; ..
016752: 000305              	swab	r5			; E.
016754: 120564 177774       	cmpb	r5,177774(r4)		; t!|.
016760: 001003              	bne	16770			; ..
016762: 005037 111400       	clr	@#111400		; ....
016766: 000202              	rts	r2			; ..
;
016770: 004737 017024       	call	@#17024			; _...
016774: 103405              	bcs	17010			; ..
016776: 016205 177776       	mov	177776(r2),r5		; ..~.
017002: 004737 017246       	call	@#17246			; _.&.
017006: 000755              	br	16742			; m.
;
017010: 012700 060001       	mov	#60001,r0		; @..`
017014: 010637 111400       	mov	r6,@#111400		; ....
017020: 012602              	mov	(r6)+,r2		; ..
017022: 000207              	ret				; ..
;
017024: 005704              	tst	r4			; D.
017026: 001426              	beq	17104			; ..
017030: 122764 000006 177774	cmpb	#6,177774(r4)		; t%..|.
017036: 001022              	bne	17104			; ..
017040: 022714 000006       	cmp	#6,(r4)			; L%..
017044: 103417              	bcs	17104			; ..
017046: 010346              	mov	r3,-(r6)		; f.
017050: 005023              	clr	(r3)+			; ..
017052: 005023              	clr	(r3)+			; ..
017054: 005023              	clr	(r3)+			; ..
017056: 005023              	clr	(r3)+			; ..
017060: 005023              	clr	(r3)+			; ..
017062: 005023              	clr	(r3)+			; ..
017064: 162703 000006       	sub	#6,r3			; Ce..
017070: 012405              	mov	(r4)+,r5		; ..
017072: 112423              	movb	(r4)+,(r3)+		; ..
017074: 077502              	sob	r5,17072		; B.
017076: 012603              	mov	(r6)+,r3		; ..
017100: 000241              	clc				; !.
017102: 000207              	ret				; ..
;
017104: 000261              	sec				; 1.
017106: 000207              	ret				; ..
;
017110: 012003              	mov	(r0)+,r3		; ..
017112: 004737 013374       	call	@#13374			; _.|.
017116: 011304              	mov	(r3),r4			; D.
017120: 005037 111400       	clr	@#111400		; ....
017124: 000207              	ret				; ..
;
017126: 013704 111312       	mov	@#111312,r4		; D.J.
017132: 005703              	tst	r3			; C.
017134: 001427              	beq	17214			; ..
017136: 010046              	mov	r0,-(r6)		; &.
017140: 010346              	mov	r3,-(r6)		; f.
017142: 010600              	mov	r6,r0			; ..
017144: 004737 002310       	call	@#2310			; _.H.
017150: 005226              	inc	(r6)+			; ..
017152: 012600              	mov	(r6)+,r0		; ..
017154: 103416              	bcs	17212			; ..
017156: 004737 013374       	call	@#13374			; _.|.
017162: 005713              	tst	(r3)			; K.
017164: 001003              	bne	17174			; ..
017166: 105763 000006       	tstb	6(r3)			; s...
017172: 001411              	beq	17216			; ..
017174: 004737 017246       	call	@#17246			; _.&.
017200: 103405              	bcs	17214			; ..
017202: 122764 000004 177774	cmpb	#4,177774(r4)		; t%..|.
017210: 001401              	beq	17214			; ..
017212: 000261              	sec				; 1.
017214: 000207              	ret				; ..
;
017216: 000137 017326       	jmp	@#17326			; _.V.
;
017222: 010046              	mov	r0,-(r6)		; &.
017224: 010346              	mov	r3,-(r6)		; f.
017226: 010600              	mov	r6,r0			; ..
017230: 004737 002310       	call	@#2310			; _.H.
017234: 005226              	inc	(r6)+			; ..
017236: 012600              	mov	(r6)+,r0		; ..
017240: 103454              	bcs	17372			; ,.
017242: 004737 013374       	call	@#13374			; _.|.
017246: 011304              	mov	(r3),r4			; D.
017250: 001037              	bne	17350			; ..
017252: 004737 017376       	call	@#17376			; _.~.
017256: 103446              	bcs	17374			; &.
017260: 162704 177764       	sub	#177764,r4		; Det.
017264: 005764 177764       	tst	177764(r4)		; t.t.
017270: 001440              	beq	17372			;  .
017272: 016404 177764       	mov	177764(r4),r4		; ..t.
017276: 026364 000006 177756	cmp	6(r3),177756(r4)	; t,..n.
017304: 001367              	bne	17264			; w.
017306: 026364 000010 177760	cmp	10(r3),177760(r4)	; t,..p.
017314: 001363              	bne	17264			; s.
017316: 026364 000012 177762	cmp	12(r3),177762(r4)	; t,..r.
017324: 001357              	bne	17264			; o.
017326: 010413              	mov	r4,(r3)			; ..
017330: 016463 177770 000002	mov	177770(r4),2(r3)	; 3.x...
017336: 016463 177772 000004	mov	177772(r4),4(r3)	; 3.z...
017344: 000241              	clc				; !.
017346: 000207              	ret				; ..
;
017350: 026364 000002 177770	cmp	2(r3),177770(r4)	; t,..x.
017356: 001005              	bne	17372			; ..
017360: 026364 000004 177772	cmp	4(r3),177772(r4)	; t,..z.
017366: 001001              	bne	17372			; ..
017370: 005727 000261       	tst	#261			; W.1.
017374: 000207              	ret				; ..
;
017376: 126327 000006 000001	cmpb	6(r3),#1		; W,....
017404: 103424              	bcs	17456			; ..
017406: 062703 000006       	add	#6,r3			; Ce..
017412: 010546              	mov	r5,-(r6)		; f.
017414: 012705 000006       	mov	#6,r5			; E...
017420: 005004              	clr	r4			; ..
017422: 005046              	clr	-(r6)			; &.
017424: 112316              	movb	(r3)+,(r6)		; N.
017426: 062604              	add	(r6)+,r4		; .e
017430: 077504              	sob	r5,17422		; D.
017432: 010405              	mov	r4,r5			; ..
017434: 000305              	swab	r5			; E.
017436: 060504              	add	r5,r4			; Da
017440: 042704 177701       	bic	#177701,r4		; DEA.
017444: 062704 111426       	add	#111426,r4		; De..
017450: 162703 000014       	sub	#14,r3			; Ce..
017454: 012605              	mov	(r6)+,r5		; ..
017456: 000207              	ret				; ..
;
017460: 004737 017110       	call	@#17110			; _.H.
017464: 000403              	br	17474			; ..
;
017466: 004237 016732       	jsr	r2,@#16732		; ..Z.
017472: 177403              	ldcdf	f0,r3			; ..
017474: 116403 177775       	movb	177775(r4),r3		; ..}.
017500: 032103              	bit	(r1)+,r3		; C4
017502: 001012              	bne	17530			; ..
017504: 026064 000002 000006	cmp	2(r0),6(r4)		; 4,....
017512: 101406              	blos	17530			; ..
017514: 012601              	mov	(r6)+,r1		; ..
017516: 010637 111400       	mov	r6,@#111400		; ....
017522: 012700 060011       	mov	#60011,r0		; @..`
017526: 000207              	ret				; ..
;
017530: 012605              	mov	(r6)+,r5		; ..
017532: 010246              	mov	r2,-(r6)		; &.
017534: 005046              	clr	-(r6)			; &.
017536: 005046              	clr	-(r6)			; &.
017540: 010546              	mov	r5,-(r6)		; f.
017542: 016605 000012       	mov	12(r6),r5		; ....
017546: 010402              	mov	r4,r2			; ..
017550: 062104              	add	(r1)+,r4		; Dd
017552: 006264 000002       	asr	2(r4)			; 4...
017556: 103422              	bcs	17624			; ..
017560: 026127 177774 000002	cmp	177774(r1),#2		; W,|...
017566: 001001              	bne	17572			; ..
017570: 106303              	aslb	r3			; C.
017572: 004737 016616       	call	@#16616			; _...
017576: 010103              	mov	r1,r3			; C.
017600: 012601              	mov	(r6)+,r1		; ..
017602: 004737 017650       	call	@#17650			; _.(.
017606: 103005              	bcc	17622			; ..
017610: 022626              	cmp	(r6)+,(r6)+		; .%
017612: 021405              	cmp	(r4),r5			; .#
017614: 001404              	beq	17626			; ..
017616: 011404              	mov	(r4),r4			; ..
017620: 000774              	br	17612			; |.
;
017622: 000113              	jmp	(r3)			; K.
;
017624: 000201              	rts	r1			; ..
;
017626: 011514              	mov	(r5),(r4)		; L.
017630: 004737 020066       	call	@#20066			; _.6 
017634: 005037 111400       	clr	@#111400		; ....
017640: 012601              	mov	(r6)+,r1		; ..
017642: 022626              	cmp	(r6)+,(r6)+		; .%
017644: 012602              	mov	(r6)+,r2		; ..
017646: 000207              	ret				; ..
;
017650: 010265 000020       	mov	r2,20(r5)		; 5...
017654: 005266 000004       	inc	4(r6)			; 6...
017660: 010246              	mov	r2,-(r6)		; &.
017662: 016602 000010       	mov	10(r6),r2		; ....
017666: 004737 020020       	call	@#20020			; _.. 
017672: 010266 000010       	mov	r2,10(r6)		; 6...
017676: 012602              	mov	(r6)+,r2		; ..
017700: 000207              	ret				; ..
;
017702: 004737 017110       	call	@#17110			; _.H.
017706: 000403              	br	17716			; ..
;
017710: 004237 016732       	jsr	r2,@#16732		; ..Z.
017714: 177402              	ldcdf	f0,r2			; ..
017716: 005764 000006       	tst	6(r4)			; t...
017722: 001002              	bne	17730			; ..
017724: 005000              	clr	r0			; ..
017726: 000207              	ret				; ..
;
017730: 005364 000006       	dec	6(r4)			; t...
017734: 016405 000002       	mov	2(r4),r5		; ....
017740: 011564 000002       	mov	(r5),2(r4)		; t...
017744: 001002              	bne	17752			; ..
017746: 005064 000004       	clr	4(r4)			; 4...
017752: 010510              	mov	r5,(r0)			; H.
017754: 012700 000001       	mov	#1,r0			; @...
017760: 000207              	ret				; ..
;
017762: 005065 000104       	clr	104(r5)			; 5.D.
017766: 005737 111604       	tst	@#111604		; _...
017772: 001402              	beq	20000			; ..
017774: 000137 003062       	jmp	@#3062			; _.2.
;
020000: 010637 111336       	mov	r6,@#111336		; ..^.
020004: 005037 111312       	clr	@#111312		; ..J.
020010: 004737 012012       	call	@#12012			; _...
020014: 000137 002520       	jmp	@#2520			; _.P.
;
020020: 062705 000104       	add	#104,r5			; EeD.
020024: 010625              	mov	r6,(r5)+		; ..
020026: 010425              	mov	r4,(r5)+		; ..
020030: 010325              	mov	r3,(r5)+		; U.
020032: 010025              	mov	r0,(r5)+		; ..
020034: 013725 172344       	mov	@#172344,(r5)+		; U.dt
020040: 013715 172346       	mov	@#172346,(r5)		; M.ft
020044: 162705 000116       	sub	#116,r5			; EeN.
020050: 005737 111604       	tst	@#111604		; _...
020054: 001344              	bne	17766			; d.
020056: 012765 003036 000266	mov	#3036,266(r5)		; u...6.
020064: 000740              	br	17766			; `.
;
020066: 005765 000002       	tst	2(r5)			; u...
020072: 001402              	beq	20100			; ..
020074: 016505 000004       	mov	4(r5),r5		; E...
020100: 010446              	mov	r4,-(r6)		; &.
020102: 010346              	mov	r3,-(r6)		; f.
020104: 132765 000010 000007	bitb	#10,7(r5)		; u5....
020112: 001402              	beq	20120			; ..
020114: 004737 016056       	call	@#16056			; _...
020120: 005765 000104       	tst	104(r5)			; u.D.
020124: 001421              	beq	20170			; ..
020126: 132765 000040 000007	bitb	#40,7(r5)		; u5 ...
020134: 001041              	bne	20240			; !.
020136: 152765 000040 000007	bisb	#40,7(r5)		; uU ...
020144: 013704 111602       	mov	@#111602,r4		; D...
020150: 010514              	mov	r5,(r4)			; L.
020152: 062714 000026       	add	#26,(r4)		; Le..
020156: 011437 111602       	mov	(r4),@#111602		; ....
020162: 005065 000026       	clr	26(r5)			; 5...
020166: 000424              	br	20240			; ..
;
020170: 005065 000020       	clr	20(r5)			; 5...
020174: 116504 000005       	movb	5(r5),r4		; D...
020200: 006304              	asl	r4			; D.
020202: 000174 020750       	jmp	@20750(r4)		; |.h!
;
020206: 012700 050010       	mov	#50010,r0		; @..P
020212: 000137 002366       	jmp	@#2366			; _.v.
;
020216: 012704 111314       	mov	#111314,r4		; D.L.
020222: 010637 111336       	mov	r6,@#111336		; ..^.
020226: 000402              	br	20234			; ..
;
020230: 012704 111322       	mov	#111322,r4		; D.R.
020234: 004737 016524       	call	@#16524			; _.T.
020240: 012603              	mov	(r6)+,r3		; ..
020242: 012604              	mov	(r6)+,r4		; ..
020244: 000207              	ret				; ..
;
020246: 005066 000016       	clr	16(r6)			; 6...
020252: 012766 020262 000014	mov	#20262,14(r6)		; v.2 ..
020260: 000207              	ret				; ..
;
020262: 000001              	wait				; ..
020264: 000776              	br	20262			; ~.
;
020266: 010346              	mov	r3,-(r6)		; f.
020270: 004537 020306       	jsr	r5,@#20306		; _.F 
020274: 172344              	addf	f3,-(r4)		; dt
020276: 040000              	bic	r0,r0			; .@
020300: 010304              	mov	r3,r4			; D.
020302: 012603              	mov	(r6)+,r3		; ..
020304: 000207              	ret				; ..
;
020306: 011403              	mov	(r4),r3			; ..
020310: 016475 000002 000000	mov	2(r4),@0(r5)		; =.....
020316: 042703 160000       	bic	#160000,r3		; CE.`
020322: 072327 177772       	ash	#177772,r3		; Wtz.
020326: 060335              	add	r3,@(r5)+		; ]`
020330: 011403              	mov	(r4),r3			; ..
020332: 042703 177700       	bic	#177700,r3		; CE@.
020336: 062503              	add	(r5)+,r3		; Ce
020340: 000205              	rts	r5			; ..
;
020342: 042705 017777       	bic	#17777,r5		; EE..
020346: 073527 177764       	ashc	#177764,r5		; Wwt.
020352: 005737 111266       	tst	@#111266		; _.6.
020356: 001036              	bne	20454			; ..
020360: 010546              	mov	r5,-(r6)		; f.
020362: 013705 111604       	mov	@#111604,r5		; E...
020366: 001414              	beq	20420			; ..
020370: 016513 000144       	mov	144(r5),(r3)		; K.d.
020374: 132765 000010 000030	bitb	#10,30(r5)		; u5....
020402: 001402              	beq	20410			; ..
020404: 062713 000040       	add	#40,(r3)		; Ke .
020410: 011305              	mov	(r3),r5			; E.
020412: 062605              	add	(r6)+,r5		; .e
020414: 011523              	mov	(r5),(r3)+		; S.
020416: 000207              	ret				; ..
;
020420: 013705 111312       	mov	@#111312,r5		; E.J.
020424: 132765 000010 000030	bitb	#10,30(r5)		; u5....
020432: 001404              	beq	20444			; ..
020434: 012605              	mov	(r6)+,r5		; ..
020436: 016523 177660       	mov	177660(r5),(r3)+	; S.0.
020442: 000207              	ret				; ..
;
020444: 012605              	mov	(r6)+,r5		; ..
020446: 016523 177640       	mov	177640(r5),(r3)+	; S. .
020452: 000207              	ret				; ..
;
020454: 016523 172340       	mov	172340(r5),(r3)+	; S.`t
020460: 000207              	ret				; ..
;
020462: 000004              	iot				; ..
020464: 000004              	iot				; ..
020466: 000010              	invalid opcode			; ..
020470: 000034              	invalid opcode			; ..
020472: 000272              	invalid opcode			; :.
020474: 000006              	rtt				; ..
;
020476: 000002              	rti				; ..
;
020500: 000000              	halt				; ..
;
020502: 005172 005172       	com	@5172(r2)		; z.z.
020506: 005252              	inc	@-(r2)			; *.
020510: 005204              	inc	r4			; ..
020512: 005252              	inc	@-(r2)			; *.
020514: 005252              	inc	@-(r2)			; *.
020516: 005200              	inc	r0			; ..
020520: 005252              	inc	@-(r2)			; *.
020522: 005046              	clr	-(r6)			; &.
020524: 005056              	clr	@-(r6)			; ..
020526: 005134              	com	@(r4)+			; \.
020530: 005066 005136       	clr	5136(r6)		; 6.^.
020534: 005134              	com	@(r4)+			; \.
020536: 005116              	com	(r6)			; N.
020540: 005064 005572       	clr	5572(r4)		; 4.z.
020544: 005572 005564       	adc	@5564(r2)		; z.t.
020550: 005544              	adc	-(r4)			; d.
020552: 005576 005576       	adc	@5576(r6)		; ~.~.
020556: 005576 005576       	adc	@5576(r6)		; ~.~.
020562: 006226              	asr	(r6)+			; ..
020564: 006226              	asr	(r6)+			; ..
020566: 006234              	asr	@(r4)+			; ..
020570: 006242              	asr	-(r2)			; ".
020572: 006246              	asr	-(r6)			; &.
020574: 006246              	asr	-(r6)			; &.
020576: 006252              	asr	@-(r2)			; *.
020600: 006246              	asr	-(r6)			; &.
020602: 000000              	halt				; ..
;
020604: 010001              	mov	r0,r1			; ..
020606: 000002              	rti				; ..
;
020610: 000002              	rti				; ..
;
020612: 000000              	halt				; ..
;
020614: 004001              	jsr	r0,r1			; ..
020616: 000001              	wait				; ..
020620: 000000              	halt				; ..
020622: 000000              	halt				; ..
;
020624: 024000              	cmp	-(r0),r0		; .(
020626: 000020              	invalid opcode			; ..
020630: 000010              	invalid opcode			; ..
020632: 000000              	halt				; ..
;
020634: 010002              	mov	r0,r2			; ..
020636: 000002              	rti				; ..
;
020640: 000002              	rti				; ..
;
020642: 040012              	bic	r0,(r2)			; .@
020644: 040002              	bic	r0,r2			; .@
020646: 040011              	bic	r0,(r1)			; .@
020650: 040010              	bic	r0,(r0)			; .@
020652: 040001              	bic	r0,r1			; .@
020654: 000000              	halt				; ..
;
020656: 172350              	addf	f3,@-(r0)		; ht
020660: 000000              	halt				; ..
;
020662: 172350              	addf	f3,@-(r0)		; ht
020664: 000000              	halt				; ..
;
020666: 172310              	addf	f3,(r0)			; Ht
020670: 000000              	halt				; ..
;
020672: 172310              	addf	f3,(r0)			; Ht
020674: 015404              	mov	@-(r4),r4		; ..
020676: 015430              	mov	@-(r4),@(r0)+		; ..
020700: 015454              	mov	@-(r4),@-(r4)		; ,.
020702: 015504              	mov	@-(r5),r4		; D.
020704: 015644              	mov	@-(r6),-(r4)		; $.
020706: 015660 015670       	mov	@-(r6),15670(r0)	; 0.8.
020712: 015544              	mov	@-(r5),-(r4)		; d.
020714: 015544              	mov	@-(r5),-(r4)		; d.
020716: 015612              	mov	@-(r6),(r2)		; ..
020720: 015620              	mov	@-(r6),(r0)+		; ..
020722: 015634              	mov	@-(r6),@(r4)+		; ..
020724: 015634              	mov	@-(r6),@(r4)+		; ..
020726: 015634              	mov	@-(r6),@(r4)+		; ..
020730: 015634              	mov	@-(r6),@(r4)+		; ..
020732: 000010              	invalid opcode			; ..
020734: 004003              	jsr	r0,r3			; ..
020736: 000001              	wait				; ..
020740: 000000              	halt				; ..
;
020742: 002000              	bge	20744			; ..
020744: 001003              	bne	20754			; ..
020746: 000001              	wait				; ..
020750: 020206              	cmp	r2,r6			; . 
020752: 020206              	cmp	r2,r6			; . 
020754: 020206              	cmp	r2,r6			; . 
020756: 020216              	cmp	r2,(r6)			; . 
020760: 020230              	cmp	r2,@(r0)+		; . 
020762: 020216              	cmp	r2,(r6)			; . 
020764: 020230              	cmp	r2,@(r0)+		; . 
020766: 000000              	halt				; ..
;
020770: 002000              	bge	20772			; ..
020772: 000000              	halt				; ..
;
020774: 010000              	mov	r0,r0			; ..
020776: 000200              	rts	r0			; ..
;
021000: 000003              	bpt				; ..
021002: 020000              	cmp	r0,r0			; . 
021004: 000120              	jmp	(r0)+			; P.
;
021006: 000001              	wait				; ..
021010: 177777 177777       	ldcdf	f3,@21013		; ....
021014: 000000              	halt				; ..
;
021016: 177777 100305       	ldcdf	f3,@121327		; ..E.
021022: 000074              	invalid opcode			; <.
021024: 000212              	invalid opcode			; ..
021026: 000000              	halt				; ..
021030: 000000              	halt				; ..
;
021032: 000200              	rts	r0			; ..
;
021034: 000000              	halt				; ..
021036: 000000              	halt				; ..
;
021040: 010000              	mov	r0,r0			; ..
021042: 000000              	halt				; ..
021044: 000000              	halt				; ..
021046: 000000              	halt				; ..
;
021050: 077402              	sob	r4,21046		; ..
021052: 004402              	jsr	r4,r2			; ..
021054: 000000              	halt				; ..
021056: 000000              	halt				; ..
;
021060: 054006              	bis	-(r0),r6		; .X
021062: 000000              	halt				; ..
021064: 000000              	halt				; ..
021066: 000000              	halt				; ..
;
021070: 014316              	mov	-(r3),(r6)		; N.
021072: 177742              	ldcdf	f3,-(r2)		; b.
021074: 000056              	invalid opcode			; ..
021076: 000026              	invalid opcode			; ..
021100: 000003              	bpt				; ..
021102: 010137 000041       	mov	r1,@#41			; _.!.
021106: 020102              	cmp	r1,r2			; B 
021110: 000016              	invalid opcode			; ..
021112: 177777 000000       	ldcdf	f3,@21116		; ....
021116: 000000              	halt				; ..
021120: 000000              	halt				; ..
021122: 000000              	halt				; ..
021124: 000000              	halt				; ..
021126: 000000              	halt				; ..
021130: 000000              	halt				; ..
021132: 000000              	halt				; ..
021134: 000000              	halt				; ..
021136: 000000              	halt				; ..
021140: 000000              	halt				; ..
021142: 000000              	halt				; ..
021144: 000000              	halt				; ..
021146: 000000              	halt				; ..
021150: 000000              	halt				; ..
021152: 000000              	halt				; ..
021154: 000000              	halt				; ..
021156: 000000              	halt				; ..
021160: 000000              	halt				; ..
021162: 000000              	halt				; ..
021164: 000000              	halt				; ..
021166: 000000              	halt				; ..
021170: 000000              	halt				; ..
021172: 000000              	halt				; ..
021174: 000000              	halt				; ..
021176: 000000              	halt				; ..
;
021200: 000004              	iot				; ..
021202: 052044              	bis	(r0)+,-(r4)		; $T
021204: 040524              	bic	r5,(r4)+		; TA
021206: 051104              	bis	(r1),r4			; DR
021210: 001772              	beq	21176			; z.
021212: 000000              	halt				; ..
;
021214: 000001              	wait				; ..
021216: 041250              	bic	(r2),@-(r0)		; (B
021220: 000000              	halt				; ..
;
021222: 060570 060504       	add	r5,@60504(r0)		; xaDa
021226: 060570 040076       	add	r5,@40076(r0)		; xa>@
021232: 000000              	halt				; ..
;
021234: 000272              	invalid opcode			; :.
021236: 000000              	halt				; ..
021240: 000000              	halt				; ..
;
021242: 000212              	invalid opcode			; ..
021244: 010131              	mov	r1,@(r1)+		; Y.
021246: 000000              	halt				; ..
021250: 000000              	halt				; ..
021252: 000000              	halt				; ..
021254: 000000              	halt				; ..
021256: 000000              	halt				; ..
021260: 000000              	halt				; ..
;
021262: 027402 002406       	cmp	@2406(r4),r2		; ./..
021266: 000000              	halt				; ..
021270: 000000              	halt				; ..
021272: 000000              	halt				; ..
021274: 000000              	halt				; ..
;
021276: 012703 060446       	mov	#60446,r3		; C.&a
021302: 010300              	mov	r3,r0			; @.
021304: 012701 000017       	mov	#17,r1			; A...
021310: 005020              	clr	(r0)+			; ..
021312: 077102              	sob	r1,21310		; B~
021314: 010300              	mov	r3,r0			; @.
021316: 062703 000006       	add	#6,r3			; Ce..
021322: 013723 045516       	mov	@#45516,(r3)+		; S.NK
021326: 013723 045520       	mov	@#45520,(r3)+		; S.PK
021332: 013713 045522       	mov	@#45522,(r3)		; K.RK
021336: 005046              	clr	-(r6)			; &.
021340: 012746 000300       	mov	#300,-(r6)		; f.@.
021344: 012746 000002       	mov	#2,-(r6)		; f...
021350: 010046              	mov	r0,-(r6)		; &.
021352: 010600              	mov	r6,r0			; ..
021354: 000004              	iot				; ..
021356: 004504              	jsr	r5,r4			; D.
021360: 012626              	mov	(r6)+,(r6)+		; ..
021362: 012626              	mov	(r6)+,(r6)+		; ..
021364: 103537              	bcs	21664			; _.
021366: 012746 000257       	mov	#257,-(r6)		; f./.
021372: 005046              	clr	-(r6)			; &.
021374: 010600              	mov	r6,r0			; ..
021376: 000004              	iot				; ..
021400: 004430              	jsr	r4,@(r0)+		; ..
021402: 012626              	mov	(r6)+,(r6)+		; ..
021404: 012737 177777 060466	mov	#177777,@#60466		; _...6a
021412: 005046              	clr	-(r6)			; &.
021414: 010600              	mov	r6,r0			; ..
021416: 000004              	iot				; ..
021420: 004402              	jsr	r4,r2			; ..
021422: 012637 060470       	mov	(r6)+,@#60470		; ..8a
021426: 005700              	tst	r0			; @.
021430: 001513              	beq	21660			; K.
021432: 013700 060470       	mov	@#60470,r0		; @.8a
021436: 012760 014033 000004	mov	#14033,4(r0)		; p.....
021444: 012760 000014 000006	mov	#14,6(r0)		; p.....
021452: 005060 000010       	clr	10(r0)			; 0...
021456: 012746 000001       	mov	#1,-(r6)		; f...
021462: 012705 045452       	mov	#45452,r5		; E.*K
021466: 012737 060462 060464	mov	#60462,@#60464		; _.2a4a
021474: 021527 000001       	cmp	(r5),#1			; W#..
021500: 001064              	bne	21652			; 4.
021502: 004775 000002       	call	@2(r5)			; }...
021506: 005316              	dec	(r6)			; N.
021510: 001371              	bne	21474			; y.
021512: 005726              	tst	(r6)+			; V.
021514: 000504              	br	21726			; D.
;
021516: 022527 000002       	cmp	(r5)+,#2		; W%..
021522: 001053              	bne	21652			; +.
021524: 012503              	mov	(r5)+,r3		; C.
021526: 010301              	mov	r3,r1			; A.
021530: 012700 000077       	mov	#77,r0			; @.?.
021534: 005021              	clr	(r1)+			; ..
021536: 077002              	sob	r0,21534		; .~
021540: 010377 020120       	mov	r3,@41664		; ..P 
021544: 010337 060464       	mov	r3,@#60464		; _.4a
021550: 062737 000122 060464	add	#122,@#60464		; _eR.4a
021556: 012701 000026       	mov	#26,r1			; A...
021562: 060301              	add	r3,r1			; A`
021564: 012700 000010       	mov	#10,r0			; @...
021570: 012421              	mov	(r4)+,(r1)+		; ..
021572: 077002              	sob	r0,21570		; .~
021574: 012563 000002       	mov	(r5)+,2(r3)		; s...
021600: 012502              	mov	(r5)+,r2		; B.
021602: 011563 000050       	mov	(r5),50(r3)		; s.(.
021606: 012504              	mov	(r5)+,r4		; D.
021610: 004737 040470       	call	@#40470			; _.8A
021614: 011563 000052       	mov	(r5),52(r3)		; s.*.
021620: 012504              	mov	(r5)+,r4		; D.
021622: 004737 040470       	call	@#40470			; _.8A
021626: 012563 000072       	mov	(r5)+,72(r3)		; s.:.
021632: 012563 000074       	mov	(r5)+,74(r3)		; s.<.
021636: 010346              	mov	r3,-(r6)		; f.
021640: 062716 000176       	add	#176,(r6)		; Ne~.
021644: 012663 000124       	mov	(r6)+,124(r3)		; 3.T.
021650: 000207              	ret				; ..
;
021652: 012700 034033       	mov	#34033,r0		; @..8
021656: 000402              	br	21664			; ..
;
021660: 012700 030017       	mov	#30017,r0		; @..0
021664: 004737 045162       	call	@#45162			; _.rJ
021670: 010401              	mov	r4,r1			; ..
021672: 005021              	clr	(r1)+			; ..
021674: 010221              	mov	r2,(r1)+		; ..
021676: 010411              	mov	r4,(r1)			; ..
021700: 062711 000012       	add	#12,(r1)		; Ie..
021704: 012111              	mov	(r1)+,(r1)		; I.
021706: 010246              	mov	r2,-(r6)		; &.
021710: 006216              	asr	(r6)			; ..
021712: 011601              	mov	(r6),r1			; ..
021714: 006216              	asr	(r6)			; ..
021716: 062601              	add	(r6)+,r1		; .e
021720: 010164 000010       	mov	r1,10(r4)		; t...
021724: 000207              	ret				; ..
;
021726: 005046              	clr	-(r6)			; &.
021730: 012746 060446       	mov	#60446,-(r6)		; f.&a
021734: 010600              	mov	r6,r0			; ..
021736: 000004              	iot				; ..
021740: 010644              	mov	r6,-(r4)		; $.
021742: 005226              	inc	(r6)+			; ..
021744: 012604              	mov	(r6)+,r4		; ..
021746: 103426              	bcs	22024			; ..
021750: 005000              	clr	r0			; ..
021752: 116400 000010       	movb	10(r4),r0		; ....
021756: 013703 060462       	mov	@#60462,r3		; C.2a
021762: 005700              	tst	r0			; @.
021764: 001404              	beq	21776			; ..
021766: 016303 000122       	mov	122(r3),r3		; C.R.
021772: 001416              	beq	22030			; ..
021774: 077004              	sob	r0,21766		; .~
021776: 016400 000006       	mov	6(r4),r0		; ....
022002: 042700 177700       	bic	#177700,r0		; @E@.
022006: 020027 000015       	cmp	r0,#15			; . ..
022012: 002011              	bge	22036			; ..
022014: 006300              	asl	r0			; @.
022016: 004770 045524       	call	@45524(r0)		; x.TK
022022: 000741              	br	21726			; a.
;
022024: 004737 045162       	call	@#45162			; _.rJ
022030: 012700 030014       	mov	#30014,r0		; @..0
022034: 000402              	br	22042			; ..
;
022036: 012700 034006       	mov	#34006,r0		; @..8
022042: 005064 000016       	clr	16(r4)			; 4...
022046: 010064 000014       	mov	r0,14(r4)		; 4...
022052: 004737 045252       	call	@#45252			; _.*J
022056: 000723              	br	21726			; S.
;
022060: 004737 041002       	call	@#41002			; _..B
022064: 012746 000060       	mov	#60,-(r6)		; f.0.
022070: 060316              	add	r3,(r6)			; N`
022072: 011605              	mov	(r6),r5			; ..
022074: 005014              	clr	(r4)			; ..
022076: 005715              	tst	(r5)			; M.
022100: 001402              	beq	22106			; ..
022102: 011505              	mov	(r5),r5			; E.
022104: 000774              	br	22076			; |.
;
022106: 010415              	mov	r4,(r5)			; ..
022110: 012605              	mov	(r6)+,r5		; ..
022112: 032745 000002       	bit	#2,-(r5)		; e5..
022116: 001030              	bne	22200			; ..
022120: 052715 000001       	bis	#1,(r5)			; MU..
022124: 000423              	br	22174			; ..
;
022126: 004737 041002       	call	@#41002			; _..B
022132: 012746 000106       	mov	#106,-(r6)		; f.F.
022136: 060316              	add	r3,(r6)			; N`
022140: 012605              	mov	(r6)+,r5		; ..
022142: 005014              	clr	(r4)			; ..
022144: 005715              	tst	(r5)			; M.
022146: 001402              	beq	22154			; ..
022150: 011505              	mov	(r5),r5			; E.
022152: 000774              	br	22144			; |.
;
022154: 010415              	mov	r4,(r5)			; ..
022156: 032763 000010 000056	bit	#10,56(r3)		; s5....
022164: 001005              	bne	22200			; ..
022166: 052763 000004 000056	bis	#4,56(r3)		; sU....
022174: 004737 041266       	call	@#41266			; _.6B
022200: 000207              	ret				; ..
;
022202: 005764 000004       	tst	4(r4)			; t...
022206: 100001              	bpl	22212			; ..
022210: 000207              	ret				; ..
;
022212: 005726              	tst	(r6)+			; V.
022214: 012700 034041       	mov	#34041,r0		; @.!8
022220: 005064 000016       	clr	16(r4)			; 4...
022224: 000402              	br	22232			; ..
;
022226: 012700 034006       	mov	#34006,r0		; @..8
022232: 010064 000014       	mov	r0,14(r4)		; 4...
022236: 004737 045252       	call	@#45252			; _.*J
022242: 000207              	ret				; ..
;
022244: 010446              	mov	r4,-(r6)		; &.
022246: 010402              	mov	r4,r2			; ..
022250: 062702 000032       	add	#32,r2			; Be..
022254: 032712 000100       	bit	#100,(r2)		; J5@.
022260: 001405              	beq	22274			; ..
022262: 012700 030027       	mov	#30027,r0		; @..0
022266: 005763 000074       	tst	74(r3)			; s.<.
022272: 001757              	beq	22232			; o.
022274: 004773 000044       	call	@44(r3)			; {.$.
022300: 012604              	mov	(r6)+,r4		; ..
022302: 103753              	bcs	22232			; k.
022304: 032763 000001 000004	bit	#1,4(r3)		; s5....
022312: 001004              	bne	22324			; ..
022314: 042713 000001       	bic	#1,(r3)			; KE..
022320: 004773 000030       	call	@30(r3)			; {...
022324: 032763 000002 000004	bit	#2,4(r3)		; s5....
022332: 001011              	bne	22356			; ..
022334: 032713 000002       	bit	#2,(r3)			; K5..
022340: 001406              	beq	22356			; ..
022342: 052713 000010       	bis	#10,(r3)		; KU..
022346: 042713 000002       	bic	#2,(r3)			; KE..
022352: 004773 000034       	call	@34(r3)			; {...
022356: 010446              	mov	r4,-(r6)		; &.
022360: 016304 000014       	mov	14(r3),r4		; D...
022364: 004773 000042       	call	@42(r3)			; {.".
022370: 012604              	mov	(r6)+,r4		; ..
022372: 010301              	mov	r3,r1			; A.
022374: 062701 000002       	add	#2,r1			; Ae..
022400: 010402              	mov	r4,r2			; ..
022402: 062702 000030       	add	#30,r2			; Be..
022406: 012122              	mov	(r1)+,(r2)+		; R.
022410: 000406              	br	22426			; ..
;
022412: 010401              	mov	r4,r1			; ..
022414: 062701 000030       	add	#30,r1			; Ae..
022420: 010302              	mov	r3,r2			; B.
022422: 062702 000100       	add	#100,r2			; Be@.
022426: 062701 000006       	add	#6,r1			; Ae..
022432: 062702 000006       	add	#6,r2			; Be..
022436: 014142              	mov	-(r1),-(r2)		; b.
022440: 014142              	mov	-(r1),-(r2)		; b.
022442: 014142              	mov	-(r1),-(r2)		; b.
022444: 005000              	clr	r0			; ..
022446: 000671              	br	22232			; 9.
;
022450: 010600              	mov	r6,r0			; ..
022452: 000004              	iot				; ..
022454: 013172 010637       	mov	@(r1)+,@10637(r2)	; z...
022460: 060500              	add	r5,r0			; @a
022462: 005037 060476       	clr	@#60476			; ..>a
022466: 010637 060500       	mov	r6,@#60500		; ..@a
022472: 005037 060474       	clr	@#60474			; ..<a
022476: 013746 060462       	mov	@#60462,-(r6)		; f.2a
022502: 012603              	mov	(r6)+,r3		; ..
022504: 001006              	bne	22522			; ..
022506: 005037 060500       	clr	@#60500			; ..@a
022512: 005737 060474       	tst	@#60474			; _.<a
022516: 001363              	bne	22466			; s.
022520: 000207              	ret				; ..
;
022522: 016346 000122       	mov	122(r3),-(r6)		; f.R.
022526: 032763 000001 000056	bit	#1,56(r3)		; s5....
022534: 001407              	beq	22554			; ..
022536: 042763 000001 000056	bic	#1,56(r3)		; sE....
022544: 010637 060474       	mov	r6,@#60474		; ..<a
022550: 004737 041404       	call	@#41404			; _..C
022554: 032763 000004 000056	bit	#4,56(r3)		; s5....
022562: 001747              	beq	22502			; g.
022564: 042763 000004 000056	bic	#4,56(r3)		; sE....
022572: 010637 060474       	mov	r6,@#60474		; ..<a
022576: 004737 042322       	call	@#42322			; _.RD
022602: 000737              	br	22502			; _.
;
022604: 010637 060502       	mov	r6,@#60502		; ..Ba
022610: 016306 000124       	mov	124(r3),r6		; F.T.
022614: 032763 000002 000056	bit	#2,56(r3)		; s5....
022622: 001407              	beq	22642			; ..
022624: 012605              	mov	(r6)+,r5		; ..
022626: 012604              	mov	(r6)+,r4		; ..
022630: 012603              	mov	(r6)+,r3		; ..
022632: 012602              	mov	(r6)+,r2		; ..
022634: 012601              	mov	(r6)+,r1		; ..
022636: 012600              	mov	(r6)+,r0		; ..
022640: 000207              	ret				; ..
;
022642: 016304 000060       	mov	60(r3),r4		; D.0.
022646: 001010              	bne	22670			; ..
022650: 042763 000002 000056	bic	#2,56(r3)		; sE....
022656: 010663 000124       	mov	r6,124(r3)		; 3.T.
022662: 013706 060502       	mov	@#60502,r6		; F.Ba
022666: 000207              	ret				; ..
;
022670: 052763 000002 000056	bis	#2,56(r3)		; sU....
022676: 011463 000060       	mov	(r4),60(r3)		; 3.0.
022702: 032763 000100 000004	bit	#100,4(r3)		; s5@...
022710: 001403              	beq	22720			; ..
022712: 004737 044266       	call	@#44266			; _.6H
022716: 000751              	br	22642			; i.
;
022720: 004737 041554       	call	@#41554			; _.lC
022724: 000746              	br	22642			; f.
;
022726: 010046              	mov	r0,-(r6)		; &.
022730: 010146              	mov	r1,-(r6)		; f.
022732: 010246              	mov	r2,-(r6)		; &.
022734: 010346              	mov	r3,-(r6)		; f.
022736: 010446              	mov	r4,-(r6)		; &.
022740: 010546              	mov	r5,-(r6)		; f.
022742: 010663 000124       	mov	r6,124(r3)		; 3.T.
022746: 013706 060502       	mov	@#60502,r6		; F.Ba
022752: 000207              	ret				; ..
;
022754: 016463 000046 000062	mov	46(r4),62(r3)		; 3.&.2.
022762: 005063 000064       	clr	64(r3)			; 3.4.
022766: 032764 000200 000006	bit	#200,6(r4)		; t5....
022774: 001411              	beq	23020			; ..
022776: 016463 000034 000062	mov	34(r4),62(r3)		; 3...2.
023004: 016463 000046 000064	mov	46(r4),64(r3)		; 3.&.4.
023012: 166463 000034 000064	sub	34(r4),64(r3)		; 3m..4.
023020: 005064 000016       	clr	16(r4)			; 4...
023024: 013700 111312       	mov	@#111312,r0		; @.J.
023030: 152760 000004 000030	bisb	#4,30(r0)		; pU....
023036: 012737 077406 177602	mov	#77406,@#177602		; _.....
023044: 016446 000044       	mov	44(r4),-(r6)		; &.$.
023050: 016446 000042       	mov	42(r4),-(r6)		; &.".
023054: 012746 000001       	mov	#1,-(r6)		; f...
023060: 004737 045400       	call	@#45400			; _..K
023064: 012602              	mov	(r6)+,r2		; ..
023066: 012637 177642       	mov	(r6)+,@#177642		; ..".
023072: 016305 000052       	mov	52(r3),r5		; E.*.
023076: 016501 000006       	mov	6(r5),r1		; A...
023102: 000463              	br	23252			; 3.
;
023104: 005715              	tst	(r5)			; M.
023106: 001040              	bne	23210			;  .
023110: 016501 000010       	mov	10(r5),r1		; A...
023114: 026301 000062       	cmp	62(r3),r1		; A,2.
023120: 002002              	bge	23126			; ..
023122: 016301 000062       	mov	62(r3),r1		; A.2.
023126: 010163 000054       	mov	r1,54(r3)		; s.,.
023132: 004737 042236       	call	@#42236			; _..D
023136: 001024              	bne	23210			; ..
023140: 013746 177642       	mov	@#177642,-(r6)		; f.".
023144: 013700 111312       	mov	@#111312,r0		; @.J.
023150: 142760 000004 000030	bicb	#4,30(r0)		; pE....
023156: 004737 041526       	call	@#41526			; _.VC
023162: 013700 111312       	mov	@#111312,r0		; @.J.
023166: 152760 000004 000030	bisb	#4,30(r0)		; pU....
023174: 012737 077406 177602	mov	#77406,@#177602		; _.....
023202: 012637 177642       	mov	(r6)+,@#177642		; ..".
023206: 000751              	br	23132			; i.
;
023210: 016300 000062       	mov	62(r3),r0		; @.2.
023214: 021500              	cmp	(r5),r0			; @#
023216: 002001              	bge	23222			; ..
023220: 011500              	mov	(r5),r0			; @.
023222: 112122              	movb	(r1)+,(r2)+		; R.
023224: 005363 000062       	dec	62(r3)			; s.2.
023230: 005315              	dec	(r5)			; M.
023232: 005264 000016       	inc	16(r4)			; 4...
023236: 062765 000002 000006	add	#2,6(r5)		; ue....
023244: 105721              	tstb	(r1)+			; Q.
023246: 001036              	bne	23344			; ..
023250: 077014              	sob	r0,23222		; .~
023252: 005763 000062       	tst	62(r3)			; s.2.
023256: 001312              	bne	23104			; J.
023260: 016300 000064       	mov	64(r3),r0		; @.4.
023264: 001425              	beq	23340			; ..
023266: 005715              	tst	(r5)			; M.
023270: 001003              	bne	23300			; ..
023272: 004737 042236       	call	@#42236			; _..D
023276: 001420              	beq	23340			; ..
023300: 021500              	cmp	(r5),r0			; @#
023302: 003001              	bgt	23306			; ..
023304: 011500              	mov	(r5),r0			; @.
023306: 112122              	movb	(r1)+,(r2)+		; R.
023310: 005363 000064       	dec	64(r3)			; s.4.
023314: 005315              	dec	(r5)			; M.
023316: 005264 000016       	inc	16(r4)			; 4...
023322: 062765 000002 000006	add	#2,6(r5)		; ue....
023330: 105721              	tstb	(r1)+			; Q.
023332: 001004              	bne	23344			; ..
023334: 077014              	sob	r0,23306		; .~
023336: 000750              	br	23260			; h.
;
023340: 005000              	clr	r0			; ..
023342: 000423              	br	23412			; ..
;
023344: 106341              	aslb	-(r1)			; a.
023346: 012700 030026       	mov	#30026,r0		; @..0
023352: 106311              	aslb	(r1)			; I.
023354: 103416              	bcs	23412			; ..
023356: 012700 030031       	mov	#30031,r0		; @..0
023362: 106311              	aslb	(r1)			; I.
023364: 103412              	bcs	23412			; ..
023366: 012700 030016       	mov	#30016,r0		; @..0
023372: 106311              	aslb	(r1)			; I.
023374: 103406              	bcs	23412			; ..
023376: 012700 030025       	mov	#30025,r0		; @..0
023402: 106311              	aslb	(r1)			; I.
023404: 103402              	bcs	23412			; ..
023406: 012700 034000       	mov	#34000,r0		; @..8
023412: 013701 111312       	mov	@#111312,r1		; A.J.
023416: 142761 000004 000030	bicb	#4,30(r1)		; qE....
023424: 010064 000014       	mov	r0,14(r4)		; 4...
023430: 004737 045252       	call	@#45252			; _.*J
023434: 000207              	ret				; ..
;
023436: 005015              	clr	(r5)			; ..
023440: 016565 000004 000006	mov	4(r5),6(r5)		; u.....
023446: 016346 000050       	mov	50(r3),-(r6)		; f.(.
023452: 010563 000050       	mov	r5,50(r3)		; s.(.
023456: 011663 000052       	mov	(r6),52(r3)		; 3.*.
023462: 012605              	mov	(r6)+,r5		; ..
023464: 032713 000002       	bit	#2,(r3)			; K5..
023470: 001406              	beq	23506			; ..
023472: 042713 000002       	bic	#2,(r3)			; KE..
023476: 052713 000010       	bis	#10,(r3)		; KU..
023502: 004773 000034       	call	@34(r3)			; {...
023506: 016501 000004       	mov	4(r5),r1		; A...
023512: 010165 000006       	mov	r1,6(r5)		; u...
023516: 005715              	tst	(r5)			; M.
023520: 000207              	ret				; ..
;
023522: 032763 000010 000056	bit	#10,56(r3)		; s5....
023530: 001425              	beq	23604			; ..
023532: 005763 000112       	tst	112(r3)			; s.J.
023536: 001075              	bne	23732			; =.
023540: 032713 000200       	bit	#200,(r3)		; K5..
023544: 001406              	beq	23562			; ..
023546: 042713 000300       	bic	#300,(r3)		; KE@.
023552: 052763 000001 000056	bis	#1,56(r3)		; sU....
023560: 000411              	br	23604			; ..
;
023562: 016304 000110       	mov	110(r3),r4		; D.H.
023566: 016464 000046 000016	mov	46(r4),16(r4)		; 4.&...
023574: 005064 000014       	clr	14(r4)			; 4...
023600: 004737 045252       	call	@#45252			; _.*J
023604: 016304 000106       	mov	106(r3),r4		; D.F.
023610: 001413              	beq	23640			; ..
023612: 011463 000106       	mov	(r4),106(r3)		; 3.F.
023616: 010463 000110       	mov	r4,110(r3)		; 3.H.
023622: 016405 000046       	mov	46(r4),r5		; ..&.
023626: 016402 000044       	mov	44(r4),r2		; ..$.
023632: 016401 000042       	mov	42(r4),r1		; ..".
023636: 000414              	br	23670			; ..
;
023640: 032713 000100       	bit	#100,(r3)		; K5@.
023644: 001433              	beq	23734			; ..
023646: 052713 000200       	bis	#200,(r3)		; KU..
023652: 010301              	mov	r3,r1			; A.
023654: 062701 000120       	add	#120,r1			; AeP.
023660: 013702 177646       	mov	@#177646,r2		; B.&.
023664: 012705 000001       	mov	#1,r5			; E...
023670: 052763 000010 000056	bis	#10,56(r3)		; sU....
023676: 010246              	mov	r2,-(r6)		; &.
023700: 010146              	mov	r1,-(r6)		; f.
023702: 012746 000001       	mov	#1,-(r6)		; f...
023706: 004737 045400       	call	@#45400			; _..K
023712: 012663 000114       	mov	(r6)+,114(r3)		; 3.L.
023716: 012663 000116       	mov	(r6)+,116(r3)		; 3.N.
023722: 010563 000112       	mov	r5,112(r3)		; s.J.
023726: 004773 000026       	call	@26(r3)			; {...
023732: 000207              	ret				; ..
;
023734: 042763 000010 000056	bic	#10,56(r3)		; sE....
023742: 000207              	ret				; ..
;
023744: 032763 000001 000004	bit	#1,4(r3)		; s5....
023752: 001421              	beq	24016			; ..
023754: 010446              	mov	r4,-(r6)		; &.
023756: 042716 177600       	bic	#177600,(r6)		; NE..
023762: 162716 000021       	sub	#21,(r6)		; Ne..
023766: 006016              	ror	(r6)			; ..
023770: 006026              	ror	(r6)+			; ..
023772: 001011              	bne	24016			; ..
023774: 103405              	bcs	24010			; ..
023776: 042713 000001       	bic	#1,(r3)			; KE..
024002: 004773 000032       	call	@32(r3)			; {...
024006: 000207              	ret				; ..
;
024010: 052713 000001       	bis	#1,(r3)			; KU..
024014: 000207              	ret				; ..
;
024016: 010446              	mov	r4,-(r6)		; &.
024020: 016304 000050       	mov	50(r3),r4		; D.(.
024024: 021464 000002       	cmp	(r4),2(r4)		; 4#..
024030: 001010              	bne	24052			; ..
024032: 010416              	mov	r4,(r6)			; ..
024034: 016404 000006       	mov	6(r4),r4		; ....
024040: 152764 000010 177777	bisb	#10,177777(r4)		; tU....
024046: 012604              	mov	(r6)+,r4		; ..
024050: 000427              	br	24130			; ..
;
024052: 012674 000006       	mov	(r6)+,@6(r4)		; <...
024056: 062764 000002 000006	add	#2,6(r4)		; te....
024064: 005214              	inc	(r4)			; ..
024066: 021464 000010       	cmp	(r4),10(r4)		; 4#..
024072: 002412              	blt	24120			; ..
024074: 032763 000002 000004	bit	#2,4(r3)		; s5....
024102: 001406              	beq	24120			; ..
024104: 052713 000004       	bis	#4,(r3)			; KU..
024110: 052713 000002       	bis	#2,(r3)			; KU..
024114: 004773 000036       	call	@36(r3)			; {...
024120: 021463 000054       	cmp	(r4),54(r3)		; 3#,.
024124: 002001              	bge	24130			; ..
024126: 000207              	ret				; ..
;
024130: 016446 000002       	mov	2(r4),-(r6)		; &...
024134: 005216              	inc	(r6)			; ..
024136: 012663 000054       	mov	(r6)+,54(r3)		; 3.,.
024142: 052763 000001 000056	bis	#1,56(r3)		; sU....
024150: 000137 043120       	jmp	@#43120			; _.PF
;
024154: 032713 000004       	bit	#4,(r3)			; K5..
024160: 001405              	beq	24174			; ..
024162: 042713 000004       	bic	#4,(r3)			; KE..
024166: 012704 000023       	mov	#23,r4			; D...
024172: 000442              	br	24300			; ".
;
024174: 032713 000010       	bit	#10,(r3)		; K5..
024200: 001405              	beq	24214			; ..
024202: 042713 000010       	bic	#10,(r3)		; KE..
024206: 012704 000021       	mov	#21,r4			; D...
024212: 000432              	br	24300			; ..
;
024214: 032713 000001       	bit	#1,(r3)			; K5..
024220: 001032              	bne	24306			; ..
024222: 005763 000112       	tst	112(r3)			; s.J.
024226: 001427              	beq	24306			; ..
024230: 013746 172342       	mov	@#172342,-(r6)		; f.bt
024234: 016337 000116 172342	mov	116(r3),@#172342	; _.N.bt
024242: 117304 000114       	movb	@114(r3),r4		; D.L.
024246: 012637 172342       	mov	(r6)+,@#172342		; ..bt
024252: 005363 000112       	dec	112(r3)			; s.J.
024256: 001403              	beq	24266			; ..
024260: 005263 000114       	inc	114(r3)			; 3.L.
024264: 000405              	br	24300			; ..
;
024266: 052763 000004 000056	bis	#4,56(r3)		; sU....
024274: 010637 060472       	mov	r6,@#60472		; ..:a
024300: 005727 000261       	tst	#261			; W.1.
024304: 000207              	ret				; ..
;
024306: 004773 000040       	call	@40(r3)			; {. .
024312: 005737 060472       	tst	@#60472			; _.:a
024316: 001771              	beq	24302			; y.
024320: 005237 060466       	inc	@#60466			; ..6a
024324: 001015              	bne	24360			; ..
024326: 005037 060472       	clr	@#60472			; ..:a
024332: 005737 060474       	tst	@#60474			; _.<a
024336: 001010              	bne	24360			; ..
024340: 005737 060476       	tst	@#60476			; _.>a
024344: 001005              	bne	24360			; ..
024346: 005737 060500       	tst	@#60500			; _.@a
024352: 001405              	beq	24366			; ..
024354: 010637 060474       	mov	r6,@#60474		; ..<a
024360: 005337 060466       	dec	@#60466			; _.6a
024364: 000746              	br	24302			; f.
;
024366: 010637 060476       	mov	r6,@#60476		; ..>a
024372: 062716 000002       	add	#2,(r6)			; Ne..
024376: 012663 000046       	mov	(r6)+,46(r3)		; 3.&.
024402: 004737 002314       	call	@#2314			; _.L.
024406: 013746 060470       	mov	@#60470,-(r6)		; f.8a
024412: 012746 060446       	mov	#60446,-(r6)		; f.&a
024416: 010600              	mov	r6,r0			; ..
024420: 000004              	iot				; ..
024422: 007744              	invalid opcode			; d.
024424: 012626              	mov	(r6)+,(r6)+		; ..
024426: 005337 060466       	dec	@#60466			; _.6a
024432: 000261              	sec				; 1.
024434: 000173 000046       	jmp	@46(r3)			; {.&.
;
024440: 012663 000076       	mov	(r6)+,76(r3)		; 3.>.
024444: 005763 000100       	tst	100(r3)			; s.@.
024450: 001416              	beq	24506			; ..
024452: 004737 002314       	call	@#2314			; _.L.
024456: 103413              	bcs	24506			; ..
024460: 010304              	mov	r3,r4			; D.
024462: 062704 000100       	add	#100,r4			; De@.
024466: 010446              	mov	r4,-(r6)		; &.
024470: 010600              	mov	r6,r0			; ..
024472: 000004              	iot				; ..
024474: 010116              	mov	r1,(r6)			; N.
024476: 005226              	inc	(r6)+			; ..
024500: 103002              	bcc	24506			; ..
024502: 005063 000100       	clr	100(r3)			; 3.@.
024506: 000173 000076       	jmp	@76(r3)			; {.>.
;
024512: 022525              	cmp	(r5)+,(r5)+		; U%
024514: 012504              	mov	(r5)+,r4		; D.
024516: 012503              	mov	(r5)+,r3		; C.
024520: 010314              	mov	r3,(r4)			; L.
024522: 012501              	mov	(r5)+,r1		; A.
024524: 010164 000002       	mov	r1,2(r4)		; t...
024530: 012502              	mov	(r5)+,r2		; B.
024532: 022725 000001       	cmp	#1,(r5)+		; U%..
024536: 001073              	bne	24726			; ;.
024540: 005046              	clr	-(r6)			; &.
024542: 012746 044140       	mov	#44140,-(r6)		; f.`H
024546: 016546 000002       	mov	2(r5),-(r6)		; f...
024552: 010346              	mov	r3,-(r6)		; f.
024554: 010246              	mov	r2,-(r6)		; &.
024556: 010146              	mov	r1,-(r6)		; f.
024560: 010600              	mov	r6,r0			; ..
024562: 000004              	iot				; ..
024564: 011012              	mov	(r0),(r2)		; ..
024566: 012626              	mov	(r6)+,(r6)+		; ..
024570: 012626              	mov	(r6)+,(r6)+		; ..
024572: 012626              	mov	(r6)+,(r6)+		; ..
024574: 103456              	bcs	24732			; ..
024576: 010446              	mov	r4,-(r6)		; &.
024600: 010346              	mov	r3,-(r6)		; f.
024602: 062701 000004       	add	#4,r1			; Ae..
024606: 005046              	clr	-(r6)			; &.
024610: 012746 044230       	mov	#44230,-(r6)		; f..H
024614: 016546 000002       	mov	2(r5),-(r6)		; f...
024620: 010346              	mov	r3,-(r6)		; f.
024622: 010246              	mov	r2,-(r6)		; &.
024624: 010146              	mov	r1,-(r6)		; f.
024626: 010600              	mov	r6,r0			; ..
024630: 000004              	iot				; ..
024632: 011012              	mov	(r0),(r2)		; ..
024634: 012626              	mov	(r6)+,(r6)+		; ..
024636: 012626              	mov	(r6)+,(r6)+		; ..
024640: 012626              	mov	(r6)+,(r6)+		; ..
024642: 103433              	bcs	24732			; ..
024644: 012704 045556       	mov	#45556,r4		; D.nK
024650: 004737 040316       	call	@#40316			; _.N@
024654: 011663 000014       	mov	(r6),14(r3)		; 3...
024660: 062716 000004       	add	#4,(r6)			; Ne..
024664: 011663 000020       	mov	(r6),20(r3)		; 3...
024670: 062716 000002       	add	#2,(r6)			; Ne..
024674: 012663 000016       	mov	(r6)+,16(r3)		; 3...
024700: 012663 000012       	mov	(r6)+,12(r3)		; 3...
024704: 010502              	mov	r5,r2			; B.
024706: 004773 000044       	call	@44(r3)			; {.$.
024712: 103407              	bcs	24732			; ..
024714: 062705 000004       	add	#4,r5			; Ee..
024720: 012563 000010       	mov	(r5)+,10(r3)		; s...
024724: 000207              	ret				; ..
;
024726: 012700 034033       	mov	#34033,r0		; @..8
024732: 004737 045162       	call	@#45162			; _.rJ
024736: 010301              	mov	r3,r1			; A.
024740: 062701 000004       	add	#4,r1			; Ae..
024744: 012221              	mov	(r2)+,(r1)+		; ..
024746: 012211              	mov	(r2)+,(r1)		; ..
024750: 032721 001000       	bit	#1000,(r1)+		; Q5..
024754: 001401              	beq	24760			; ..
024756: 011211              	mov	(r2),(r1)		; ..
024760: 005741              	tst	-(r1)			; a.
024762: 016304 000020       	mov	20(r3),r4		; D...
024766: 032711 000400       	bit	#400,(r1)		; I5..
024772: 001403              	beq	25002			; ..
024774: 052714 000001       	bis	#1,(r4)			; LU..
025000: 000402              	br	25006			; ..
;
025002: 042714 000001       	bic	#1,(r4)			; LE..
025006: 032711 001000       	bit	#1000,(r1)		; I5..
025012: 001456              	beq	25150			; ..
025014: 016302 000010       	mov	10(r3),r2		; B...
025020: 010546              	mov	r5,-(r6)		; f.
025022: 012705 045576       	mov	#45576,r5		; E.~K
025026: 122763 000003 000003	cmpb	#3,3(r3)		; s%....
025034: 001426              	beq	25112			; ..
025036: 122763 000004 000003	cmpb	#4,3(r3)		; s%....
025044: 001004              	bne	25056			; ..
025046: 052737 000010 177540	bis	#10,@#177540		; _U..`.
025054: 000416              	br	25112			; ..
;
025056: 122763 000001 000003	cmpb	#1,3(r3)		; s%....
025064: 001410              	beq	25106			; ..
025066: 122763 000002 000003	cmpb	#2,3(r3)		; s%....
025074: 001404              	beq	25106			; ..
025076: 012700 030027       	mov	#30027,r0		; @..0
025102: 012605              	mov	(r6)+,r5		; ..
025104: 000460              	br	25246			; 0.
;
025106: 012705 045646       	mov	#45646,r5		; E.&K
025112: 020227 000023       	cmp	r2,#23			; . ..
025116: 003367              	bgt	25076			; w.
025120: 006302              	asl	r2			; B.
025122: 060205              	add	r2,r5			; .`
025124: 011502              	mov	(r5),r2			; B.
025126: 020227 177777       	cmp	r2,#177777		; . ..
025132: 001761              	beq	25076			; q.
025134: 042714 177472       	bic	#177472,(r4)		; LE:.
025140: 050214              	bis	r2,(r4)			; .P
025142: 012605              	mov	(r6)+,r5		; ..
025144: 042711 001000       	bic	#1000,(r1)		; IE..
025150: 162704 000004       	sub	#4,r4			; De..
025154: 012700 000100       	mov	#100,r0			; @.@.
025160: 122763 000001 000003	cmpb	#1,3(r3)		; s%....
025166: 001022              	bne	25234			; ..
025170: 032711 000040       	bit	#40,(r1)		; I5 .
025174: 001402              	beq	25202			; ..
025176: 052700 000004       	bis	#4,r0			; @U..
025202: 032711 000020       	bit	#20,(r1)		; I5..
025206: 001402              	beq	25214			; ..
025210: 052700 000002       	bis	#2,r0			; @U..
025214: 032711 000100       	bit	#100,(r1)		; I5@.
025220: 001405              	beq	25234			; ..
025222: 052700 000040       	bis	#40,r0			; @U .
025226: 052713 100000       	bis	#100000,(r3)		; KU..
025232: 000402              	br	25240			; ..
;
025234: 042713 100000       	bic	#100000,(r3)		; KE..
025240: 010014              	mov	r0,(r4)			; ..
025242: 005000              	clr	r0			; ..
025244: 005727 000261       	tst	#261			; W.1.
025250: 000207              	ret				; ..
;
025252: 010046              	mov	r0,-(r6)		; &.
025254: 010300              	mov	r3,r0			; @.
025256: 062700 000006       	add	#6,r0			; @e..
025262: 042710 000017       	bic	#17,(r0)		; HE..
025266: 122763 000001 000003	cmpb	#1,3(r3)		; s%....
025274: 001017              	bne	25334			; ..
025276: 032714 020000       	bit	#20000,(r4)		; L5. 
025302: 001402              	beq	25310			; ..
025304: 052710 000004       	bis	#4,(r0)			; HU..
025310: 032714 010000       	bit	#10000,(r4)		; L5..
025314: 001402              	beq	25322			; ..
025316: 052710 000002       	bis	#2,(r0)			; HU..
025322: 032714 040000       	bit	#40000,(r4)		; L5.@
025326: 001402              	beq	25334			; ..
025330: 052710 000001       	bis	#1,(r0)			; HU..
025334: 012600              	mov	(r6)+,r0		; ..
025336: 000207              	ret				; ..
;
025340: 005713              	tst	(r3)			; K.
025342: 100005              	bpl	25356			; ..
025344: 005714              	tst	(r4)			; L.
025346: 100003              	bpl	25356			; ..
025350: 004737 043240       	call	@#43240			; _. F
025354: 000207              	ret				; ..
;
025356: 105714              	tstb	(r4)			; L.
025360: 100017              	bpl	25420			; ..
025362: 016446 000002       	mov	2(r4),-(r6)		; &...
025366: 100402              	bmi	25374			; ..
025370: 005004              	clr	r4			; ..
025372: 000406              	br	25410			; ..
;
025374: 012763 000001 000054	mov	#1,54(r3)		; s...,.
025402: 011604              	mov	(r6),r4			; ..
025404: 042704 107777       	bic	#107777,r4		; DE..
025410: 152604              	bisb	(r6)+,r4		; .U
025412: 004737 042544       	call	@#42544			; _.dE
025416: 000401              	br	25422			; ..
;
025420: 000207              	ret				; ..
;
025422: 016304 000014       	mov	14(r3),r4		; D...
025426: 000744              	br	25340			; d.
;
025430: 004737 042754       	call	@#42754			; _.lE
025434: 103403              	bcs	25444			; ..
025436: 103402              	bcs	25444			; ..
025440: 110473 000016       	movb	r4,@16(r3)		; ;...
025444: 000207              	ret				; ..
;
025446: 042773 000100 000020	bic	#100,@20(r3)		; {E@...
025454: 000207              	ret				; ..
;
025456: 052773 000100 000020	bis	#100,@20(r3)		; {U@...
025464: 000207              	ret				; ..
;
025466: 005763 000066       	tst	66(r3)			; s.6.
025472: 001151              	bne	26016			; i.
025474: 016305 000052       	mov	52(r3),r5		; E.*.
025500: 016501 000006       	mov	6(r5),r1		; A...
025504: 016302 000072       	mov	72(r3),r2		; B.:.
025510: 010263 000070       	mov	r2,70(r3)		; 3.8.
025514: 005715              	tst	(r5)			; M.
025516: 001011              	bne	25542			; ..
025520: 012763 000001 000054	mov	#1,54(r3)		; s...,.
025526: 004737 042236       	call	@#42236			; _..D
025532: 001003              	bne	25542			; ..
025534: 004737 041526       	call	@#41526			; _.VC
025540: 000772              	br	25526			; z.
;
025542: 005315              	dec	(r5)			; M.
025544: 005265 000006       	inc	6(r5)			; 5...
025550: 112100              	movb	(r1)+,r0		; @.
025552: 105721              	tstb	(r1)+			; Q.
025554: 001357              	bne	25514			; o.
025556: 120027 000177       	cmpb	r0,#177			; . ..
025562: 001011              	bne	25606			; ..
025564: 005763 000066       	tst	66(r3)			; s.6.
025570: 001751              	beq	25514			; i.
025572: 005363 000066       	dec	66(r3)			; s.6.
025576: 005302              	dec	r2			; B.
025600: 004737 044752       	call	@#44752			; _.jI
025604: 000743              	br	25514			; c.
;
025606: 120027 000015       	cmpb	r0,#15			; . ..
025612: 001013              	bne	25642			; ..
025614: 112762 000012 000001	movb	#12,1(r2)		; r.....
025622: 005263 000066       	inc	66(r3)			; 3.6.
025626: 110022              	movb	r0,(r2)+		; ..
025630: 005263 000066       	inc	66(r3)			; 3.6.
025634: 004737 044752       	call	@#44752			; _.jI
025640: 000466              	br	26016			; 6.
;
025642: 120027 000032       	cmpb	r0,#32			; . ..
025646: 001767              	beq	25626			; w.
025650: 120027 000025       	cmpb	r0,#25			; . ..
025654: 001007              	bne	25674			; ..
025656: 005063 000066       	clr	66(r3)			; 3.6.
025662: 016302 000070       	mov	70(r3),r2		; B.8.
025666: 004737 044752       	call	@#44752			; _.jI
025672: 000710              	br	25514			; H.
;
025674: 120027 000022       	cmpb	r0,#22			; . ..
025700: 001016              	bne	25736			; ..
025702: 004737 044752       	call	@#44752			; _.jI
025706: 010146              	mov	r1,-(r6)		; f.
025710: 016301 000066       	mov	66(r3),r1		; A.6.
025714: 001406              	beq	25732			; ..
025716: 016302 000070       	mov	70(r3),r2		; B.8.
025722: 112200              	movb	(r2)+,r0		; ..
025724: 004737 044752       	call	@#44752			; _.jI
025730: 077104              	sob	r1,25722		; D~
025732: 012601              	mov	(r6)+,r1		; ..
025734: 000667              	br	25514			; 7.
;
025736: 016346 000074       	mov	74(r3),-(r6)		; f.<.
025742: 162716 000010       	sub	#10,(r6)		; Ne..
025746: 026316 000066       	cmp	66(r3),(r6)		; N,6.
025752: 002406              	blt	25770			; ..
025754: 010046              	mov	r0,-(r6)		; &.
025756: 012700 000007       	mov	#7,r0			; @...
025762: 004737 045130       	call	@#45130			; _.XJ
025766: 012600              	mov	(r6)+,r0		; ..
025770: 062716 000006       	add	#6,(r6)			; Ne..
025774: 026326 000066       	cmp	66(r3),(r6)+		; V,6.
026000: 003006              	bgt	26016			; ..
026002: 110022              	movb	r0,(r2)+		; ..
026004: 005263 000066       	inc	66(r3)			; 3.6.
026010: 004737 044752       	call	@#44752			; _.jI
026014: 000637              	br	25514			; ..
;
026016: 013700 111312       	mov	@#111312,r0		; @.J.
026022: 152760 000004 000030	bisb	#4,30(r0)		; pU....
026030: 012737 077406 177602	mov	#77406,@#177602		; _.....
026036: 016446 000044       	mov	44(r4),-(r6)		; &.$.
026042: 016446 000042       	mov	42(r4),-(r6)		; &.".
026046: 012746 000001       	mov	#1,-(r6)		; f...
026052: 004737 045400       	call	@#45400			; _..K
026056: 012602              	mov	(r6)+,r2		; ..
026060: 012637 177642       	mov	(r6)+,@#177642		; ..".
026064: 016301 000070       	mov	70(r3),r1		; A.8.
026070: 016400 000046       	mov	46(r4),r0		; ..&.
026074: 020063 000066       	cmp	r0,66(r3)		; 3 6.
026100: 003402              	ble	26106			; ..
026102: 016300 000066       	mov	66(r3),r0		; @.6.
026106: 160063 000066       	sub	r0,66(r3)		; 3`6.
026112: 060063 000070       	add	r0,70(r3)		; 3`8.
026116: 010064 000016       	mov	r0,16(r4)		; 4...
026122: 112122              	movb	(r1)+,(r2)+		; R.
026124: 077002              	sob	r0,26122		; .~
026126: 013700 111312       	mov	@#111312,r0		; @.J.
026132: 142760 000004 000030	bicb	#4,30(r0)		; pE....
026140: 005064 000014       	clr	14(r4)			; 4...
026144: 004737 045252       	call	@#45252			; _.*J
026150: 000207              	ret				; ..
;
026152: 032763 000200 000004	bit	#200,4(r3)		; s5....
026160: 001462              	beq	26326			; 2.
026162: 120027 000177       	cmpb	r0,#177			; . ..
026166: 001013              	bne	26216			; ..
026170: 112700 000010       	movb	#10,r0			; @...
026174: 004737 045130       	call	@#45130			; _.XJ
026200: 112700 000040       	movb	#40,r0			; @. .
026204: 004737 045130       	call	@#45130			; _.XJ
026210: 112700 000010       	movb	#10,r0			; @...
026214: 000442              	br	26322			; ".
;
026216: 120027 000025       	cmpb	r0,#25			; . ..
026222: 001406              	beq	26240			; ..
026224: 120027 000022       	cmpb	r0,#22			; . ..
026230: 001403              	beq	26240			; ..
026232: 120027 000032       	cmpb	r0,#32			; . ..
026236: 001021              	bne	26302			; ..
026240: 010046              	mov	r0,-(r6)		; &.
026242: 012700 000136       	mov	#136,r0			; @.^.
026246: 004737 045130       	call	@#45130			; _.XJ
026252: 012600              	mov	(r6)+,r0		; ..
026254: 062700 000100       	add	#100,r0			; @e@.
026260: 004737 045130       	call	@#45130			; _.XJ
026264: 012700 000015       	mov	#15,r0			; @...
026270: 004737 045130       	call	@#45130			; _.XJ
026274: 012700 000012       	mov	#12,r0			; @...
026300: 000410              	br	26322			; ..
;
026302: 120027 000015       	cmpb	r0,#15			; . ..
026306: 001770              	beq	26270			; x.
026310: 120027 000040       	cmpb	r0,#40			; .  .
026314: 002002              	bge	26322			; ..
026316: 112700 000040       	movb	#40,r0			; @. .
026322: 004737 045130       	call	@#45130			; _.XJ
026326: 000207              	ret				; ..
;
026330: 110063 000120       	movb	r0,120(r3)		; 3.P.
026334: 052713 000100       	bis	#100,(r3)		; KU@.
026340: 052763 000004 000056	bis	#4,56(r3)		; sU....
026346: 032713 000100       	bit	#100,(r3)		; K5@.
026352: 001765              	beq	26326			; u.
026354: 004737 041526       	call	@#41526			; _.VC
026360: 000772              	br	26346			; z.
;
026362: 010603              	mov	r6,r3			; ..
026364: 010001              	mov	r0,r1			; ..
026366: 000300              	swab	r0			; @.
026370: 042700 177407       	bic	#177407,r0		; @E..
026374: 006200              	asr	r0			; ..
026376: 006200              	asr	r0			; ..
026400: 006200              	asr	r0			; ..
026402: 005002              	clr	r2			; ..
026404: 000261              	sec				; 1.
026406: 006102              	rol	r2			; B.
026410: 077002              	sob	r0,26406		; .~
026412: 010346              	mov	r3,-(r6)		; f.
026414: 012746 000002       	mov	#2,-(r6)		; f...
026420: 010146              	mov	r1,-(r6)		; f.
026422: 010246              	mov	r2,-(r6)		; &.
026424: 010600              	mov	r6,r0			; ..
026426: 000004              	iot				; ..
026430: 015106              	mov	@-(r1),r6		; F.
026432: 012626              	mov	(r6)+,(r6)+		; ..
026434: 012626              	mov	(r6)+,(r6)+		; ..
026436: 010600              	mov	r6,r0			; ..
026440: 000004              	iot				; ..
026442: 015302              	mov	@-(r3),r2		; B.
026444: 010600              	mov	r6,r0			; ..
026446: 000004              	iot				; ..
026450: 013172 010046       	mov	@(r1)+,@10046(r2)	; z.&.
026454: 010146              	mov	r1,-(r6)		; f.
026456: 116400 000005       	movb	5(r4),r0		; ....
026462: 142700 000200       	bicb	#200,r0			; @E..
026466: 120027 000022       	cmpb	r0,#22			; . ..
026472: 002416              	blt	26530			; ..
026474: 010401              	mov	r4,r1			; ..
026476: 062701 000022       	add	#22,r1			; Ae..
026502: 005711              	tst	(r1)			; I.
026504: 001411              	beq	26530			; ..
026506: 032764 020000 000006	bit	#20000,6(r4)		; t5. ..
026514: 001416              	beq	26552			; ..
026516: 010146              	mov	r1,-(r6)		; f.
026520: 010600              	mov	r6,r0			; ..
026522: 000004              	iot				; ..
026524: 010116              	mov	r1,(r6)			; N.
026526: 005226              	inc	(r6)+			; ..
026530: 010446              	mov	r4,-(r6)		; &.
026532: 010600              	mov	r6,r0			; ..
026534: 000004              	iot				; ..
026536: 005254              	inc	@-(r4)			; ,.
026540: 005226              	inc	(r6)+			; ..
026542: 005004              	clr	r4			; ..
026544: 012601              	mov	(r6)+,r1		; ..
026546: 012600              	mov	(r6)+,r0		; ..
026550: 000207              	ret				; ..
;
026552: 112764 000042 000005	movb	#42,5(r4)		; t."...
026560: 010446              	mov	r4,-(r6)		; &.
026562: 010146              	mov	r1,-(r6)		; f.
026564: 010600              	mov	r6,r0			; ..
026566: 000004              	iot				; ..
026570: 007744              	invalid opcode			; d.
026572: 012626              	mov	(r6)+,(r6)+		; ..
026574: 103755              	bcs	26530			; m.
026576: 000761              	br	26542			; q.
;
026600: 010046              	mov	r0,-(r6)		; &.
026602: 016600 000006       	mov	6(r6),r0		; ....
026606: 042766 177700 000006	bic	#177700,6(r6)		; vE@...
026614: 042700 160077       	bic	#160077,r0		; @E?`
026620: 072027 177772       	ash	#177772,r0		; .tz.
026624: 060066 000010       	add	r0,10(r6)		; 6`..
026630: 016600 000004       	mov	4(r6),r0		; ....
026634: 072027 000015       	ash	#15,r0			; .t..
026640: 060066 000006       	add	r0,6(r6)		; 6`..
026644: 012600              	mov	(r6)+,r0		; ..
026646: 012616              	mov	(r6)+,(r6)		; ..
026650: 000207              	ret				; ..
;
026652: 000001              	wait				; ..
026654: 043312              	bic	@(r3)+,(r2)		; JF
026656: 060000              	add	r0,r0			; .`
026660: 176500              	ldexp	f1,r0			; @}
026662: 000300              	swab	r0			; @.
026664: 000200              	rts	r0			; ..
;
026666: 000001              	wait				; ..
026670: 000002              	rti				; ..
;
026672: 060004              	add	r0,r4			; .`
026674: 000004              	iot				; ..
026676: 000020              	invalid opcode			; ..
026700: 060202              	add	r2,r2			; .`
026702: 060254              	add	r2,@-(r4)		; ,`
026704: 060326              	add	r3,(r6)+		; V`
026706: 000120              	jmp	(r0)+			; P.
;
026710: 000303              	swab	r3			; C.
026712: 000000              	halt				; ..
;
026714: 000020              	invalid opcode			; ..
026716: 052044              	bis	(r0)+,-(r4)		; $T
026720: 040524              	bic	r5,(r4)+		; TA
026722: 020040              	cmp	r0,-(r0)		;   
026724: 040660 040660       	bic	r6,40660(r0)		; 0A0A
026730: 041026              	bic	(r0),(r6)+		; .B
026732: 040726              	bic	r7,(r6)+		; VA
026734: 040726              	bic	r7,(r6)+		; VA
026736: 041026              	bic	(r0),(r6)+		; .B
026740: 041044              	bic	(r0),-(r4)		; $B
026742: 041156              	bic	(r1),@-(r6)		; nB
026744: 041026              	bic	(r0),(r6)+		; .B
026746: 041026              	bic	(r0),(r6)+		; .B
026750: 041026              	bic	(r0),(r6)+		; .B
026752: 041212              	bic	(r2),(r2)		; .B
026754: 041256              	bic	(r2),@-(r6)		; .B
026756: 044256              	bic	-(r2),@-(r6)		; .H
026760: 044256              	bic	-(r2),@-(r6)		; .H
026762: 044256              	bic	-(r2),@-(r6)		; .H
026764: 044256              	bic	-(r2),@-(r6)		; .H
026766: 044256              	bic	-(r2),@-(r6)		; .H
026770: 044246              	bic	-(r2),-(r6)		; &H
026772: 044052              	bic	-(r0),@-(r2)		; *H
026774: 043536              	bic	@(r5)+,@(r6)+		; ^G
026776: 177777 177777       	ldcdf	f3,@27001		; ....
027002: 177777 177777       	ldcdf	f3,@27005		; ....
027006: 177777 177777       	ldcdf	f3,@27011		; ....
027012: 177777 000002       	ldcdf	f3,@27020		; ....
027016: 000012              	invalid opcode			; ..
027020: 000022              	invalid opcode			; ..
027022: 177777 177777       	ldcdf	f3,@27025		; ....
027026: 000032              	invalid opcode			; ..
027030: 177777 000042       	ldcdf	f3,@27076		; ..".
027034: 177777 000052       	ldcdf	f3,@27112		; ..*.
027040: 000062              	invalid opcode			; 2.
027042: 000072              	invalid opcode			; :.
027044: 177777 177777       	ldcdf	f3,@27047		; ....
027050: 004000              	jsr	r0,r0			; ..
027052: 014000              	mov	-(r0),r0		; ..
027054: 024000              	cmp	-(r0),r0		; .(
027056: 034000              	bit	-(r0),r0		; .8
027060: 044000              	bic	-(r0),r0		; .H
027062: 177777 054000       	ldcdf	f3,@103066		; ...X
027066: 064000              	add	-(r0),r0		; .h
027070: 074000              	xor	r0,r0			; .x
027072: 104000              	emt	0			; ..
027074: 114000              	movb	-(r0),r0		; ..
027076: 124000              	cmpb	-(r0),r0		; .(
027100: 134000              	bitb	-(r0),r0		; .8
027102: 144000              	bicb	-(r0),r0		; .H
027104: 154000              	bisb	-(r0),r0		; .X
027106: 164000              	sub	-(r0),r0		; .h
027110: 174000              	stf	f0,r0			; .x
027112: 177777 177777       	ldcdf	f3,@27115		; ....
027116: 000000              	halt				; ..
027120: 000000              	halt				; ..
027122: 000000              	halt				; ..
027124: 000000              	halt				; ..
027126: 000000              	halt				; ..
027130: 000000              	halt				; ..
027132: 000000              	halt				; ..
027134: 000000              	halt				; ..
027136: 000000              	halt				; ..
027140: 000000              	halt				; ..
027142: 000000              	halt				; ..
027144: 000000              	halt				; ..
027146: 000000              	halt				; ..
027150: 000000              	halt				; ..
027152: 000000              	halt				; ..
027154: 000000              	halt				; ..
027156: 000000              	halt				; ..
027160: 000000              	halt				; ..
027162: 000000              	halt				; ..
027164: 000000              	halt				; ..
027166: 000000              	halt				; ..
027170: 000000              	halt				; ..
027172: 000000              	halt				; ..
027174: 000000              	halt				; ..
027176: 000000              	halt				; ..
;
027200: 000004              	iot				; ..
027202: 044527 043504       	bic	-(r5),#43504		; WIDG
027206: 052501              	bis	(r5)+,r1		; AU
027210: 001370              	bne	27172			; x.
027212: 000003              	bpt				; ..
027214: 000001              	wait				; ..
027216: 005250              	inc	@-(r0)			; (.
027220: 101354              	bhi	27152			; l.
027222: 101262              	bhi	26770			; 2.
027224: 100330              	bpl	27106			; X.
027226: 101262              	bhi	26774			; 2.
027230: 004324              	jsr	r3,(r4)+		; T.
027232: 101264              	bhi	27004			; 4.
027234: 000000              	halt				; ..
;
027236: 000272              	invalid opcode			; :.
027240: 000472              	br	27426			; :.
;
027242: 000672              	br	27030			; :.
;
027244: 001072              	bne	27432			; :.
027246: 020000              	cmp	r0,r0			; . 
027250: 000000              	halt				; ..
027252: 000000              	halt				; ..
027254: 000000              	halt				; ..
;
027256: 077402              	sob	r4,27254		; ..
027260: 077402              	sob	r4,27256		; ..
027262: 077402              	sob	r4,27260		; ..
027264: 031002              	bit	(r0),r2			; .2
027266: 040406              	bic	r4,r6			; .A
027270: 000000              	halt				; ..
027272: 000000              	halt				; ..
027274: 000000              	halt				; ..
;
027276: 005746              	tst	-(r6)			; f.
027300: 004767 045074       	call	74400			; w.<J
027304: 174046              	stf	f0,-(r6)		; &x
027306: 012700 010222       	mov	#10222,r0		; @...
027312: 012701 177776       	mov	#177776,r1		; A.~.
027316: 152710 000005       	bisb	#5,(r0)			; HU..
027322: 142710 000002       	bicb	#2,(r0)			; HE..
027326: 172437 053770       	ldf	f0,@#53770		; .uxW
027332: 174037 010140       	stf	f0,@#10140		; .x`.
027336: 172427 042165       	ldf	f0,#42165		; .uuD
027342: 174037 010144       	stf	f0,@#10144		; .xd.
027346: 172427 042166       	ldf	f0,#42166		; .uvD
027352: 174037 010150       	stf	f0,@#10150		; .xh.
027356: 172427 041214       	ldf	f0,#41214		; .u.B
027362: 174037 010154       	stf	f0,@#10154		; .xl.
027366: 172427 041160       	ldf	f0,#41160		; .upB
027372: 174037 010160       	stf	f0,@#10160		; .xp.
027376: 172427 041540       	ldf	f0,#41540		; .u`C
027402: 174037 010164       	stf	f0,@#10164		; .xt.
027406: 172427 041030       	ldf	f0,#41030		; .u.B
027412: 174037 010170       	stf	f0,@#10170		; .xx.
027416: 172427 041040       	ldf	f0,#41040		; .u B
027422: 174037 010174       	stf	f0,@#10174		; .x|.
027426: 012737 000012 010210	mov	#12,@#10210		; _.....
027434: 012737 002424 010212	mov	#2424,@#10212		; _.....
027442: 012737 002000 010214	mov	#2000,@#10214		; _.....
027450: 012737 000310 010216	mov	#310,@#10216		; _.H...
027456: 005746              	tst	-(r6)			; f.
027460: 004767 045550       	call	75234			; w.hK
027464: 112605              	movb	(r6)+,r5		; ..
027466: 005705              	tst	r5			; E.
027470: 001072              	bne	27656			; :.
027472: 111003              	movb	(r0),r3			; ..
027474: 040103              	bic	r1,r3			; C@
027476: 110337 100067       	movb	r3,@#100067		; _.7.
027502: 111003              	movb	(r0),r3			; ..
027504: 006203              	asr	r3			; ..
027506: 040103              	bic	r1,r3			; C@
027510: 110337 100066       	movb	r3,@#100066		; _.6.
027514: 111003              	movb	(r0),r3			; ..
027516: 072301              	ash	r1,r3			; At
027520: 040103              	bic	r1,r3			; C@
027522: 110337 100070       	movb	r3,@#100070		; _.8.
027526: 172437 010140       	ldf	f0,@#10140		; .u`.
027532: 174037 100036       	stf	f0,@#100036		; .x..
027536: 172437 010144       	ldf	f0,@#10144		; .ud.
027542: 174037 100026       	stf	f0,@#100026		; .x..
027546: 172437 010150       	ldf	f0,@#10150		; .uh.
027552: 174037 100032       	stf	f0,@#100032		; .x..
027556: 172437 010154       	ldf	f0,@#10154		; .ul.
027562: 174037 100042       	stf	f0,@#100042		; .x".
027566: 172437 010160       	ldf	f0,@#10160		; .up.
027572: 174037 100046       	stf	f0,@#100046		; .x&.
027576: 172437 010164       	ldf	f0,@#10164		; .ut.
027602: 174037 100052       	stf	f0,@#100052		; .x*.
027606: 172437 010170       	ldf	f0,@#10170		; .ux.
027612: 174037 100056       	stf	f0,@#100056		; .x..
027616: 172437 010174       	ldf	f0,@#10174		; .u|.
027622: 174037 100062       	stf	f0,@#100062		; .x2.
027626: 013737 010210 100016	mov	@#10210,@#100016	; _.....
027634: 013737 010212 100020	mov	@#10212,@#100020	; _.....
027642: 013737 010214 100022	mov	@#10214,@#100022	; _.....
027650: 013737 010216 100024	mov	@#10216,@#100024	; _.....
027656: 172426              	ldf	f0,(r6)+		; .u
027660: 004767 044540       	call	74424			; w.`I
027664: 005726              	tst	(r6)+			; V.
027666: 000207              	ret				; ..
;
027670: 105737 100067       	tstb	@#100067		; _.7.
027674: 001006              	bne	27712			; ..
027676: 012746 100156       	mov	#100156,-(r6)		; f.n.
027702: 005046              	clr	-(r6)			; &.
027704: 005046              	clr	-(r6)			; &.
027706: 004767 047022       	call	76734			; w..N
027712: 000207              	ret				; ..
;
027714: 005746              	tst	-(r6)			; f.
027716: 004767 044456       	call	74400			; w..I
027722: 012700 000001       	mov	#1,r0			; @...
027726: 012746 100110       	mov	#100110,-(r6)		; f.H.
027732: 004767 046420       	call	76356			; w..M
027736: 042737 077777 164160	bic	#77777,@#164160		; _E..ph
027744: 052737 100400 164160	bis	#100400,@#164160	; _U..ph
027752: 013705 164162       	mov	@#164162,r5		; E.rh
027756: 016603 000022       	mov	22(r6),r3		; ....
027762: 160003              	sub	r0,r3			; .`
027764: 022703 000017       	cmp	#17,r3			; C%..
027770: 103461              	bcs	30134			; 1.
027772: 006303              	asl	r3			; C.
027774: 000173 053774       	jmp	@53774(r3)		; {.|W
;
030000: 050005              	bis	r0,r5			; .P
030002: 000454              	br	30134			; ,.
;
030004: 052705 000002       	bis	#2,r5			; EU..
030010: 000451              	br	30134			; ).
;
030012: 052705 000004       	bis	#4,r5			; EU..
030016: 000446              	br	30134			; &.
;
030020: 052705 000010       	bis	#10,r5			; EU..
030024: 000443              	br	30134			; #.
;
030026: 052705 000020       	bis	#20,r5			; EU..
030032: 000440              	br	30134			;  .
;
030034: 052705 000040       	bis	#40,r5			; EU .
030040: 000435              	br	30134			; ..
;
030042: 052705 000100       	bis	#100,r5			; EU@.
030046: 000432              	br	30134			; ..
;
030050: 052705 000200       	bis	#200,r5			; EU..
030054: 000427              	br	30134			; ..
;
030056: 052705 000400       	bis	#400,r5			; EU..
030062: 000424              	br	30134			; ..
;
030064: 052705 001000       	bis	#1000,r5		; EU..
030070: 000421              	br	30134			; ..
;
030072: 052705 002000       	bis	#2000,r5		; EU..
030076: 000416              	br	30134			; ..
;
030100: 052705 004000       	bis	#4000,r5		; EU..
030104: 000413              	br	30134			; ..
;
030106: 052705 010000       	bis	#10000,r5		; EU..
030112: 000410              	br	30134			; ..
;
030114: 052705 020000       	bis	#20000,r5		; EU. 
030120: 000405              	br	30134			; ..
;
030122: 052705 040000       	bis	#40000,r5		; EU.@
030126: 000402              	br	30134			; ..
;
030130: 052705 100000       	bis	#100000,r5		; EU..
030134: 010537 164162       	mov	r5,@#164162		; _.rh
030140: 012746 100110       	mov	#100110,-(r6)		; f.H.
030144: 004767 046260       	call	76430			; w.0L
030150: 010076 000020       	mov	r0,@20(r6)		; >...
030154: 004767 044244       	call	74424			; w.$H
030160: 005726              	tst	(r6)+			; V.
030162: 012616              	mov	(r6)+,(r6)		; ..
030164: 012616              	mov	(r6)+,(r6)		; ..
030166: 000207              	ret				; ..
;
030170: 005746              	tst	-(r6)			; f.
030172: 010546              	mov	r5,-(r6)		; f.
030174: 010346              	mov	r3,-(r6)		; f.
030176: 012746 100110       	mov	#100110,-(r6)		; f.H.
030202: 004767 046150       	call	76356			; w.hL
030206: 042737 077777 164160	bic	#77777,@#164160		; _E..ph
030214: 052737 100400 164160	bis	#100400,@#164160	; _U..ph
030222: 013705 164162       	mov	@#164162,r5		; E.rh
030226: 016603 000012       	mov	12(r6),r3		; ....
030232: 162703 000001       	sub	#1,r3			; Ce..
030236: 022703 000017       	cmp	#17,r3			; C%..
030242: 103462              	bcs	30410			; 2.
030244: 006303              	asl	r3			; C.
030246: 000173 054034       	jmp	@54034(r3)		; {..X
;
030252: 042705 000001       	bic	#1,r5			; EE..
030256: 000454              	br	30410			; ,.
;
030260: 042705 000002       	bic	#2,r5			; EE..
030264: 000451              	br	30410			; ).
;
030266: 042705 000004       	bic	#4,r5			; EE..
030272: 000446              	br	30410			; &.
;
030274: 042705 000010       	bic	#10,r5			; EE..
030300: 000443              	br	30410			; #.
;
030302: 042705 000020       	bic	#20,r5			; EE..
030306: 000440              	br	30410			;  .
;
030310: 042705 000040       	bic	#40,r5			; EE .
030314: 000435              	br	30410			; ..
;
030316: 042705 000100       	bic	#100,r5			; EE@.
030322: 000432              	br	30410			; ..
;
030324: 042705 000200       	bic	#200,r5			; EE..
030330: 000427              	br	30410			; ..
;
030332: 042705 000400       	bic	#400,r5			; EE..
030336: 000424              	br	30410			; ..
;
030340: 042705 001000       	bic	#1000,r5		; EE..
030344: 000421              	br	30410			; ..
;
030346: 042705 002000       	bic	#2000,r5		; EE..
030352: 000416              	br	30410			; ..
;
030354: 042705 004000       	bic	#4000,r5		; EE..
030360: 000413              	br	30410			; ..
;
030362: 042705 010000       	bic	#10000,r5		; EE..
030366: 000410              	br	30410			; ..
;
030370: 042705 020000       	bic	#20000,r5		; EE. 
030374: 000405              	br	30410			; ..
;
030376: 042705 040000       	bic	#40000,r5		; EE.@
030402: 000402              	br	30410			; ..
;
030404: 042705 100000       	bic	#100000,r5		; EE..
030410: 010537 164162       	mov	r5,@#164162		; _.rh
030414: 012746 100110       	mov	#100110,-(r6)		; f.H.
030420: 004767 046004       	call	76430			; w..L
030424: 005076 000010       	clr	@10(r6)			; >...
030430: 012603              	mov	(r6)+,r3		; ..
030432: 012605              	mov	(r6)+,r5		; ..
030434: 005726              	tst	(r6)+			; V.
030436: 012616              	mov	(r6)+,(r6)		; ..
030440: 012616              	mov	(r6)+,(r6)		; ..
030442: 000207              	ret				; ..
;
030444: 024646              	cmp	-(r6),-(r6)		; &)
030446: 004767 043726       	call	74400			; w.VG
030452: 012700 000001       	mov	#1,r0			; @...
030456: 012746 100110       	mov	#100110,-(r6)		; f.H.
030462: 004767 045670       	call	76356			; w.8K
030466: 042737 077777 164160	bic	#77777,@#164160		; _E..ph
030474: 013703 164162       	mov	@#164162,r3		; C.rh
030500: 010366 000016       	mov	r3,16(r6)		; v...
030504: 016602 000024       	mov	24(r6),r2		; ....
030510: 160002              	sub	r0,r2			; .`
030512: 022702 000017       	cmp	#17,r2			; B%..
030516: 103002              	bcc	30524			; ..
030520: 000167 000614       	jmp	31340			; w...
;
030524: 006302              	asl	r2			; B.
030526: 000172 054074       	jmp	@54074(r2)		; z.<X
;
030532: 042703 177776       	bic	#177776,r3		; CE~.
030536: 010305              	mov	r3,r5			; E.
030540: 020300              	cmp	r3,r0			; @ 
030542: 001003              	bne	30552			; ..
030544: 010076 000022       	mov	r0,@22(r6)		; >...
030550: 000402              	br	30556			; ..
;
030552: 005076 000022       	clr	@22(r6)			; >...
030556: 000167 000556       	jmp	31340			; w.n.
;
030562: 042703 177775       	bic	#177775,r3		; CE}.
030566: 010305              	mov	r3,r5			; E.
030570: 020327 000002       	cmp	r3,#2			; W ..
030574: 001003              	bne	30604			; ..
030576: 010076 000022       	mov	r0,@22(r6)		; >...
030602: 000402              	br	30610			; ..
;
030604: 005076 000022       	clr	@22(r6)			; >...
030610: 000167 000524       	jmp	31340			; w.T.
;
030614: 042703 177773       	bic	#177773,r3		; CE{.
030620: 010305              	mov	r3,r5			; E.
030622: 020327 000004       	cmp	r3,#4			; W ..
030626: 001003              	bne	30636			; ..
030630: 010076 000022       	mov	r0,@22(r6)		; >...
030634: 000402              	br	30642			; ..
;
030636: 005076 000022       	clr	@22(r6)			; >...
030642: 000167 000472       	jmp	31340			; w.:.
;
030646: 042703 177767       	bic	#177767,r3		; CEw.
030652: 010305              	mov	r3,r5			; E.
030654: 020327 000010       	cmp	r3,#10			; W ..
030660: 001003              	bne	30670			; ..
030662: 010076 000022       	mov	r0,@22(r6)		; >...
030666: 000402              	br	30674			; ..
;
030670: 005076 000022       	clr	@22(r6)			; >...
030674: 000167 000440       	jmp	31340			; w. .
;
030700: 042703 177757       	bic	#177757,r3		; CEo.
030704: 010305              	mov	r3,r5			; E.
030706: 020327 000020       	cmp	r3,#20			; W ..
030712: 001003              	bne	30722			; ..
030714: 010076 000022       	mov	r0,@22(r6)		; >...
030720: 000402              	br	30726			; ..
;
030722: 005076 000022       	clr	@22(r6)			; >...
030726: 000167 000406       	jmp	31340			; w...
;
030732: 042703 177737       	bic	#177737,r3		; CE_.
030736: 010305              	mov	r3,r5			; E.
030740: 020327 000040       	cmp	r3,#40			; W  .
030744: 001003              	bne	30754			; ..
030746: 010076 000022       	mov	r0,@22(r6)		; >...
030752: 000402              	br	30760			; ..
;
030754: 005076 000022       	clr	@22(r6)			; >...
030760: 000567              	br	31340			; w.
;
030762: 042703 177677       	bic	#177677,r3		; CE?.
030766: 010305              	mov	r3,r5			; E.
030770: 020327 000100       	cmp	r3,#100			; W @.
030774: 001003              	bne	31004			; ..
030776: 010076 000022       	mov	r0,@22(r6)		; >...
031002: 000402              	br	31010			; ..
;
031004: 005076 000022       	clr	@22(r6)			; >...
031010: 000553              	br	31340			; k.
;
031012: 042703 177577       	bic	#177577,r3		; CE..
031016: 010305              	mov	r3,r5			; E.
031020: 020327 000200       	cmp	r3,#200			; W ..
031024: 001003              	bne	31034			; ..
031026: 010076 000022       	mov	r0,@22(r6)		; >...
031032: 000402              	br	31040			; ..
;
031034: 005076 000022       	clr	@22(r6)			; >...
031040: 000537              	br	31340			; _.
;
031042: 042703 177377       	bic	#177377,r3		; CE.~
031046: 010305              	mov	r3,r5			; E.
031050: 020327 000400       	cmp	r3,#400			; W ..
031054: 001003              	bne	31064			; ..
031056: 010076 000022       	mov	r0,@22(r6)		; >...
031062: 000402              	br	31070			; ..
;
031064: 005076 000022       	clr	@22(r6)			; >...
031070: 000523              	br	31340			; S.
;
031072: 042703 176777       	bic	#176777,r3		; CE.}
031076: 010305              	mov	r3,r5			; E.
031100: 020327 001000       	cmp	r3,#1000		; W ..
031104: 001003              	bne	31114			; ..
031106: 010076 000022       	mov	r0,@22(r6)		; >...
031112: 000402              	br	31120			; ..
;
031114: 005076 000022       	clr	@22(r6)			; >...
031120: 000507              	br	31340			; G.
;
031122: 042703 175777       	bic	#175777,r3		; CE.{
031126: 010305              	mov	r3,r5			; E.
031130: 020327 002000       	cmp	r3,#2000		; W ..
031134: 001003              	bne	31144			; ..
031136: 010076 000022       	mov	r0,@22(r6)		; >...
031142: 000402              	br	31150			; ..
;
031144: 005076 000022       	clr	@22(r6)			; >...
031150: 000473              	br	31340			; ;.
;
031152: 042703 173777       	bic	#173777,r3		; CE.w
031156: 010305              	mov	r3,r5			; E.
031160: 020327 004000       	cmp	r3,#4000		; W ..
031164: 001003              	bne	31174			; ..
031166: 010076 000022       	mov	r0,@22(r6)		; >...
031172: 000402              	br	31200			; ..
;
031174: 005076 000022       	clr	@22(r6)			; >...
031200: 000457              	br	31340			; /.
;
031202: 042703 167777       	bic	#167777,r3		; CE.o
031206: 010305              	mov	r3,r5			; E.
031210: 020327 010000       	cmp	r3,#10000		; W ..
031214: 001003              	bne	31224			; ..
031216: 010076 000022       	mov	r0,@22(r6)		; >...
031222: 000402              	br	31230			; ..
;
031224: 005076 000022       	clr	@22(r6)			; >...
031230: 000443              	br	31340			; #.
;
031232: 042703 157777       	bic	#157777,r3		; CE._
031236: 010305              	mov	r3,r5			; E.
031240: 020327 020000       	cmp	r3,#20000		; W . 
031244: 001003              	bne	31254			; ..
031246: 010076 000022       	mov	r0,@22(r6)		; >...
031252: 000402              	br	31260			; ..
;
031254: 005076 000022       	clr	@22(r6)			; >...
031260: 000427              	br	31340			; ..
;
031262: 042703 137777       	bic	#137777,r3		; CE.?
031266: 010305              	mov	r3,r5			; E.
031270: 020327 040000       	cmp	r3,#40000		; W .@
031274: 001003              	bne	31304			; ..
031276: 010076 000022       	mov	r0,@22(r6)		; >...
031302: 000402              	br	31310			; ..
;
031304: 005076 000022       	clr	@22(r6)			; >...
031310: 000413              	br	31340			; ..
;
031312: 042703 077777       	bic	#77777,r3		; CE..
031316: 010305              	mov	r3,r5			; E.
031320: 020327 100000       	cmp	r3,#100000		; W ..
031324: 001003              	bne	31334			; ..
031326: 010076 000022       	mov	r0,@22(r6)		; >...
031332: 000402              	br	31340			; ..
;
031334: 005076 000022       	clr	@22(r6)			; >...
031340: 012746 100110       	mov	#100110,-(r6)		; f.H.
031344: 004767 045060       	call	76430			; w.0J
031350: 004767 043050       	call	74424			; w.(F
031354: 022626              	cmp	(r6)+,(r6)+		; .%
031356: 012616              	mov	(r6)+,(r6)		; ..
031360: 012616              	mov	(r6)+,(r6)		; ..
031362: 000207              	ret				; ..
;
031364: 162706 000026       	sub	#26,r6			; Fe..
031370: 004767 043004       	call	74400			; w..F
031374: 174046              	stf	f0,-(r6)		; &x
031376: 174346              	stf	f3,-(r6)		; fx
031400: 172705              	ldf	f3,r5			; Eu
031402: 174346              	stf	f3,-(r6)		; fx
031404: 005076 000060       	clr	@60(r6)			; >.0.
031410: 172476 000062       	ldf	f0,@62(r6)		; >u2.
031414: 175403              		; .{
031416: 010366 000034       	mov	r3,34(r6)		; v...
031422: 010301              	mov	r3,r1			; A.
031424: 006700              	sxt	r0			; @.
031426: 071027 000012       	div	#12,r0			; .r..
031432: 010066 000042       	mov	r0,42(r6)		; 6.".
031436: 010002              	mov	r0,r2			; ..
031440: 162702 000001       	sub	#1,r2			; Be..
031444: 022702 000004       	cmp	#4,r2			; B%..
031450: 103410              	bcs	31472			; ..
031452: 006302              	asl	r2			; B.
031454: 000172 054140       	jmp	@54140(r2)		; z.`X
;
031460: 072027 000014       	ash	#14,r0			; .t..
031464: 010066 000046       	mov	r0,46(r6)		; 6.&.
031470: 000402              	br	31476			; ..
;
031472: 005066 000046       	clr	46(r6)			; 6.&.
031476: 005766 000046       	tst	46(r6)			; v.&.
031502: 003475              	ble	31676			; =.
031504: 016601 000042       	mov	42(r6),r1		; ..".
031510: 070127 000012       	mul	#12,r1			; Wp..
031514: 005401              	neg	r1			; ..
031516: 060301              	add	r3,r1			; A`
031520: 010166 000044       	mov	r1,44(r6)		; v.$.
031524: 072127 000010       	ash	#10,r1			; Wt..
031530: 010166 000050       	mov	r1,50(r6)		; v.(.
031534: 105737 100070       	tstb	@#100070		; _.8.
031540: 001411              	beq	31564			; ..
031542: 177003              	ldcif	f0,r3			; .~
031544: 170700              	negf	r0			; @q
031546: 172076 000062       	addf	f0,@62(r6)		; >t2.
031552: 171027 041200       	mult	f0,#41200		; .r.B
031556: 174005              	stf	f0,r5			; .x
031560: 172405              	ldf	f0,r5			; .u
031562: 000412              	br	31610			; ..
;
031564: 177003              	ldcif	f0,r3			; .~
031566: 170700              	negf	r0			; @q
031570: 172076 000062       	addf	f0,@62(r6)		; >t2.
031574: 172037 054134       	addf	f0,@#54134		; .t\X
031600: 174005              	stf	f0,r5			; .x
031602: 172405              	ldf	f0,r5			; .u
031604: 171027 041710       	mult	f0,#41710		; .rHC
031610: 175403              		; .{
031612: 010305              	mov	r3,r5			; E.
031614: 010503              	mov	r5,r3			; C.
031616: 006702              	sxt	r2			; B.
031620: 071227 000012       	div	#12,r2			; .r..
031624: 010266 000040       	mov	r2,40(r6)		; 6. .
031630: 010203              	mov	r2,r3			; ..
031632: 072327 000004       	ash	#4,r3			; Wt..
031636: 010366 000052       	mov	r3,52(r6)		; v.*.
031642: 070227 000012       	mul	#12,r2			; .p..
031646: 005403              	neg	r3			; ..
031650: 060503              	add	r5,r3			; Ca
031652: 010366 000054       	mov	r3,54(r6)		; v.,.
031656: 066603 000052       	add	52(r6),r3		; .m*.
031662: 060301              	add	r3,r1			; A`
031664: 066601 000046       	add	46(r6),r1		; .m&.
031670: 010176 000060       	mov	r1,@60(r6)		; ~.0.
031674: 000402              	br	31702			; ..
;
031676: 005076 000060       	clr	@60(r6)			; >.0.
031702: 172726              	ldf	f3,(r6)+		; Vu
031704: 174305              	stf	f3,r5			; Ex
031706: 172726              	ldf	f3,(r6)+		; Vu
031710: 172426              	ldf	f0,(r6)+		; .u
031712: 004767 042506       	call	74424			; w.FE
031716: 062706 000026       	add	#26,r6			; Fe..
031722: 012616              	mov	(r6)+,(r6)		; ..
031724: 012616              	mov	(r6)+,(r6)		; ..
031726: 000207              	ret				; ..
;
031730: 005746              	tst	-(r6)			; f.
031732: 012700 100000       	mov	#100000,r0		; @...
031736: 012701 100072       	mov	#100072,r1		; A.:.
031742: 004767 032026       	call	63774			; w..4
031746: 010146              	mov	r1,-(r6)		; f.
031750: 004767 044402       	call	76356			; w..I
031754: 011046              	mov	(r0),-(r6)		; &.
031756: 004767 035570       	call	67552			; w.x;
031762: 011003              	mov	(r0),r3			; ..
031764: 005763 000002       	tst	2(r3)			; s...
031770: 100430              	bmi	32052			; ..
031772: 011046              	mov	(r0),-(r6)		; &.
031774: 004767 041304       	call	73304			; w.DB
032000: 004767 042436       	call	74442			; w..E
032004: 112616              	movb	(r6)+,(r6)		; ..
032006: 004767 042466       	call	74500			; w.6E
032012: 010146              	mov	r1,-(r6)		; f.
032014: 004767 044410       	call	76430			; w..I
032020: 012746 100142       	mov	#100142,-(r6)		; f.b.
032024: 005046              	clr	-(r6)			; &.
032026: 005046              	clr	-(r6)			; &.
032030: 004767 044644       	call	76700			; w.$I
032034: 012746 100172       	mov	#100172,-(r6)		; f.z.
032040: 005046              	clr	-(r6)			; &.
032042: 005046              	clr	-(r6)			; &.
032044: 004767 044664       	call	76734			; w.4I
032050: 000443              	br	32160			; #.
;
032052: 012746 000030       	mov	#30,-(r6)		; f...
032056: 012746 000012       	mov	#12,-(r6)		; f...
032062: 004767 031142       	call	63230			; w.b2
032066: 004767 031610       	call	63702			; w..3
032072: 013746 100002       	mov	@#100002,-(r6)		; f...
032076: 004767 041202       	call	73304			; w..B
032102: 012746 053636       	mov	#53636,-(r6)		; f..W
032106: 012746 000037       	mov	#37,-(r6)		; f...
032112: 011646              	mov	(r6),-(r6)		; &.
032114: 004767 042542       	call	74662			; w.bE
032120: 004767 034754       	call	67100			; w.l9
032124: 012746 053750       	mov	#53750,-(r6)		; f.hW
032130: 004767 043050       	call	75204			; w.(F
032134: 010046              	mov	r0,-(r6)		; &.
032136: 004767 041142       	call	73304			; w.bB
032142: 012746 177777       	mov	#177777,-(r6)		; f...
032146: 004767 032650       	call	65022			; w.(5
032152: 010146              	mov	r1,-(r6)		; f.
032154: 004767 044250       	call	76430			; w.(H
032160: 000672              	br	31746			; :.
;
032162: 004767 045300       	call	77466			; w.@J
032166: 162706 000010       	sub	#10,r6			; Fe..
032172: 174046              	stf	f0,-(r6)		; &x
032174: 174146              	stf	f1,-(r6)		; fx
032176: 174346              	stf	f3,-(r6)		; fx
032200: 172704              	ldf	f3,r4			; Du
032202: 174346              	stf	f3,-(r6)		; fx
032204: 172705              	ldf	f3,r5			; Eu
032206: 174346              	stf	f3,-(r6)		; fx
032210: 004767 175454       	call	27670			; w.,{
032214: 177066 000042       	ldcif	f0,42(r6)		; 6~".
032220: 172537 100026       	ldf	f1,@#100026		; _u..
032224: 174537 054152       	divf	f1,@#54152		; _yjX
032230: 171001              	mult	f0,r1			; .r
032232: 174004              	stf	f0,r4			; .x
032234: 177066 000040       	ldcif	f0,40(r6)		; 6~ .
032240: 172537 100032       	ldf	f1,@#100032		; _u..
032244: 174537 054152       	divf	f1,@#54152		; _yjX
032250: 171001              	mult	f0,r1			; .r
032252: 174005              	stf	f0,r5			; .x
032254: 172404              	ldf	f0,r4			; .u
032256: 172005              	addf	f0,r5			; .t
032260: 172037 100062       	addf	f0,@#100062		; .t2.
032264: 174076 000036       	stf	f0,@36(r6)		; >x..
032270: 172726              	ldf	f3,(r6)+		; Vu
032272: 174305              	stf	f3,r5			; Ex
032274: 172726              	ldf	f3,(r6)+		; Vu
032276: 174304              	stf	f3,r4			; Dx
032300: 172726              	ldf	f3,(r6)+		; Vu
032302: 172526              	ldf	f1,(r6)+		; Vu
032304: 172426              	ldf	f0,(r6)+		; .u
032306: 016666 000010 000016	mov	10(r6),16(r6)		; 6.....
032314: 062706 000016       	add	#16,r6			; Fe..
032320: 000207              	ret				; ..
;
032322: 024646              	cmp	-(r6),-(r6)		; &)
032324: 010546              	mov	r5,-(r6)		; f.
032326: 174046              	stf	f0,-(r6)		; &x
032330: 004767 175334       	call	27670			; w.\z
032334: 005066 000010       	clr	10(r6)			; 6...
032340: 012705 000013       	mov	#13,r5			; E...
032344: 172466 000014       	ldf	f0,14(r6)		; 6u..
032350: 173437 100042       	cmpf	f0,@#100042		; .w".
032354: 170000              	cfcc				; .p
032356: 002406              	blt	32374			; ..
032360: 172466 000014       	ldf	f0,14(r6)		; 6u..
032364: 173437 100046       	cmpf	f0,@#100046		; .w&.
032370: 170000              	cfcc				; .p
032372: 003420              	ble	32434			; ..
032374: 010546              	mov	r5,-(r6)		; f.
032376: 012746 000014       	mov	#14,-(r6)		; f...
032402: 060616              	add	r6,(r6)			; .a
032404: 004767 175304       	call	27714			; w.Dz
032410: 012746 053754       	mov	#53754,-(r6)		; f.lW
032414: 004767 042564       	call	75204			; w.tE
032420: 010546              	mov	r5,-(r6)		; f.
032422: 012746 000014       	mov	#14,-(r6)		; f...
032426: 060616              	add	r6,(r6)			; .a
032430: 004767 175534       	call	30170			; w.\{
032434: 172426              	ldf	f0,(r6)+		; .u
032436: 012605              	mov	(r6)+,r5		; ..
032440: 022626              	cmp	(r6)+,(r6)+		; .%
032442: 012616              	mov	(r6)+,(r6)		; ..
032444: 012616              	mov	(r6)+,(r6)		; ..
032446: 000207              	ret				; ..
;
032450: 162706 000036       	sub	#36,r6			; Fe..
032454: 012700 000012       	mov	#12,r0			; @...
032460: 012701 100016       	mov	#100016,r1		; A...
032464: 012716 000002       	mov	#2,(r6)			; N...
032470: 170466 000016       	clrf	16(r6)			; 6q..
032474: 170405              	clrf	r5			; .q
032476: 005066 000010       	clr	10(r6)			; 6...
032502: 011646              	mov	(r6),-(r6)		; &.
032504: 012746 000016       	mov	#16,-(r6)		; f...
032510: 060616              	add	r6,(r6)			; .a
032512: 012746 100206       	mov	#100206,-(r6)		; f...
032516: 005046              	clr	-(r6)			; &.
032520: 005046              	clr	-(r6)			; &.
032522: 004767 044704       	call	77432			; w.DI
032526: 011646              	mov	(r6),-(r6)		; &.
032530: 012746 000020       	mov	#20,-(r6)		; f...
032534: 060616              	add	r6,(r6)			; .a
032536: 012746 100222       	mov	#100222,-(r6)		; f...
032542: 005046              	clr	-(r6)			; &.
032544: 005046              	clr	-(r6)			; &.
032546: 004767 044660       	call	77432			; w.0I
032552: 016646 000012       	mov	12(r6),-(r6)		; &...
032556: 016646 000016       	mov	16(r6),-(r6)		; &...
032562: 012746 000024       	mov	#24,-(r6)		; f...
032566: 060616              	add	r6,(r6)			; .a
032570: 004767 177372       	call	32166			; w.z~
032574: 016666 000012 000026	mov	12(r6),26(r6)		; 6.....
032602: 016666 000014 000030	mov	14(r6),30(r6)		; 6.....
032610: 172466 000016       	ldf	f0,16(r6)		; 6u..
032614: 174066 000032       	stf	f0,32(r6)		; 6x..
032620: 005746              	tst	-(r6)			; f.
032622: 005046              	clr	-(r6)			; &.
032624: 005046              	clr	-(r6)			; &.
032626: 012746 000036       	mov	#36,-(r6)		; f...
032632: 060616              	add	r6,(r6)			; .a
032634: 012746 000010       	mov	#10,-(r6)		; f...
032640: 012746 000001       	mov	#1,-(r6)		; f...
032644: 012746 100252       	mov	#100252,-(r6)		; f.*.
032650: 005046              	clr	-(r6)			; &.
032652: 005046              	clr	-(r6)			; &.
032654: 004767 044250       	call	77130			; w.(H
032660: 112666 000002       	movb	(r6)+,2(r6)		; 6...
032664: 004767 175000       	call	27670			; w..z
032670: 172466 000016       	ldf	f0,16(r6)		; 6u..
032674: 173427 041234       	cmpf	f0,#41234		; .w.B
032700: 170000              	cfcc				; .p
032702: 003034              	bgt	32774			; ..
032704: 172466 000016       	ldf	f0,16(r6)		; 6u..
032710: 173437 100052       	cmpf	f0,@#100052		; .w*.
032714: 170000              	cfcc				; .p
032716: 002426              	blt	32774			; ..
032720: 021100              	cmp	(r1),r0			; @"
032722: 002001              	bge	32726			; ..
032724: 010011              	mov	r0,(r1)			; ..
032726: 172466 000016       	ldf	f0,16(r6)		; 6u..
032732: 172005              	addf	f0,r5			; .t
032734: 174005              	stf	f0,r5			; .x
032736: 005266 000010       	inc	10(r6)			; 6...
032742: 026611 000010       	cmp	10(r6),(r1)		; .-..
032746: 001011              	bne	32772			; ..
032750: 177066 000010       	ldcif	f0,10(r6)		; 6~..
032754: 172505              	ldf	f1,r5			; Eu
032756: 174500              	divf	f1,r0			; @y
032760: 174137 100302       	stf	f1,@#100302		; _xB.
032764: 170405              	clrf	r5			; .q
032766: 005066 000010       	clr	10(r6)			; 6...
032772: 000404              	br	33004			; ..
;
032774: 172466 000016       	ldf	f0,16(r6)		; 6u..
033000: 174037 100302       	stf	f0,@#100302		; .xB.
033004: 172466 000016       	ldf	f0,16(r6)		; 6u..
033010: 173437 100056       	cmpf	f0,@#100056		; .w..
033014: 170000              	cfcc				; .p
033016: 003425              	ble	33072			; ..
033020: 172466 000016       	ldf	f0,16(r6)		; 6u..
033024: 174046              	stf	f0,-(r6)		; &x
033026: 004767 177270       	call	32322			; w.8~
033032: 010066 000004       	mov	r0,4(r6)		; 6...
033036: 016646 000004       	mov	4(r6),-(r6)		; &...
033042: 012746 000012       	mov	#12,-(r6)		; f...
033046: 060616              	add	r6,(r6)			; .a
033050: 004767 175370       	call	30444			; w.xz
033054: 005766 000006       	tst	6(r6)			; v...
033060: 001004              	bne	33072			; ..
033062: 177027 000000       	ldcif	f0,#0			; .~..
033066: 174037 100302       	stf	f0,@#100302		; .xB.
033072: 172466 000016       	ldf	f0,16(r6)		; 6u..
033076: 173437 100052       	cmpf	f0,@#100052		; .w*.
033102: 170000              	cfcc				; .p
033104: 002004              	bge	33116			; ..
033106: 172437 100052       	ldf	f0,@#100052		; .u*.
033112: 174037 100302       	stf	f0,@#100302		; .xB.
033116: 000167 177360       	jmp	32502			; w.p~
;
033122: 004767 044340       	call	77466			; w.`H
033126: 162706 000006       	sub	#6,r6			; Fe..
033132: 012766 000002 000004	mov	#2,4(r6)		; v.....
033140: 013716 164172       	mov	@#164172,(r6)		; N.zh
033144: 042716 170000       	bic	#170000,(r6)		; NE.p
033150: 016646 000004       	mov	4(r6),-(r6)		; &...
033154: 012746 000004       	mov	#4,-(r6)		; f...
033160: 060616              	add	r6,(r6)			; .a
033162: 012746 100206       	mov	#100206,-(r6)		; f...
033166: 005046              	clr	-(r6)			; &.
033170: 005046              	clr	-(r6)			; &.
033172: 004767 044200       	call	77376			; w..H
033176: 013766 164176 000002	mov	@#164176,2(r6)		; v.~h..
033204: 042766 170000 000002	bic	#170000,2(r6)		; vE.p..
033212: 016646 000004       	mov	4(r6),-(r6)		; &...
033216: 012746 000006       	mov	#6,-(r6)		; f...
033222: 060616              	add	r6,(r6)			; .a
033224: 012746 100222       	mov	#100222,-(r6)		; f...
033230: 005046              	clr	-(r6)			; &.
033232: 005046              	clr	-(r6)			; &.
033234: 004767 044136       	call	77376			; w.^H
033240: 012746 053760       	mov	#53760,-(r6)		; f.pW
033244: 004767 041734       	call	75204			; w.\C
033250: 000733              	br	33140			; [.
;
033252: 004767 044210       	call	77466			; w..H
033256: 162706 000016       	sub	#16,r6			; Fe..
033262: 012700 100024       	mov	#100024,r0		; @...
033266: 012701 100110       	mov	#100110,r1		; A.H.
033272: 005016              	clr	(r6)			; ..
033274: 052737 100400 164164	bis	#100400,@#164164	; _U..th
033302: 010146              	mov	r1,-(r6)		; f.
033304: 004767 043046       	call	76356			; w.&F
033310: 052737 100400 164160	bis	#100400,@#164160	; _U..ph
033316: 052737 004000 164162	bis	#4000,@#164162		; _U..rh
033324: 010146              	mov	r1,-(r6)		; f.
033326: 004767 043076       	call	76430			; w.>F
033332: 021027 000144       	cmp	(r0),#144		; ."d.
033336: 002002              	bge	33344			; ..
033340: 012710 000310       	mov	#310,(r0)		; H.H.
033344: 005710              	tst	(r0)			; H.
033346: 006746              	sxt	-(r6)			; f.
033350: 011046              	mov	(r0),-(r6)		; &.
033352: 012666 000014       	mov	(r6)+,14(r6)		; 6...
033356: 012666 000014       	mov	(r6)+,14(r6)		; 6...
033362: 012746 000014       	mov	#14,-(r6)		; f...
033366: 060616              	add	r6,(r6)			; .a
033370: 004767 041610       	call	75204			; w..C
033374: 004767 174270       	call	27670			; w.8x
033400: 172437 100302       	ldf	f0,@#100302		; .uB.
033404: 174066 000006       	stf	f0,6(r6)		; 6x..
033410: 123727 100066 000001	cmpb	@#100066,#1		; W'6...
033416: 001016              	bne	33454			; ..
033420: 177037 100020       	ldcif	f0,@#100020		; .~..
033424: 171037 100036       	mult	f0,@#100036		; .r..
033430: 172027 040200       	addf	f0,#40200		; .t.@
033434: 172566 000006       	ldf	f1,6(r6)		; vu..
033440: 174500              	divf	f1,r0			; @y
033442: 174166 000002       	stf	f1,2(r6)		; vx..
033446: 012746 000004       	mov	#4,-(r6)		; f...
033452: 000402              	br	33460			; ..
;
033454: 012746 000010       	mov	#10,-(r6)		; f...
033460: 060616              	add	r6,(r6)			; .a
033462: 012746 000004       	mov	#4,-(r6)		; f...
033466: 060616              	add	r6,(r6)			; .a
033470: 004767 175670       	call	31364			; w.8{
033474: 011637 164166       	mov	(r6),@#164166		; ..vh
033500: 010146              	mov	r1,-(r6)		; f.
033502: 004767 042650       	call	76356			; w.(E
033506: 042737 004000 164162	bic	#4000,@#164162		; _E..rh
033514: 005016              	clr	(r6)			; ..
033516: 000674              	br	33310			; <.
;
033520: 004767 043742       	call	77466			; w.bG
033524: 012705 044172       	mov	#44172,r5		; E.zH
033530: 004737 050534       	call	@#50534			; _.\Q
033534: 012700 100306       	mov	#100306,r0		; @.F.
033540: 012701 053746       	mov	#53746,r1		; A.fW
033544: 012702 053744       	mov	#53744,r2		; B.dW
033550: 012703 053742       	mov	#53742,r3		; C.bW
033554: 012746 100072       	mov	#100072,-(r6)		; f.:.
033560: 105046              	clrb	-(r6)			; &.
033562: 005046              	clr	-(r6)			; &.
033564: 004767 042374       	call	76164			; w.|D
033570: 012746 100110       	mov	#100110,-(r6)		; f.H.
033574: 105046              	clrb	-(r6)			; &.
033576: 005046              	clr	-(r6)			; &.
033600: 004767 042360       	call	76164			; w.pD
033604: 005746              	tst	-(r6)			; f.
033606: 105046              	clrb	-(r6)			; &.
033610: 005046              	clr	-(r6)			; &.
033612: 012746 100142       	mov	#100142,-(r6)		; f.b.
033616: 012746 053676       	mov	#53676,-(r6)		; f.>W
033622: 005046              	clr	-(r6)			; &.
033624: 004767 042236       	call	76066			; w..D
033630: 105726              	tstb	(r6)+			; V.
033632: 001001              	bne	33636			; ..
033634: 105010              	clrb	(r0)			; ..
033636: 005746              	tst	-(r6)			; f.
033640: 105046              	clrb	-(r6)			; &.
033642: 005046              	clr	-(r6)			; &.
033644: 012746 100156       	mov	#100156,-(r6)		; f.n.
033650: 012746 053704       	mov	#53704,-(r6)		; f.DW
033654: 005046              	clr	-(r6)			; &.
033656: 004767 042204       	call	76066			; w..D
033662: 105726              	tstb	(r6)+			; V.
033664: 001001              	bne	33670			; ..
033666: 105010              	clrb	(r0)			; ..
033670: 005746              	tst	-(r6)			; f.
033672: 105046              	clrb	-(r6)			; &.
033674: 005046              	clr	-(r6)			; &.
033676: 012746 100172       	mov	#100172,-(r6)		; f.z.
033702: 012746 053712       	mov	#53712,-(r6)		; f.JW
033706: 005046              	clr	-(r6)			; &.
033710: 004767 042152       	call	76066			; w.jD
033714: 105726              	tstb	(r6)+			; V.
033716: 001001              	bne	33722			; ..
033720: 105010              	clrb	(r0)			; ..
033722: 005746              	tst	-(r6)			; f.
033724: 105046              	clrb	-(r6)			; &.
033726: 105046              	clrb	-(r6)			; &.
033730: 012746 100252       	mov	#100252,-(r6)		; f.*.
033734: 012746 053720       	mov	#53720,-(r6)		; f.PW
033740: 005046              	clr	-(r6)			; &.
033742: 004767 042534       	call	76502			; w.\E
033746: 105726              	tstb	(r6)+			; V.
033750: 001001              	bne	33754			; ..
033752: 105010              	clrb	(r0)			; ..
033754: 005746              	tst	-(r6)			; f.
033756: 105046              	clrb	-(r6)			; &.
033760: 105046              	clrb	-(r6)			; &.
033762: 105046              	clrb	-(r6)			; &.
033764: 105046              	clrb	-(r6)			; &.
033766: 012746 000010       	mov	#10,-(r6)		; f...
033772: 012746 100206       	mov	#100206,-(r6)		; f...
033776: 012746 053726       	mov	#53726,-(r6)		; f.VW
034002: 005046              	clr	-(r6)			; &.
034004: 004767 043162       	call	77172			; w.rF
034010: 105726              	tstb	(r6)+			; V.
034012: 001001              	bne	34016			; ..
034014: 105010              	clrb	(r0)			; ..
034016: 005746              	tst	-(r6)			; f.
034020: 105046              	clrb	-(r6)			; &.
034022: 105046              	clrb	-(r6)			; &.
034024: 105046              	clrb	-(r6)			; &.
034026: 105046              	clrb	-(r6)			; &.
034030: 012746 000010       	mov	#10,-(r6)		; f...
034034: 012746 100222       	mov	#100222,-(r6)		; f...
034040: 012746 053734       	mov	#53734,-(r6)		; f.\W
034044: 005046              	clr	-(r6)			; &.
034046: 004767 043120       	call	77172			; w.PF
034052: 105726              	tstb	(r6)+			; V.
034054: 001001              	bne	34060			; ..
034056: 105010              	clrb	(r0)			; ..
034060: 011146              	mov	(r1),-(r6)		; f.
034062: 011246              	mov	(r2),-(r6)		; &.
034064: 011346              	mov	(r3),-(r6)		; f.
034066: 012746 000257       	mov	#257,-(r6)		; f./.
034072: 012746 000620       	mov	#620,-(r6)		; f...
034076: 005046              	clr	-(r6)			; &.
034100: 005046              	clr	-(r6)			; &.
034102: 005046              	clr	-(r6)			; &.
034104: 012746 000020       	mov	#20,-(r6)		; f...
034110: 012746 000003       	mov	#3,-(r6)		; f...
034114: 012746 000001       	mov	#1,-(r6)		; f...
034120: 005046              	clr	-(r6)			; &.
034122: 005046              	clr	-(r6)			; &.
034124: 005046              	clr	-(r6)			; &.
034126: 005046              	clr	-(r6)			; &.
034130: 012746 003726       	mov	#3726,-(r6)		; f.V.
034134: 004767 041114       	call	75254			; w.LB
034140: 011146              	mov	(r1),-(r6)		; f.
034142: 011246              	mov	(r2),-(r6)		; &.
034144: 011346              	mov	(r3),-(r6)		; f.
034146: 012746 000240       	mov	#240,-(r6)		; f. .
034152: 012746 000620       	mov	#620,-(r6)		; f...
034156: 005046              	clr	-(r6)			; &.
034160: 005046              	clr	-(r6)			; &.
034162: 005046              	clr	-(r6)			; &.
034164: 012746 000020       	mov	#20,-(r6)		; f...
034170: 012746 000003       	mov	#3,-(r6)		; f...
034174: 012746 000001       	mov	#1,-(r6)		; f...
034200: 005046              	clr	-(r6)			; &.
034202: 005046              	clr	-(r6)			; &.
034204: 005046              	clr	-(r6)			; &.
034206: 005046              	clr	-(r6)			; &.
034210: 012746 003250       	mov	#3250,-(r6)		; f.(.
034214: 004767 041034       	call	75254			; w..B
034220: 011146              	mov	(r1),-(r6)		; f.
034222: 011246              	mov	(r2),-(r6)		; &.
034224: 011346              	mov	(r3),-(r6)		; f.
034226: 012746 000240       	mov	#240,-(r6)		; f. .
034232: 012746 000620       	mov	#620,-(r6)		; f...
034236: 005046              	clr	-(r6)			; &.
034240: 005046              	clr	-(r6)			; &.
034242: 005046              	clr	-(r6)			; &.
034244: 012746 000020       	mov	#20,-(r6)		; f...
034250: 012746 000003       	mov	#3,-(r6)		; f...
034254: 012746 000001       	mov	#1,-(r6)		; f...
034260: 005046              	clr	-(r6)			; &.
034262: 005046              	clr	-(r6)			; &.
034264: 005046              	clr	-(r6)			; &.
034266: 005046              	clr	-(r6)			; &.
034270: 012746 004056       	mov	#4056,-(r6)		; f...
034274: 004767 040754       	call	75254			; w.lA
034300: 011146              	mov	(r1),-(r6)		; f.
034302: 011246              	mov	(r2),-(r6)		; &.
034304: 011346              	mov	(r3),-(r6)		; f.
034306: 012746 000226       	mov	#226,-(r6)		; f...
034312: 012746 000620       	mov	#620,-(r6)		; f...
034316: 005046              	clr	-(r6)			; &.
034320: 005046              	clr	-(r6)			; &.
034322: 005046              	clr	-(r6)			; &.
034324: 012746 000020       	mov	#20,-(r6)		; f...
034330: 012746 000003       	mov	#3,-(r6)		; f...
034334: 012746 000001       	mov	#1,-(r6)		; f...
034340: 005046              	clr	-(r6)			; &.
034342: 005046              	clr	-(r6)			; &.
034344: 005046              	clr	-(r6)			; &.
034346: 005046              	clr	-(r6)			; &.
034350: 012746 002530       	mov	#2530,-(r6)		; f.X.
034354: 004767 040674       	call	75254			; w.<A
034360: 012746 053764       	mov	#53764,-(r6)		; f.tW
034364: 004767 040614       	call	75204			; w..A
034370: 011146              	mov	(r1),-(r6)		; f.
034372: 011246              	mov	(r2),-(r6)		; &.
034374: 011346              	mov	(r3),-(r6)		; f.
034376: 012746 000226       	mov	#226,-(r6)		; f...
034402: 012746 000620       	mov	#620,-(r6)		; f...
034406: 005046              	clr	-(r6)			; &.
034410: 005046              	clr	-(r6)			; &.
034412: 005046              	clr	-(r6)			; &.
034414: 012746 000020       	mov	#20,-(r6)		; f...
034420: 012746 000003       	mov	#3,-(r6)		; f...
034424: 012746 000001       	mov	#1,-(r6)		; f...
034430: 005046              	clr	-(r6)			; &.
034432: 005046              	clr	-(r6)			; &.
034434: 005046              	clr	-(r6)			; &.
034436: 010046              	mov	r0,-(r6)		; &.
034440: 012746 032240       	mov	#32240,-(r6)		; f. 4
034444: 004767 040604       	call	75254			; w..A
034450: 004767 043012       	call	77466			; w..F
034454: 004736              	call	@(r6)+			; ^.
034456: 000137 051052       	jmp	@#51052			; _.*R
;
034462: 013746 100002       	mov	@#100002,-(r6)		; f...
034466: 004767 036612       	call	73304			; w..=
034472: 112746 000007       	movb	#7,-(r6)		; f...
034476: 012746 000001       	mov	#1,-(r6)		; f...
034502: 004767 040040       	call	74546			; w. @
034506: 004767 032366       	call	67100			; w.v4
034512: 000207              	ret				; ..
;
034514: 010046              	mov	r0,-(r6)		; &.
034516: 012700 000001       	mov	#1,r0			; @...
034522: 013746 100002       	mov	@#100002,-(r6)		; f...
034526: 004767 036552       	call	73304			; w.j=
034532: 112746 000033       	movb	#33,-(r6)		; f...
034536: 010046              	mov	r0,-(r6)		; &.
034540: 004767 040002       	call	74546			; w..@
034544: 112746 000133       	movb	#133,-(r6)		; f.[.
034550: 010046              	mov	r0,-(r6)		; &.
034552: 004767 037770       	call	74546			; w.x?
034556: 112746 000077       	movb	#77,-(r6)		; f.?.
034562: 010046              	mov	r0,-(r6)		; &.
034564: 004767 037756       	call	74546			; w.n?
034570: 112746 000062       	movb	#62,-(r6)		; f.2.
034574: 010046              	mov	r0,-(r6)		; &.
034576: 004767 037744       	call	74546			; w.d?
034602: 112746 000065       	movb	#65,-(r6)		; f.5.
034606: 010046              	mov	r0,-(r6)		; &.
034610: 004767 037732       	call	74546			; w.Z?
034614: 112746 000150       	movb	#150,-(r6)		; f.h.
034620: 010046              	mov	r0,-(r6)		; &.
034622: 004767 037720       	call	74546			; w.P?
034626: 004767 032246       	call	67100			; w.&4
034632: 012600              	mov	(r6)+,r0		; ..
034634: 000207              	ret				; ..
;
034636: 010046              	mov	r0,-(r6)		; &.
034640: 012700 000001       	mov	#1,r0			; @...
034644: 013746 100002       	mov	@#100002,-(r6)		; f...
034650: 004767 036430       	call	73304			; w..=
034654: 112746 000033       	movb	#33,-(r6)		; f...
034660: 010046              	mov	r0,-(r6)		; &.
034662: 004767 037660       	call	74546			; w.0?
034666: 112746 000133       	movb	#133,-(r6)		; f.[.
034672: 010046              	mov	r0,-(r6)		; &.
034674: 004767 037646       	call	74546			; w.&?
034700: 112746 000077       	movb	#77,-(r6)		; f.?.
034704: 010046              	mov	r0,-(r6)		; &.
034706: 004767 037634       	call	74546			; w..?
034712: 112746 000062       	movb	#62,-(r6)		; f.2.
034716: 010046              	mov	r0,-(r6)		; &.
034720: 004767 037622       	call	74546			; w..?
034724: 112746 000065       	movb	#65,-(r6)		; f.5.
034730: 010046              	mov	r0,-(r6)		; &.
034732: 004767 037610       	call	74546			; w..?
034736: 112746 000154       	movb	#154,-(r6)		; f.l.
034742: 010046              	mov	r0,-(r6)		; &.
034744: 004767 037576       	call	74546			; w.~?
034750: 004767 032124       	call	67100			; w.T4
034754: 012600              	mov	(r6)+,r0		; ..
034756: 000207              	ret				; ..
;
034760: 004767 037414       	call	74400			; w..?
034764: 174046              	stf	f0,-(r6)		; &x
034766: 012700 000001       	mov	#1,r0			; @...
034772: 105037 100067       	clrb	@#100067		; ..7.
034776: 016603 000036       	mov	36(r6),r3		; ....
035002: 160003              	sub	r0,r3			; .`
035004: 022703 000015       	cmp	#15,r3			; C%..
035010: 103523              	bcs	35260			; S.
035012: 006303              	asl	r3			; C.
035014: 000173 065132       	jmp	@65132(r3)		; {.Zj
;
035020: 016637 000034 100022	mov	34(r6),@#100022		; ......
035026: 010076 000022       	mov	r0,@22(r6)		; >...
035032: 000515              	br	35266			; M.
;
035034: 172466 000030       	ldf	f0,30(r6)		; 6u..
035040: 174037 100062       	stf	f0,@#100062		; .x2.
035044: 000770              	br	35026			; x.
;
035046: 172466 000030       	ldf	f0,30(r6)		; 6u..
035052: 174037 100026       	stf	f0,@#100026		; .x..
035056: 000763              	br	35026			; s.
;
035060: 172466 000030       	ldf	f0,30(r6)		; 6u..
035064: 174037 100032       	stf	f0,@#100032		; .x..
035070: 000756              	br	35026			; n.
;
035072: 172466 000030       	ldf	f0,30(r6)		; 6u..
035076: 174037 100042       	stf	f0,@#100042		; .x".
035102: 000751              	br	35026			; i.
;
035104: 172466 000030       	ldf	f0,30(r6)		; 6u..
035110: 174037 100046       	stf	f0,@#100046		; .x&.
035114: 000744              	br	35026			; d.
;
035116: 013703 100024       	mov	@#100024,r3		; C...
035122: 006702              	sxt	r2			; B.
035124: 071227 000012       	div	#12,r2			; .r..
035130: 026602 000034       	cmp	34(r6),r2		; .-..
035134: 003006              	bgt	35152			; ..
035136: 016637 000034 100016	mov	34(r6),@#100016		; ......
035144: 010076 000022       	mov	r0,@22(r6)		; >...
035150: 000403              	br	35160			; ..
;
035152: 012776 177770 000022	mov	#177770,@22(r6)		; ~.x...
035160: 000442              	br	35266			; ".
;
035162: 172466 000030       	ldf	f0,30(r6)		; 6u..
035166: 174037 100052       	stf	f0,@#100052		; .x*.
035172: 000715              	br	35026			; M.
;
035174: 172466 000030       	ldf	f0,30(r6)		; 6u..
035200: 174037 100056       	stf	f0,@#100056		; .x..
035204: 000710              	br	35026			; H.
;
035206: 016637 000034 100024	mov	34(r6),@#100024		; ......
035214: 000704              	br	35026			; D.
;
035216: 116637 000026 100066	movb	26(r6),@#100066		; ....6.
035224: 000700              	br	35026			; @.
;
035226: 172466 000030       	ldf	f0,30(r6)		; 6u..
035232: 174037 100036       	stf	f0,@#100036		; .x..
035236: 000673              	br	35026			; ;.
;
035240: 016637 000034 100020	mov	34(r6),@#100020		; ......
035246: 000667              	br	35026			; 7.
;
035250: 116637 000026 100070	movb	26(r6),@#100070		; ....8.
035256: 000663              	br	35026			; 3.
;
035260: 012776 177777 000022	mov	#177777,@22(r6)		; ~.....
035266: 110037 100067       	movb	r0,@#100067		; ..7.
035272: 012746 100156       	mov	#100156,-(r6)		; f.n.
035276: 005046              	clr	-(r6)			; &.
035300: 005046              	clr	-(r6)			; &.
035302: 004767 041566       	call	77074			; w.vC
035306: 172426              	ldf	f0,(r6)+		; .u
035310: 004767 037110       	call	74424			; w.H>
035314: 012666 000014       	mov	(r6)+,14(r6)		; 6...
035320: 062706 000014       	add	#14,r6			; Fe..
035324: 000207              	ret				; ..
;
035326: 005746              	tst	-(r6)			; f.
035330: 010546              	mov	r5,-(r6)		; f.
035332: 016646 000012       	mov	12(r6),-(r6)		; &...
035336: 016646 000012       	mov	12(r6),-(r6)		; &...
035342: 004767 025662       	call	63230			; w.2+
035346: 004767 026126       	call	63500			; w.V,
035352: 004767 026232       	call	63610			; w..,
035356: 016646 000006       	mov	6(r6),-(r6)		; &...
035362: 012705 000001       	mov	#1,r5			; E...
035366: 020516              	cmp	r5,(r6)			; N!
035370: 003016              	bgt	35426			; ..
035372: 013746 100002       	mov	@#100002,-(r6)		; f...
035376: 004767 035702       	call	73304			; w.B;
035402: 112746 000040       	movb	#40,-(r6)		; f. .
035406: 012746 000001       	mov	#1,-(r6)		; f...
035412: 004767 037130       	call	74546			; w.X>
035416: 004767 031456       	call	67100			; w..3
035422: 005205              	inc	r5			; ..
035424: 102360              	bvc	35366			; p.
035426: 005726              	tst	(r6)+			; V.
035430: 004767 026014       	call	63450			; w..,
035434: 016646 000012       	mov	12(r6),-(r6)		; &...
035440: 016646 000012       	mov	12(r6),-(r6)		; &...
035444: 004767 025560       	call	63230			; w.p+
035450: 012605              	mov	(r6)+,r5		; ..
035452: 016666 000002 000010	mov	2(r6),10(r6)		; 6.....
035460: 062706 000010       	add	#10,r6			; Fe..
035464: 000207              	ret				; ..
;
035466: 162706 000016       	sub	#16,r6			; Fe..
035472: 004767 036702       	call	74400			; w.B=
035476: 174046              	stf	f0,-(r6)		; &x
035500: 174146              	stf	f1,-(r6)		; fx
035502: 012700 100000       	mov	#100000,r0		; @...
035506: 012701 000001       	mov	#1,r1			; A...
035512: 012702 177777       	mov	#177777,r2		; B...
035516: 005066 000036       	clr	36(r6)			; 6...
035522: 005766 000036       	tst	36(r6)			; v...
035526: 003402              	ble	35534			; ..
035530: 000167 001422       	jmp	37156			; w...
;
035534: 005076 000050       	clr	@50(r6)			; >.(.
035540: 170476 000044       	clrf	@44(r6)			; >q$.
035544: 010146              	mov	r1,-(r6)		; f.
035546: 011603              	mov	(r6),r3			; ..
035550: 060603              	add	r6,r3			; .a
035552: 112763 000040 000025	movb	#40,25(r3)		; s. ...
035560: 005216              	inc	(r6)			; ..
035562: 021627 000003       	cmp	(r6),#3			; .#..
035566: 003767              	ble	35546			; w.
035570: 005726              	tst	(r6)+			; V.
035572: 012746 000022       	mov	#22,-(r6)		; f...
035576: 012746 000012       	mov	#12,-(r6)		; f...
035602: 004767 025422       	call	63230			; w..+
035606: 004767 026070       	call	63702			; w.8,
035612: 013746 100002       	mov	@#100002,-(r6)		; f...
035616: 004767 035462       	call	73304			; w.2;
035622: 012746 055324       	mov	#55324,-(r6)		; f.TZ
035626: 012746 000046       	mov	#46,-(r6)		; f.&.
035632: 011646              	mov	(r6),-(r6)		; &.
035634: 004767 037022       	call	74662			; w..>
035640: 004767 031234       	call	67100			; w..2
035644: 012746 000022       	mov	#22,-(r6)		; f...
035650: 012746 000060       	mov	#60,-(r6)		; f.0.
035654: 012746 000005       	mov	#5,-(r6)		; f...
035660: 004767 177442       	call	35326			; w.".
035664: 010046              	mov	r0,-(r6)		; &.
035666: 004767 035412       	call	73304			; w..;
035672: 010246              	mov	r2,-(r6)		; &.
035674: 004767 027122       	call	65022			; w.R.
035700: 011046              	mov	(r0),-(r6)		; &.
035702: 004767 031644       	call	67552			; w.$3
035706: 011003              	mov	(r0),r3			; ..
035710: 005763 000002       	tst	2(r3)			; s...
035714: 100002              	bpl	35722			; ..
035716: 000167 000714       	jmp	36636			; w.L.
;
035722: 010146              	mov	r1,-(r6)		; f.
035724: 011046              	mov	(r0),-(r6)		; &.
035726: 004767 031620       	call	67552			; w..3
035732: 011003              	mov	(r0),r3			; ..
035734: 032763 040000 000002	bit	#40000,2(r3)		; s5.@..
035742: 001011              	bne	35766			; ..
035744: 011046              	mov	(r0),-(r6)		; &.
035746: 004767 035332       	call	73304			; w.Z:
035752: 011603              	mov	(r6),r3			; ..
035754: 060603              	add	r6,r3			; .a
035756: 004767 036460       	call	74442			; w.0=
035762: 112663 000025       	movb	(r6)+,25(r3)		; 3...
035766: 005216              	inc	(r6)			; ..
035770: 021627 000003       	cmp	(r6),#3			; .#..
035774: 003753              	ble	35724			; k.
035776: 005726              	tst	(r6)+			; V.
036000: 011046              	mov	(r0),-(r6)		; &.
036002: 004767 035276       	call	73304			; w.>:
036006: 004767 036466       	call	74500			; w.6=
036012: 126627 000025 000060	cmpb	25(r6),#60		; .-..0.
036020: 103415              	bcs	36054			; ..
036022: 126627 000026 000040	cmpb	26(r6),#40		; .-.. .
036030: 001011              	bne	36054			; ..
036032: 116666 000025 000026	movb	25(r6),26(r6)		; 6.....
036040: 116666 000024 000025	movb	24(r6),25(r6)		; 6.....
036046: 112766 000060 000024	movb	#60,24(r6)		; v.0...
036054: 126627 000025 000040	cmpb	25(r6),#40		; .-.. .
036062: 001015              	bne	36116			; ..
036064: 126627 000026 000040	cmpb	26(r6),#40		; .-.. .
036072: 001011              	bne	36116			; ..
036074: 116666 000024 000026	movb	24(r6),26(r6)		; 6.....
036102: 112766 000060 000025	movb	#60,25(r6)		; v.0...
036110: 112766 000060 000024	movb	#60,24(r6)		; v.0...
036116: 005066 000040       	clr	40(r6)			; 6. .
036122: 010146              	mov	r1,-(r6)		; f.
036124: 011603              	mov	(r6),r3			; ..
036126: 160103              	sub	r1,r3			; C`
036130: 022703 000002       	cmp	#2,r3			; C%..
036134: 103420              	bcs	36176			; ..
036136: 006303              	asl	r3			; C.
036140: 000173 065166       	jmp	@65166(r3)		; {.vj
;
036144: 005003              	clr	r3			; ..
036146: 156603 000026       	bisb	26(r6),r3		; .]..
036152: 000407              	br	36172			; ..
;
036154: 005003              	clr	r3			; ..
036156: 156603 000027       	bisb	27(r6),r3		; .]..
036162: 000403              	br	36172			; ..
;
036164: 005003              	clr	r3			; ..
036166: 156603 000030       	bisb	30(r6),r3		; .]..
036172: 010366 000034       	mov	r3,34(r6)		; v...
036176: 016603 000034       	mov	34(r6),r3		; ....
036202: 162703 000040       	sub	#40,r3			; Ce .
036206: 022703 000106       	cmp	#106,r3			; C%F.
036212: 103433              	bcs	36302			; ..
036214: 006303              	asl	r3			; C.
036216: 000173 065174       	jmp	@65174(r3)		; {.|j
;
036222: 005066 000036       	clr	36(r6)			; 6...
036226: 000431              	br	36312			; ..
;
036230: 016666 000034 000036	mov	34(r6),36(r6)		; 6.....
036236: 162766 000060 000036	sub	#60,36(r6)		; ve0...
036244: 000422              	br	36312			; ..
;
036246: 016666 000034 000036	mov	34(r6),36(r6)		; 6.....
036254: 162766 000067 000036	sub	#67,36(r6)		; ve7...
036262: 000413              	br	36312			; ..
;
036264: 016666 000034 000036	mov	34(r6),36(r6)		; 6.....
036272: 162766 000127 000036	sub	#127,36(r6)		; veW...
036300: 000404              	br	36312			; ..
;
036302: 010266 000036       	mov	r2,36(r6)		; 6...
036306: 010276 000052       	mov	r2,@52(r6)		; >.*.
036312: 011603              	mov	(r6),r3			; ..
036314: 160103              	sub	r1,r3			; C`
036316: 022703 000002       	cmp	#2,r3			; C%..
036322: 103422              	bcs	36370			; ..
036324: 006303              	asl	r3			; C.
036326: 000173 065412       	jmp	@65412(r3)		; {..k
;
036332: 016603 000036       	mov	36(r6),r3		; ....
036336: 072327 000010       	ash	#10,r3			; Wt..
036342: 060366 000042       	add	r3,42(r6)		; v`".
036346: 000410              	br	36370			; ..
;
036350: 016603 000036       	mov	36(r6),r3		; ....
036354: 072327 000004       	ash	#4,r3			; Wt..
036360: 000770              	br	36342			; x.
;
036362: 066666 000036 000042	add	36(r6),42(r6)		; 6m..".
036370: 005216              	inc	(r6)			; ..
036372: 021627 000003       	cmp	(r6),#3			; .#..
036376: 003652              	ble	36124			; *.
036400: 005726              	tst	(r6)+			; V.
036402: 005766 000040       	tst	40(r6)			; v. .
036406: 003443              	ble	36516			; #.
036410: 027602 000050       	cmp	@50(r6),r2		; ./(.
036414: 003440              	ble	36516			;  .
036416: 017603 000046       	mov	@46(r6),r3		; ..&.
036422: 162703 000004       	sub	#4,r3			; Ce..
036426: 020103              	cmp	r1,r3			; C 
036430: 103423              	bcs	36500			; ..
036432: 006303              	asl	r3			; C.
036434: 000173 065420       	jmp	@65420(r3)		; {..k
;
036440: 016676 000040 000050	mov	40(r6),@50(r6)		; >. .(.
036446: 172427 040200       	ldf	f0,#40200		; .u.@
036452: 000416              	br	36510			; ..
;
036454: 177066 000040       	ldcif	f0,40(r6)		; 6~ .
036460: 177127 000001       	ldcif	f1,#1			; W~..
036464: 174401              	divf	f0,r1			; .y
036466: 174076 000044       	stf	f0,@44(r6)		; >x$.
036472: 010176 000050       	mov	r1,@50(r6)		; ~.(.
036476: 000406              	br	36514			; ..
;
036500: 010276 000050       	mov	r2,@50(r6)		; >.(.
036504: 172427 140200       	ldf	f0,#140200		; .u.@
036510: 174076 000044       	stf	f0,@44(r6)		; >x$.
036514: 000447              	br	36634			; '.
;
036516: 010276 000050       	mov	r2,@50(r6)		; >.(.
036522: 172427 140200       	ldf	f0,#140200		; .u.@
036526: 174076 000044       	stf	f0,@44(r6)		; >x$.
036532: 012746 000030       	mov	#30,-(r6)		; f...
036536: 012746 000012       	mov	#12,-(r6)		; f...
036542: 004767 024462       	call	63230			; w.2)
036546: 004767 025130       	call	63702			; w.X*
036552: 013746 100002       	mov	@#100002,-(r6)		; f...
036556: 004767 034522       	call	73304			; w.R9
036562: 012746 055436       	mov	#55436,-(r6)		; f..[
036566: 012746 000062       	mov	#62,-(r6)		; f.2.
036572: 011646              	mov	(r6),-(r6)		; &.
036574: 004767 036062       	call	74662			; w.2<
036600: 016646 000040       	mov	40(r6),-(r6)		; &. .
036604: 012746 000007       	mov	#7,-(r6)		; f...
036610: 012746 000020       	mov	#20,-(r6)		; f...
036614: 004767 043066       	call	101706			; w.6F
036620: 004767 030254       	call	67100			; w.,0
036624: 012746 065056       	mov	#65056,-(r6)		; f..j
036630: 004767 036350       	call	75204			; w.h<
036634: 000405              	br	36650			; ..
;
036636: 010166 000036       	mov	r1,36(r6)		; v...
036642: 012765 177776 000004	mov	#177776,4(r5)		; u.~...
036650: 026527 000004 177776	cmp	4(r5),#177776		; W-..~.
036656: 001535              	beq	37152			; ].
036660: 026502 000004       	cmp	4(r5),r2		; B-..
036664: 003532              	ble	37152			; Z.
036666: 012746 000023       	mov	#23,-(r6)		; f...
036672: 012746 000012       	mov	#12,-(r6)		; f...
036676: 004767 024326       	call	63230			; w.V(
036702: 004767 024774       	call	63702			; w.|)
036706: 013746 100002       	mov	@#100002,-(r6)		; f...
036712: 004767 034366       	call	73304			; w.v8
036716: 012746 055372       	mov	#55372,-(r6)		; f.zZ
036722: 012746 000021       	mov	#21,-(r6)		; f...
036726: 011646              	mov	(r6),-(r6)		; &.
036730: 004767 035726       	call	74662			; w.V;
036734: 016646 000040       	mov	40(r6),-(r6)		; &. .
036740: 012746 000007       	mov	#7,-(r6)		; f...
036744: 012746 000020       	mov	#20,-(r6)		; f...
036750: 004767 042732       	call	101706			; w.ZE
036754: 004767 030120       	call	67100			; w.P0
036760: 012746 000024       	mov	#24,-(r6)		; f...
036764: 012746 000012       	mov	#12,-(r6)		; f...
036770: 004767 024234       	call	63230			; w..(
036774: 004767 024702       	call	63702			; w.B)
037000: 013746 100002       	mov	@#100002,-(r6)		; f...
037004: 004767 034274       	call	73304			; w.<8
037010: 012746 055414       	mov	#55414,-(r6)		; f..[
037014: 012746 000021       	mov	#21,-(r6)		; f...
037020: 011646              	mov	(r6),-(r6)		; &.
037022: 004767 035634       	call	74662			; w..;
037026: 004767 030046       	call	67100			; w.&0
037032: 010046              	mov	r0,-(r6)		; &.
037034: 004767 034244       	call	73304			; w.$8
037040: 010246              	mov	r2,-(r6)		; &.
037042: 004767 025754       	call	65022			; w.l+
037046: 011046              	mov	(r0),-(r6)		; &.
037050: 004767 030476       	call	67552			; w.>1
037054: 011003              	mov	(r0),r3			; ..
037056: 005763 000002       	tst	2(r3)			; s...
037062: 100426              	bmi	37140			; ..
037064: 011046              	mov	(r0),-(r6)		; &.
037066: 004767 034212       	call	73304			; w..8
037072: 004767 035344       	call	74442			; w.d:
037076: 112603              	movb	(r6)+,r3		; ..
037100: 110366 000027       	movb	r3,27(r6)		; v...
037104: 004767 035370       	call	74500			; w.x:
037110: 120327 000131       	cmpb	r3,#131			; W Y.
037114: 001403              	beq	37124			; ..
037116: 120327 000171       	cmpb	r3,#171			; W y.
037122: 001003              	bne	37132			; ..
037124: 010166 000036       	mov	r1,36(r6)		; v...
037130: 000402              	br	37136			; ..
;
037132: 010266 000036       	mov	r2,36(r6)		; 6...
037136: 000405              	br	37152			; ..
;
037140: 010166 000036       	mov	r1,36(r6)		; v...
037144: 012765 177776 000004	mov	#177776,4(r5)		; u.~...
037152: 000167 176344       	jmp	35522			; w.d|
;
037156: 172526              	ldf	f1,(r6)+		; Vu
037160: 172426              	ldf	f0,(r6)+		; .u
037162: 004767 035236       	call	74424			; w..:
037166: 016666 000016 000024	mov	16(r6),24(r6)		; 6.....
037174: 062706 000024       	add	#24,r6			; Fe..
037200: 000207              	ret				; ..
;
037202: 162706 000020       	sub	#20,r6			; Fe..
037206: 004767 035166       	call	74400			; w.v:
037212: 012700 000060       	mov	#60,r0			; @.0.
037216: 012701 000040       	mov	#40,r1			; A. .
037222: 012702 100000       	mov	#100000,r2		; B...
037226: 005066 000030       	clr	30(r6)			; 6...
037232: 005766 000030       	tst	30(r6)			; v...
037236: 003402              	ble	37244			; ..
037240: 000167 001514       	jmp	40760			; w.L.
;
037244: 005076 000040       	clr	@40(r6)			; >. .
037250: 005076 000036       	clr	@36(r6)			; >...
037254: 012746 000001       	mov	#1,-(r6)		; f...
037260: 011603              	mov	(r6),r3			; ..
037262: 060603              	add	r6,r3			; .a
037264: 110163 000015       	movb	r1,15(r3)		; s...
037270: 005216              	inc	(r6)			; ..
037272: 021627 000005       	cmp	(r6),#5			; .#..
037276: 003770              	ble	37260			; x.
037300: 005726              	tst	(r6)+			; V.
037302: 012746 000022       	mov	#22,-(r6)		; f...
037306: 012746 000012       	mov	#12,-(r6)		; f...
037312: 004767 023712       	call	63230			; w.J'
037316: 013746 100002       	mov	@#100002,-(r6)		; f...
037322: 004767 033756       	call	73304			; w.n7
037326: 012746 055520       	mov	#55520,-(r6)		; f.P[
037332: 012746 000025       	mov	#25,-(r6)		; f...
037336: 011646              	mov	(r6),-(r6)		; &.
037340: 004767 035316       	call	74662			; w.N:
037344: 004767 027530       	call	67100			; w.X/
037350: 012746 000022       	mov	#22,-(r6)		; f...
037354: 012746 000062       	mov	#62,-(r6)		; f.2.
037360: 012746 000005       	mov	#5,-(r6)		; f...
037364: 004767 175736       	call	35326			; w.^{
037370: 010246              	mov	r2,-(r6)		; &.
037372: 004767 033706       	call	73304			; w.F7
037376: 012746 177777       	mov	#177777,-(r6)		; f...
037402: 004767 025414       	call	65022			; w..+
037406: 011246              	mov	(r2),-(r6)		; &.
037410: 004767 030136       	call	67552			; w.^0
037414: 011203              	mov	(r2),r3			; ..
037416: 005763 000002       	tst	2(r3)			; s...
037422: 100002              	bpl	37430			; ..
037424: 000167 001000       	jmp	40430			; w...
;
037430: 012746 000022       	mov	#22,-(r6)		; f...
037434: 012746 000063       	mov	#63,-(r6)		; f.3.
037440: 004767 023564       	call	63230			; w.t'
037444: 012746 000001       	mov	#1,-(r6)		; f...
037450: 011246              	mov	(r2),-(r6)		; &.
037452: 004767 030074       	call	67552			; w.<0
037456: 011203              	mov	(r2),r3			; ..
037460: 032763 040000 000002	bit	#40000,2(r3)		; s5.@..
037466: 001011              	bne	37512			; ..
037470: 011246              	mov	(r2),-(r6)		; &.
037472: 004767 033606       	call	73304			; w..7
037476: 011603              	mov	(r6),r3			; ..
037500: 060603              	add	r6,r3			; .a
037502: 004767 034734       	call	74442			; w.\9
037506: 112663 000015       	movb	(r6)+,15(r3)		; 3...
037512: 005216              	inc	(r6)			; ..
037514: 021627 000005       	cmp	(r6),#5			; .#..
037520: 003753              	ble	37450			; k.
037522: 005726              	tst	(r6)+			; V.
037524: 011246              	mov	(r2),-(r6)		; &.
037526: 004767 033552       	call	73304			; w.j7
037532: 004767 034742       	call	74500			; w.b9
037536: 126600 000017       	cmpb	17(r6),r0		; .-..
037542: 103421              	bcs	37606			; ..
037544: 126601 000020       	cmpb	20(r6),r1		; .-..
037550: 001016              	bne	37606			; ..
037552: 116666 000017 000020	movb	17(r6),20(r6)		; 6.....
037560: 116666 000016 000017	movb	16(r6),17(r6)		; 6.....
037566: 116666 000015 000016	movb	15(r6),16(r6)		; 6.....
037574: 116666 000014 000015	movb	14(r6),15(r6)		; 6.....
037602: 110066 000014       	movb	r0,14(r6)		; 6...
037606: 126600 000016       	cmpb	16(r6),r0		; .-..
037612: 103423              	bcs	37662			; ..
037614: 126601 000017       	cmpb	17(r6),r1		; .-..
037620: 001020              	bne	37662			; ..
037622: 126601 000020       	cmpb	20(r6),r1		; .-..
037626: 001015              	bne	37662			; ..
037630: 116666 000016 000020	movb	16(r6),20(r6)		; 6.....
037636: 116666 000015 000017	movb	15(r6),17(r6)		; 6.....
037644: 116666 000014 000016	movb	14(r6),16(r6)		; 6.....
037652: 110066 000015       	movb	r0,15(r6)		; 6...
037656: 110066 000014       	movb	r0,14(r6)		; 6...
037662: 126600 000015       	cmpb	15(r6),r0		; .-..
037666: 103425              	bcs	37742			; ..
037670: 126601 000016       	cmpb	16(r6),r1		; .-..
037674: 001022              	bne	37742			; ..
037676: 126601 000017       	cmpb	17(r6),r1		; .-..
037702: 001017              	bne	37742			; ..
037704: 126601 000020       	cmpb	20(r6),r1		; .-..
037710: 001014              	bne	37742			; ..
037712: 116666 000015 000020	movb	15(r6),20(r6)		; 6.....
037720: 116666 000014 000017	movb	14(r6),17(r6)		; 6.....
037726: 110066 000016       	movb	r0,16(r6)		; 6...
037732: 110066 000015       	movb	r0,15(r6)		; 6...
037736: 110066 000014       	movb	r0,14(r6)		; 6...
037742: 126601 000015       	cmpb	15(r6),r1		; .-..
037746: 001024              	bne	40020			; ..
037750: 126601 000016       	cmpb	16(r6),r1		; .-..
037754: 001021              	bne	40020			; ..
037756: 126601 000017       	cmpb	17(r6),r1		; .-..
037762: 001016              	bne	40020			; ..
037764: 126601 000020       	cmpb	20(r6),r1		; .-..
037770: 001013              	bne	40020			; ..
037772: 116666 000014 000020	movb	14(r6),20(r6)		; 6.....
040000: 110066 000017       	movb	r0,17(r6)		; 6...
040004: 110066 000016       	movb	r0,16(r6)		; 6...
040010: 110066 000015       	movb	r0,15(r6)		; 6...
040014: 110066 000014       	movb	r0,14(r6)		; 6...
040020: 005005              	clr	r5			; ..
040022: 012746 000001       	mov	#1,-(r6)		; f...
040026: 011603              	mov	(r6),r3			; ..
040030: 162703 000001       	sub	#1,r3			; Ce..
040034: 022703 000004       	cmp	#4,r3			; C%..
040040: 103430              	bcs	40122			; ..
040042: 006303              	asl	r3			; C.
040044: 000173 065424       	jmp	@65424(r3)		; {..k
;
040050: 005003              	clr	r3			; ..
040052: 156603 000016       	bisb	16(r6),r3		; .]..
040056: 000417              	br	40116			; ..
;
040060: 005003              	clr	r3			; ..
040062: 156603 000017       	bisb	17(r6),r3		; .]..
040066: 000413              	br	40116			; ..
;
040070: 005003              	clr	r3			; ..
040072: 156603 000020       	bisb	20(r6),r3		; .]..
040076: 000407              	br	40116			; ..
;
040100: 005003              	clr	r3			; ..
040102: 156603 000021       	bisb	21(r6),r3		; .]..
040106: 000403              	br	40116			; ..
;
040110: 005003              	clr	r3			; ..
040112: 156603 000022       	bisb	22(r6),r3		; .]..
040116: 010366 000026       	mov	r3,26(r6)		; v...
040122: 016603 000026       	mov	26(r6),r3		; ....
040126: 160103              	sub	r1,r3			; C`
040130: 022703 000031       	cmp	#31,r3			; C%..
040134: 103414              	bcs	40166			; ..
040136: 006303              	asl	r3			; C.
040140: 000173 065436       	jmp	@65436(r3)		; {..k
;
040144: 005066 000030       	clr	30(r6)			; 6...
040150: 000414              	br	40202			; ..
;
040152: 016666 000026 000030	mov	26(r6),30(r6)		; 6.....
040160: 160066 000030       	sub	r0,30(r6)		; 6`..
040164: 000406              	br	40202			; ..
;
040166: 012766 177777 000030	mov	#177777,30(r6)		; v.....
040174: 012776 177777 000042	mov	#177777,@42(r6)		; ~...".
040202: 011603              	mov	(r6),r3			; ..
040204: 162703 000001       	sub	#1,r3			; Ce..
040210: 022703 000004       	cmp	#4,r3			; C%..
040214: 103432              	bcs	40302			; ..
040216: 006303              	asl	r3			; C.
040220: 000173 065522       	jmp	@65522(r3)		; {.Rk
;
040224: 016603 000030       	mov	30(r6),r3		; ....
040230: 070327 023420       	mul	#23420,r3		; Wp.'
040234: 060305              	add	r3,r5			; E`
040236: 000421              	br	40302			; ..
;
040240: 016603 000030       	mov	30(r6),r3		; ....
040244: 070327 001750       	mul	#1750,r3		; Wph.
040250: 000771              	br	40234			; y.
;
040252: 016603 000030       	mov	30(r6),r3		; ....
040256: 070327 000144       	mul	#144,r3			; Wpd.
040262: 000764              	br	40234			; t.
;
040264: 016603 000030       	mov	30(r6),r3		; ....
040270: 070327 000012       	mul	#12,r3			; Wp..
040274: 000757              	br	40234			; o.
;
040276: 066605 000030       	add	30(r6),r5		; .m..
040302: 005216              	inc	(r6)			; ..
040304: 021627 000005       	cmp	(r6),#5			; .#..
040310: 003646              	ble	40026			; &.
040312: 005726              	tst	(r6)+			; V.
040314: 005705              	tst	r5			; E.
040316: 003412              	ble	40344			; ..
040320: 027627 000040 177777	cmp	@40(r6),#177777		; ./ ...
040326: 003406              	ble	40344			; ..
040330: 010576 000040       	mov	r5,@40(r6)		; ~. .
040334: 012776 000001 000036	mov	#1,@36(r6)		; ~.....
040342: 000431              	br	40426			; ..
;
040344: 012746 000030       	mov	#30,-(r6)		; f...
040350: 012746 000012       	mov	#12,-(r6)		; f...
040354: 004767 022650       	call	63230			; w.(%
040360: 004767 023316       	call	63702			; w.N&
040364: 013746 100002       	mov	@#100002,-(r6)		; f...
040370: 004767 032710       	call	73304			; w.H5
040374: 012746 055612       	mov	#55612,-(r6)		; f..[
040400: 012746 000065       	mov	#65,-(r6)		; f.5.
040404: 011646              	mov	(r6),-(r6)		; &.
040406: 004767 034250       	call	74662			; w.(8
040412: 004767 026462       	call	67100			; w.2-
040416: 012746 065062       	mov	#65062,-(r6)		; f.2j
040422: 004767 034556       	call	75204			; w.n9
040426: 000406              	br	40444			; ..
;
040430: 012776 177776 000036	mov	#177776,@36(r6)		; ~.~...
040436: 012766 000001 000030	mov	#1,30(r6)		; v.....
040444: 027627 000036 177776	cmp	@36(r6),#177776		; ./..~.
040452: 001540              	beq	40754			; `.
040454: 027627 000040 177777	cmp	@40(r6),#177777		; ./ ...
040462: 003534              	ble	40754			; \.
040464: 012746 000023       	mov	#23,-(r6)		; f...
040470: 012746 000012       	mov	#12,-(r6)		; f...
040474: 004767 022530       	call	63230			; w.X%
040500: 004767 023176       	call	63702			; w.~&
040504: 013746 100002       	mov	@#100002,-(r6)		; f...
040510: 004767 032570       	call	73304			; w.x5
040514: 012746 055546       	mov	#55546,-(r6)		; f.f[
040520: 012746 000021       	mov	#21,-(r6)		; f...
040524: 011646              	mov	(r6),-(r6)		; &.
040526: 004767 034130       	call	74662			; w.X8
040532: 017646 000040       	mov	@40(r6),-(r6)		; &. .
040536: 012746 000007       	mov	#7,-(r6)		; f...
040542: 004767 040722       	call	101470			; w.RA
040546: 004767 026326       	call	67100			; w.V,
040552: 012746 000024       	mov	#24,-(r6)		; f...
040556: 012746 000012       	mov	#12,-(r6)		; f...
040562: 004767 022442       	call	63230			; w."%
040566: 004767 023110       	call	63702			; w.H&
040572: 013746 100002       	mov	@#100002,-(r6)		; f...
040576: 004767 032502       	call	73304			; w.B5
040602: 012746 055570       	mov	#55570,-(r6)		; f.x[
040606: 012746 000021       	mov	#21,-(r6)		; f...
040612: 011646              	mov	(r6),-(r6)		; &.
040614: 004767 034042       	call	74662			; w."8
040620: 004767 026254       	call	67100			; w.,,
040624: 010246              	mov	r2,-(r6)		; &.
040626: 004767 032452       	call	73304			; w.*5
040632: 012746 177777       	mov	#177777,-(r6)		; f...
040636: 004767 024160       	call	65022			; w.p(
040642: 011246              	mov	(r2),-(r6)		; &.
040644: 004767 026702       	call	67552			; w.B-
040650: 011203              	mov	(r2),r3			; ..
040652: 005763 000002       	tst	2(r3)			; s...
040656: 100430              	bmi	40740			; ..
040660: 011246              	mov	(r2),-(r6)		; &.
040662: 004767 032416       	call	73304			; w..5
040666: 004767 033550       	call	74442			; w.h7
040672: 112603              	movb	(r6)+,r3		; ..
040674: 110366 000021       	movb	r3,21(r6)		; v...
040700: 004767 033574       	call	74500			; w.|7
040704: 120327 000131       	cmpb	r3,#131			; W Y.
040710: 001403              	beq	40720			; ..
040712: 120327 000171       	cmpb	r3,#171			; W y.
040716: 001004              	bne	40730			; ..
040720: 012766 000001 000030	mov	#1,30(r6)		; v.....
040726: 000403              	br	40736			; ..
;
040730: 012766 177777 000030	mov	#177777,30(r6)		; v.....
040736: 000406              	br	40754			; ..
;
040740: 012766 000001 000030	mov	#1,30(r6)		; v.....
040746: 012776 177776 000036	mov	#177776,@36(r6)		; ~.~...
040754: 000167 176252       	jmp	37232			; w.*|
;
040760: 004767 033440       	call	74424			; w. 7
040764: 062706 000020       	add	#20,r6			; Fe..
040770: 012616              	mov	(r6)+,(r6)		; ..
040772: 012616              	mov	(r6)+,(r6)		; ..
040774: 000207              	ret				; ..
;
040776: 162706 000042       	sub	#42,r6			; Fe".
041002: 004767 033372       	call	74400			; w.z6
041006: 174046              	stf	f0,-(r6)		; &x
041010: 174146              	stf	f1,-(r6)		; fx
041012: 174346              	stf	f3,-(r6)		; fx
041014: 172704              	ldf	f3,r4			; Du
041016: 174346              	stf	f3,-(r6)		; fx
041020: 172705              	ldf	f3,r5			; Eu
041022: 174346              	stf	f3,-(r6)		; fx
041024: 012700 100000       	mov	#100000,r0		; @...
041030: 012701 000001       	mov	#1,r1			; A...
041034: 005066 000060       	clr	60(r6)			; 6.0.
041040: 005766 000060       	tst	60(r6)			; v.0.
041044: 003402              	ble	41052			; ..
041046: 000167 001532       	jmp	42604			; w.Z.
;
041052: 010105              	mov	r1,r5			; E.
041054: 010503              	mov	r5,r3			; C.
041056: 060603              	add	r6,r3			; .a
041060: 112763 000060 000037	movb	#60,37(r3)		; s.0...
041066: 005205              	inc	r5			; ..
041070: 020527 000013       	cmp	r5,#13			; W!..
041074: 003767              	ble	41054			; w.
041076: 005066 000054       	clr	54(r6)			; 6.,.
041102: 170476 000106       	clrf	@106(r6)		; >qF.
041106: 005076 000104       	clr	@104(r6)		; >.D.
041112: 170404              	clrf	r4			; .q
041114: 012746 000022       	mov	#22,-(r6)		; f...
041120: 012746 000012       	mov	#12,-(r6)		; f...
041124: 004767 022100       	call	63230			; w.@$
041130: 004767 022546       	call	63702			; w.f%
041134: 013746 100002       	mov	@#100002,-(r6)		; f...
041140: 004767 032140       	call	73304			; w.`4
041144: 012746 055700       	mov	#55700,-(r6)		; f.@[
041150: 012746 000061       	mov	#61,-(r6)		; f.1.
041154: 011646              	mov	(r6),-(r6)		; &.
041156: 004767 033500       	call	74662			; w.@7
041162: 004767 025712       	call	67100			; w.J+
041166: 012746 000022       	mov	#22,-(r6)		; f...
041172: 012746 000073       	mov	#73,-(r6)		; f.;.
041176: 012746 000015       	mov	#15,-(r6)		; f...
041202: 004767 174120       	call	35326			; w.Px
041206: 010046              	mov	r0,-(r6)		; &.
041210: 004767 032070       	call	73304			; w.84
041214: 012746 177777       	mov	#177777,-(r6)		; f...
041220: 004767 023576       	call	65022			; w.~'
041224: 011046              	mov	(r0),-(r6)		; &.
041226: 004767 026320       	call	67552			; w.P,
041232: 011003              	mov	(r0),r3			; ..
041234: 005763 000002       	tst	2(r3)			; s...
041240: 100002              	bpl	41246			; ..
041242: 000167 001002       	jmp	42250			; w...
;
041246: 012746 000022       	mov	#22,-(r6)		; f...
041252: 012746 000074       	mov	#74,-(r6)		; f.<.
041256: 004767 021746       	call	63230			; w.f#
041262: 010105              	mov	r1,r5			; E.
041264: 011046              	mov	(r0),-(r6)		; &.
041266: 004767 026260       	call	67552			; w.0,
041272: 011003              	mov	(r0),r3			; ..
041274: 032763 040000 000002	bit	#40000,2(r3)		; s5.@..
041302: 001011              	bne	41326			; ..
041304: 011046              	mov	(r0),-(r6)		; &.
041306: 004767 031772       	call	73304			; w.z3
041312: 010503              	mov	r5,r3			; C.
041314: 060603              	add	r6,r3			; .a
041316: 004767 033120       	call	74442			; w.P6
041322: 112663 000037       	movb	(r6)+,37(r3)		; 3...
041326: 005205              	inc	r5			; ..
041330: 020527 000013       	cmp	r5,#13			; W!..
041334: 003753              	ble	41264			; k.
041336: 011046              	mov	(r0),-(r6)		; &.
041340: 004767 031740       	call	73304			; w.`3
041344: 004767 033130       	call	74500			; w.X6
041350: 010105              	mov	r1,r5			; E.
041352: 010503              	mov	r5,r3			; C.
041354: 060603              	add	r6,r3			; .a
041356: 126327 000037 000056	cmpb	37(r3),#56		; W,....
041364: 001002              	bne	41372			; ..
041366: 010566 000054       	mov	r5,54(r6)		; v.,.
041372: 005205              	inc	r5			; ..
041374: 020527 000005       	cmp	r5,#5			; W!..
041400: 003764              	ble	41352			; t.
041402: 005766 000054       	tst	54(r6)			; v.,.
041406: 001414              	beq	41440			; ..
041410: 016605 000054       	mov	54(r6),r5		; ..,.
041414: 020527 000012       	cmp	r5,#12			; W!..
041420: 003007              	bgt	41440			; ..
041422: 010503              	mov	r5,r3			; C.
041424: 060603              	add	r6,r3			; .a
041426: 116363 000040 000037	movb	40(r3),37(r3)		; s. ...
041434: 005205              	inc	r5			; ..
041436: 102366              	bvc	41414			; v.
041440: 010105              	mov	r1,r5			; E.
041442: 010503              	mov	r5,r3			; C.
041444: 060603              	add	r6,r3			; .a
041446: 005002              	clr	r2			; ..
041450: 156302 000037       	bisb	37(r3),r2		; B\..
041454: 010266 000062       	mov	r2,62(r6)		; 6.2.
041460: 010203              	mov	r2,r3			; ..
041462: 162703 000040       	sub	#40,r3			; Ce .
041466: 022703 000031       	cmp	#31,r3			; C%..
041472: 103413              	bcs	41522			; ..
041474: 006303              	asl	r3			; C.
041476: 000173 065614       	jmp	@65614(r3)		; {..k
;
041502: 005066 000064       	clr	64(r6)			; 6.4.
041506: 000445              	br	41622			; %.
;
041510: 162702 000060       	sub	#60,r2			; Be0.
041514: 010266 000064       	mov	r2,64(r6)		; 6.4.
041520: 000440              	br	41622			;  .
;
041522: 012766 177777 000064	mov	#177777,64(r6)		; v...4.
041530: 172427 140200       	ldf	f0,#140200		; .u.@
041534: 174076 000106       	stf	f0,@106(r6)		; >xF.
041540: 012746 000030       	mov	#30,-(r6)		; f...
041544: 012746 000012       	mov	#12,-(r6)		; f...
041550: 004767 021454       	call	63230			; w.,#
041554: 004767 022122       	call	63702			; w.R$
041560: 013746 100002       	mov	@#100002,-(r6)		; f...
041564: 004767 031514       	call	73304			; w.L3
041570: 012746 056026       	mov	#56026,-(r6)		; f..\
041574: 012746 000065       	mov	#65,-(r6)		; f.5.
041600: 011646              	mov	(r6),-(r6)		; &.
041602: 004767 033054       	call	74662			; w.,6
041606: 004767 025266       	call	67100			; w.6*
041612: 012746 065066       	mov	#65066,-(r6)		; f.6j
041616: 004767 033362       	call	75204			; w.r6
041622: 010503              	mov	r5,r3			; C.
041624: 160103              	sub	r1,r3			; C`
041626: 022703 000012       	cmp	#12,r3			; C%..
041632: 103443              	bcs	41742			; #.
041634: 006303              	asl	r3			; C.
041636: 000173 065700       	jmp	@65700(r3)		; {.@k
;
041642: 172737 065540       	ldf	f3,@#65540		; _u`k
041646: 000435              	br	41742			; ..
;
041650: 172737 065600       	ldf	f3,@#65600		; _u.k
041654: 000432              	br	41742			; ..
;
041656: 172737 065564       	ldf	f3,@#65564		; _utk
041662: 000427              	br	41742			; ..
;
041664: 172737 065570       	ldf	f3,@#65570		; _uxk
041670: 000424              	br	41742			; ..
;
041672: 172737 065610       	ldf	f3,@#65610		; _u.k
041676: 000421              	br	41742			; ..
;
041700: 172737 065554       	ldf	f3,@#65554		; _ulk
041704: 000416              	br	41742			; ..
;
041706: 172737 065534       	ldf	f3,@#65534		; _u\k
041712: 000413              	br	41742			; ..
;
041714: 172727 042572       	ldf	f3,#42572		; WuzE
041720: 000410              	br	41742			; ..
;
041722: 172727 041710       	ldf	f3,#41710		; WuHC
041726: 000405              	br	41742			; ..
;
041730: 172727 041040       	ldf	f3,#41040		; Wu B
041734: 000402              	br	41742			; ..
;
041736: 172727 040200       	ldf	f3,#40200		; Wu.@
041742: 177066 000064       	ldcif	f0,64(r6)		; 6~4.
041746: 177127 000001       	ldcif	f1,#1			; W~..
041752: 174401              	divf	f0,r1			; .y
041754: 174005              	stf	f0,r5			; .x
041756: 172405              	ldf	f0,r5			; .u
041760: 171003              	mult	f0,r3			; .r
041762: 174005              	stf	f0,r5			; .x
041764: 172404              	ldf	f0,r4			; .u
041766: 172005              	addf	f0,r5			; .t
041770: 174004              	stf	f0,r4			; .x
041772: 020527 000013       	cmp	r5,#13			; W!..
041776: 001004              	bne	42010			; ..
042000: 172404              	ldf	f0,r4			; .u
042002: 172027 040640       	addf	f0,#40640		; .t A
042006: 174004              	stf	f0,r4			; .x
042010: 005205              	inc	r5			; ..
042012: 020527 000013       	cmp	r5,#13			; W!..
042016: 003611              	ble	41442			; ..
042020: 016603 000054       	mov	54(r6),r3		; ..,.
042024: 022703 000005       	cmp	#5,r3			; C%..
042030: 103425              	bcs	42104			; ..
042032: 006303              	asl	r3			; C.
042034: 000173 065726       	jmp	@65726(r3)		; {.Vk
;
042040: 172727 040200       	ldf	f3,#40200		; Wu.@
042044: 000454              	br	42176			; ,.
;
042046: 172737 065604       	ldf	f3,@#65604		; _u.k
042052: 000451              	br	42176			; ).
;
042054: 172737 065544       	ldf	f3,@#65544		; _udk
042060: 000446              	br	42176			; &.
;
042062: 172737 065550       	ldf	f3,@#65550		; _uhk
042066: 000443              	br	42176			; #.
;
042070: 172737 065560       	ldf	f3,@#65560		; _upk
042074: 000440              	br	42176			;  .
;
042076: 172737 065574       	ldf	f3,@#65574		; _u|k
042102: 000435              	br	42176			; ..
;
042104: 172427 140200       	ldf	f0,#140200		; .u.@
042110: 174076 000106       	stf	f0,@106(r6)		; >xF.
042114: 012746 000030       	mov	#30,-(r6)		; f...
042120: 012746 000012       	mov	#12,-(r6)		; f...
042124: 004767 021100       	call	63230			; w.@"
042130: 004767 021546       	call	63702			; w.f#
042134: 013746 100002       	mov	@#100002,-(r6)		; f...
042140: 004767 031140       	call	73304			; w.`2
042144: 012746 056114       	mov	#56114,-(r6)		; f.L\
042150: 012746 000037       	mov	#37,-(r6)		; f...
042154: 011646              	mov	(r6),-(r6)		; &.
042156: 004767 032500       	call	74662			; w.@5
042162: 004767 024712       	call	67100			; w.J)
042166: 012746 065072       	mov	#65072,-(r6)		; f.:j
042172: 004767 033006       	call	75204			; w..6
042176: 170504              	tstf	r4			; Dq
042200: 170000              	cfcc				; .p
042202: 003415              	ble	42236			; ..
042204: 172476 000106       	ldf	f0,@106(r6)		; >uF.
042210: 173427 140200       	cmpf	f0,#140200		; .w.@
042214: 170000              	cfcc				; .p
042216: 002007              	bge	42236			; ..
042220: 172404              	ldf	f0,r4			; .u
042222: 171003              	mult	f0,r3			; .r
042224: 174076 000106       	stf	f0,@106(r6)		; >xF.
042230: 010176 000104       	mov	r1,@104(r6)		; ~.D.
042234: 000404              	br	42246			; ..
;
042236: 172427 140200       	ldf	f0,#140200		; .u.@
042242: 174076 000106       	stf	f0,@106(r6)		; >xF.
042246: 000405              	br	42262			; ..
;
042250: 010166 000060       	mov	r1,60(r6)		; v.0.
042254: 012776 177776 000104	mov	#177776,@104(r6)	; ~.~.D.
042262: 027627 000104 177776	cmp	@104(r6),#177776	; ./D.~.
042270: 001543              	beq	42600			; c.
042272: 172476 000106       	ldf	f0,@106(r6)		; >uF.
042276: 173427 140200       	cmpf	f0,#140200		; .w.@
042302: 170000              	cfcc				; .p
042304: 002135              	bge	42600			; ].
042306: 012746 000023       	mov	#23,-(r6)		; f...
042312: 012746 000012       	mov	#12,-(r6)		; f...
042316: 004767 020706       	call	63230			; w.F!
042322: 004767 021354       	call	63702			; w.l"
042326: 013746 100002       	mov	@#100002,-(r6)		; f...
042332: 004767 030746       	call	73304			; w.f1
042336: 012746 055762       	mov	#55762,-(r6)		; f.r[
042342: 012746 000021       	mov	#21,-(r6)		; f...
042346: 011646              	mov	(r6),-(r6)		; &.
042350: 004767 032306       	call	74662			; w.F4
042354: 172476 000106       	ldf	f0,@106(r6)		; >uF.
042360: 174046              	stf	f0,-(r6)		; &x
042362: 012746 000003       	mov	#3,-(r6)		; f...
042366: 012746 000010       	mov	#10,-(r6)		; f...
042372: 004767 036044       	call	100442			; w.$<
042376: 004767 032440       	call	75042			; w. 5
042402: 012746 000024       	mov	#24,-(r6)		; f...
042406: 012746 000012       	mov	#12,-(r6)		; f...
042412: 004767 020612       	call	63230			; w..!
042416: 004767 021260       	call	63702			; w.0"
042422: 013746 100002       	mov	@#100002,-(r6)		; f...
042426: 004767 030652       	call	73304			; w.*1
042432: 012746 056004       	mov	#56004,-(r6)		; f..\
042436: 012746 000021       	mov	#21,-(r6)		; f...
042442: 011646              	mov	(r6),-(r6)		; &.
042444: 004767 032212       	call	74662			; w..4
042450: 004767 024424       	call	67100			; w..)
042454: 010046              	mov	r0,-(r6)		; &.
042456: 004767 030622       	call	73304			; w..1
042462: 012746 177777       	mov	#177777,-(r6)		; f...
042466: 004767 022330       	call	65022			; w.X$
042472: 011046              	mov	(r0),-(r6)		; &.
042474: 004767 025052       	call	67552			; w.**
042500: 011003              	mov	(r0),r3			; ..
042502: 005763 000002       	tst	2(r3)			; s...
042506: 100427              	bmi	42566			; ..
042510: 011046              	mov	(r0),-(r6)		; &.
042512: 004767 030566       	call	73304			; w.v1
042516: 004767 031720       	call	74442			; w.P3
042522: 112603              	movb	(r6)+,r3		; ..
042524: 110366 000053       	movb	r3,53(r6)		; v.+.
042530: 004767 031744       	call	74500			; w.d3
042534: 120327 000131       	cmpb	r3,#131			; W Y.
042540: 001403              	beq	42550			; ..
042542: 120327 000171       	cmpb	r3,#171			; W y.
042546: 001003              	bne	42556			; ..
042550: 010166 000060       	mov	r1,60(r6)		; v.0.
042554: 000403              	br	42564			; ..
;
042556: 012766 177777 000060	mov	#177777,60(r6)		; v...0.
042564: 000405              	br	42600			; ..
;
042566: 010166 000060       	mov	r1,60(r6)		; v.0.
042572: 012776 177776 000104	mov	#177776,@104(r6)	; ~.~.D.
042600: 000167 176234       	jmp	41040			; w..|
;
042604: 172726              	ldf	f3,(r6)+		; Vu
042606: 174305              	stf	f3,r5			; Ex
042610: 172726              	ldf	f3,(r6)+		; Vu
042612: 174304              	stf	f3,r4			; Dx
042614: 172726              	ldf	f3,(r6)+		; Vu
042616: 172526              	ldf	f1,(r6)+		; Vu
042620: 172426              	ldf	f0,(r6)+		; .u
042622: 004767 031576       	call	74424			; w.~3
042626: 062706 000042       	add	#42,r6			; Fe".
042632: 012616              	mov	(r6)+,(r6)		; ..
042634: 012616              	mov	(r6)+,(r6)		; ..
042636: 000207              	ret				; ..
;
042640: 162706 000014       	sub	#14,r6			; Fe..
042644: 004767 031530       	call	74400			; w.X3
042650: 174046              	stf	f0,-(r6)		; &x
042652: 012700 000001       	mov	#1,r0			; @...
042656: 012701 177776       	mov	#177776,r1		; A.~.
042662: 012702 100002       	mov	#100002,r2		; B...
042666: 005066 000024       	clr	24(r6)			; 6...
042672: 026600 000024       	cmp	24(r6),r0		; .-..
042676: 002402              	blt	42704			; ..
042700: 000167 001636       	jmp	44542			; w...
;
042704: 016603 000036       	mov	36(r6),r3		; ....
042710: 160003              	sub	r0,r3			; .`
042712: 022703 000004       	cmp	#4,r3			; C%..
042716: 103002              	bcc	42724			; ..
042720: 000167 001174       	jmp	44120			; w.|.
;
042724: 006303              	asl	r3			; C.
042726: 000173 065742       	jmp	@65742(r3)		; {.bk
;
042732: 012746 000024       	mov	#24,-(r6)		; f...
042736: 060616              	add	r6,(r6)			; .a
042740: 012746 000030       	mov	#30,-(r6)		; f...
042744: 060616              	add	r6,(r6)			; .a
042746: 004767 174230       	call	37202			; w..x
042752: 005766 000024       	tst	24(r6)			; v...
042756: 003415              	ble	43012			; ..
042760: 016646 000040       	mov	40(r6),-(r6)		; &. .
042764: 016646 000024       	mov	24(r6),-(r6)		; &...
042770: 170446              	clrf	-(r6)			; &q
042772: 110046              	movb	r0,-(r6)		; &.
042774: 112746 000132       	movb	#132,-(r6)		; f.Z.
043000: 012746 000042       	mov	#42,-(r6)		; f.".
043004: 060616              	add	r6,(r6)			; .a
043006: 004767 171746       	call	34760			; w.fs
043012: 016603 000024       	mov	24(r6),r3		; ....
043016: 162703 177770       	sub	#177770,r3		; Cex.
043022: 022703 000011       	cmp	#11,r3			; C%..
043026: 103426              	bcs	43104			; ..
043030: 006303              	asl	r3			; C.
043032: 000173 065754       	jmp	@65754(r3)		; {.lk
;
043036: 012766 000002 000024	mov	#2,24(r6)		; v.....
043044: 000422              	br	43112			; ..
;
043046: 010066 000024       	mov	r0,24(r6)		; 6...
043052: 000417              	br	43112			; ..
;
043054: 012766 177777 000024	mov	#177777,24(r6)		; v.....
043062: 000413              	br	43112			; ..
;
043064: 012766 177771 000024	mov	#177771,24(r6)		; v.y...
043072: 000407              	br	43112			; ..
;
043074: 012766 177770 000024	mov	#177770,24(r6)		; v.x...
043102: 000403              	br	43112			; ..
;
043104: 012766 177772 000024	mov	#177772,24(r6)		; v.z...
043112: 000167 001010       	jmp	44126			; w...
;
043116: 012746 000030       	mov	#30,-(r6)		; f...
043122: 060616              	add	r6,(r6)			; .a
043124: 012746 000030       	mov	#30,-(r6)		; f...
043130: 060616              	add	r6,(r6)			; .a
043132: 004767 175640       	call	40776			; w. {
043136: 005766 000024       	tst	24(r6)			; v...
043142: 003416              	ble	43200			; ..
043144: 016646 000040       	mov	40(r6),-(r6)		; &. .
043150: 005046              	clr	-(r6)			; &.
043152: 172466 000032       	ldf	f0,32(r6)		; 6u..
043156: 174046              	stf	f0,-(r6)		; &x
043160: 110046              	movb	r0,-(r6)		; &.
043162: 112746 000132       	movb	#132,-(r6)		; f.Z.
043166: 012746 000042       	mov	#42,-(r6)		; f.".
043172: 060616              	add	r6,(r6)			; .a
043174: 004767 171560       	call	34760			; w.ps
043200: 016603 000024       	mov	24(r6),r3		; ....
043204: 160103              	sub	r1,r3			; C`
043206: 022703 000003       	cmp	#3,r3			; C%..
043212: 103421              	bcs	43256			; ..
043214: 006303              	asl	r3			; C.
043216: 000173 066000       	jmp	@66000(r3)		; {..l
;
043222: 012766 000002 000024	mov	#2,24(r6)		; v.....
043230: 000415              	br	43264			; ..
;
043232: 010066 000024       	mov	r0,24(r6)		; 6...
043236: 000412              	br	43264			; ..
;
043240: 010166 000024       	mov	r1,24(r6)		; v...
043244: 000407              	br	43264			; ..
;
043246: 012766 177771 000024	mov	#177771,24(r6)		; v.y...
043254: 000403              	br	43264			; ..
;
043256: 012766 177772 000024	mov	#177772,24(r6)		; v.z...
043264: 000167 000636       	jmp	44126			; w...
;
043270: 016603 000040       	mov	40(r6),r3		; .. .
043274: 162703 000013       	sub	#13,r3			; Ce..
043300: 022703 000003       	cmp	#3,r3			; C%..
043304: 103424              	bcs	43356			; ..
043306: 006303              	asl	r3			; C.
043310: 000173 066010       	jmp	@66010(r3)		; {..l
;
043314: 123700 100066       	cmpb	@#100066,r0		; @'6.
043320: 001003              	bne	43330			; ..
043322: 105066 000020       	clrb	20(r6)			; 6...
043326: 000402              	br	43334			; ..
;
043330: 110066 000020       	movb	r0,20(r6)		; 6...
043334: 000410              	br	43356			; ..
;
043336: 123700 100070       	cmpb	@#100070,r0		; @'8.
043342: 001003              	bne	43352			; ..
043344: 105066 000020       	clrb	20(r6)			; 6...
043350: 000402              	br	43356			; ..
;
043352: 110066 000020       	movb	r0,20(r6)		; 6...
043356: 016646 000040       	mov	40(r6),-(r6)		; &. .
043362: 005046              	clr	-(r6)			; &.
043364: 170446              	clrf	-(r6)			; &q
043366: 116646 000030       	movb	30(r6),-(r6)		; &...
043372: 112746 000132       	movb	#132,-(r6)		; f.Z.
043376: 012746 000042       	mov	#42,-(r6)		; f.".
043402: 060616              	add	r6,(r6)			; .a
043404: 004767 171350       	call	34760			; w.hr
043410: 016603 000024       	mov	24(r6),r3		; ....
043414: 160103              	sub	r1,r3			; C`
043416: 022703 000003       	cmp	#3,r3			; C%..
043422: 103422              	bcs	43470			; ..
043424: 006303              	asl	r3			; C.
043426: 000173 066020       	jmp	@66020(r3)		; {..l
;
043432: 012766 000002 000024	mov	#2,24(r6)		; v.....
043440: 000416              	br	43476			; ..
;
043442: 010066 000024       	mov	r0,24(r6)		; 6...
043446: 000413              	br	43476			; ..
;
043450: 012766 177771 000024	mov	#177771,24(r6)		; v.y...
043456: 000407              	br	43476			; ..
;
043460: 012766 177775 000024	mov	#177775,24(r6)		; v.}...
043466: 000403              	br	43476			; ..
;
043470: 012766 177772 000024	mov	#177772,24(r6)		; v.z...
043476: 000167 000424       	jmp	44126			; w...
;
043502: 012746 000024       	mov	#24,-(r6)		; f...
043506: 060616              	add	r6,(r6)			; .a
043510: 012746 000042       	mov	#42,-(r6)		; f.".
043514: 060616              	add	r6,(r6)			; .a
043516: 012746 000034       	mov	#34,-(r6)		; f...
043522: 060616              	add	r6,(r6)			; .a
043524: 010605              	mov	r6,r5			; ..
043526: 062705 000024       	add	#24,r5			; Ee..
043532: 004767 171730       	call	35466			; w.Xs
043536: 016605 000016       	mov	16(r6),r5		; ....
043542: 170566 000026       	tstf	26(r6)			; vq..
043546: 170000              	cfcc				; .p
043550: 003420              	ble	43612			; ..
043552: 026601 000022       	cmp	22(r6),r1		; .-..
043556: 001415              	beq	43612			; ..
043560: 016646 000040       	mov	40(r6),-(r6)		; &. .
043564: 016646 000024       	mov	24(r6),-(r6)		; &...
043570: 170446              	clrf	-(r6)			; &q
043572: 110046              	movb	r0,-(r6)		; &.
043574: 112746 000132       	movb	#132,-(r6)		; f.Z.
043600: 012746 000042       	mov	#42,-(r6)		; f.".
043604: 060616              	add	r6,(r6)			; .a
043606: 004767 171146       	call	34760			; w.fr
043612: 026601 000022       	cmp	22(r6),r1		; .-..
043616: 001002              	bne	43624			; ..
043620: 010166 000024       	mov	r1,24(r6)		; v...
043624: 016603 000024       	mov	24(r6),r3		; ....
043630: 160103              	sub	r1,r3			; C`
043632: 022703 000003       	cmp	#3,r3			; C%..
043636: 103422              	bcs	43704			; ..
043640: 006303              	asl	r3			; C.
043642: 000173 066030       	jmp	@66030(r3)		; {..l
;
043646: 012766 000002 000024	mov	#2,24(r6)		; v.....
043654: 000416              	br	43712			; ..
;
043656: 010066 000024       	mov	r0,24(r6)		; 6...
043662: 000413              	br	43712			; ..
;
043664: 012766 177774 000024	mov	#177774,24(r6)		; v.|...
043672: 000407              	br	43712			; ..
;
043674: 012766 177771 000024	mov	#177771,24(r6)		; v.y...
043702: 000403              	br	43712			; ..
;
043704: 012766 177772 000024	mov	#177772,24(r6)		; v.z...
043712: 000505              	br	44126			; E.
;
043714: 012746 000024       	mov	#24,-(r6)		; f...
043720: 060616              	add	r6,(r6)			; .a
043722: 012746 000042       	mov	#42,-(r6)		; f.".
043726: 060616              	add	r6,(r6)			; .a
043730: 012746 000034       	mov	#34,-(r6)		; f...
043734: 060616              	add	r6,(r6)			; .a
043736: 010605              	mov	r6,r5			; ..
043740: 062705 000024       	add	#24,r5			; Ee..
043744: 004767 171516       	call	35466			; w.Ns
043750: 016605 000016       	mov	16(r6),r5		; ....
043754: 005766 000022       	tst	22(r6)			; v...
043760: 003416              	ble	44016			; ..
043762: 016646 000040       	mov	40(r6),-(r6)		; &. .
043766: 005046              	clr	-(r6)			; &.
043770: 172466 000032       	ldf	f0,32(r6)		; 6u..
043774: 174046              	stf	f0,-(r6)		; &x
043776: 110046              	movb	r0,-(r6)		; &.
044000: 112746 000132       	movb	#132,-(r6)		; f.Z.
044004: 012746 000042       	mov	#42,-(r6)		; f.".
044010: 060616              	add	r6,(r6)			; .a
044012: 004767 170742       	call	34760			; w.bq
044016: 026601 000022       	cmp	22(r6),r1		; .-..
044022: 001002              	bne	44030			; ..
044024: 010166 000024       	mov	r1,24(r6)		; v...
044030: 016603 000024       	mov	24(r6),r3		; ....
044034: 160103              	sub	r1,r3			; C`
044036: 022703 000003       	cmp	#3,r3			; C%..
044042: 103422              	bcs	44110			; ..
044044: 006303              	asl	r3			; C.
044046: 000173 066040       	jmp	@66040(r3)		; {. l
;
044052: 012766 000002 000024	mov	#2,24(r6)		; v.....
044060: 000416              	br	44116			; ..
;
044062: 010066 000024       	mov	r0,24(r6)		; 6...
044066: 000413              	br	44116			; ..
;
044070: 012766 177773 000024	mov	#177773,24(r6)		; v.{...
044076: 000407              	br	44116			; ..
;
044100: 012766 177771 000024	mov	#177771,24(r6)		; v.y...
044106: 000403              	br	44116			; ..
;
044110: 012766 177772 000024	mov	#177772,24(r6)		; v.z...
044116: 000403              	br	44126			; ..
;
044120: 012766 177772 000024	mov	#177772,24(r6)		; v.z...
044126: 012746 000030       	mov	#30,-(r6)		; f...
044132: 012746 000012       	mov	#12,-(r6)		; f...
044136: 004767 017066       	call	63230			; w.6.
044142: 004767 017534       	call	63702			; w.\.
044146: 016603 000024       	mov	24(r6),r3		; ....
044152: 162703 177770       	sub	#177770,r3		; Cex.
044156: 022703 000012       	cmp	#12,r3			; C%..
044162: 103545              	bcs	44476			; e.
044164: 006303              	asl	r3			; C.
044166: 000173 066050       	jmp	@66050(r3)		; {.(l
;
044172: 012766 000002 000024	mov	#2,24(r6)		; v.....
044200: 000552              	br	44526			; j.
;
044202: 011246              	mov	(r2),-(r6)		; &.
044204: 004767 027074       	call	73304			; w.<.
044210: 012746 054276       	mov	#54276,-(r6)		; f.>X
044214: 012746 000072       	mov	#72,-(r6)		; f.:.
044220: 000535              	br	44514			; ].
;
044222: 011246              	mov	(r2),-(r6)		; &.
044224: 004767 027054       	call	73304			; w.,.
044230: 012746 054370       	mov	#54370,-(r6)		; f.xX
044234: 012746 000076       	mov	#76,-(r6)		; f.>.
044240: 000525              	br	44514			; U.
;
044242: 011246              	mov	(r2),-(r6)		; &.
044244: 004767 027034       	call	73304			; w...
044250: 012746 054466       	mov	#54466,-(r6)		; f.6Y
044254: 000767              	br	44234			; w.
;
044256: 011246              	mov	(r2),-(r6)		; &.
044260: 004767 027020       	call	73304			; w...
044264: 012746 054564       	mov	#54564,-(r6)		; f.tY
044270: 012746 000100       	mov	#100,-(r6)		; f.@.
044274: 000507              	br	44514			; G.
;
044276: 012746 000027       	mov	#27,-(r6)		; f...
044302: 012746 000012       	mov	#12,-(r6)		; f...
044306: 004767 016716       	call	63230			; w.N.
044312: 011246              	mov	(r2),-(r6)		; &.
044314: 004767 026764       	call	73304			; w.t-
044320: 012746 054664       	mov	#54664,-(r6)		; f.4Y
044324: 012746 000101       	mov	#101,-(r6)		; f.A.
044330: 011646              	mov	(r6),-(r6)		; &.
044332: 004767 030324       	call	74662			; w.T0
044336: 004767 030500       	call	75042			; w.@1
044342: 011246              	mov	(r2),-(r6)		; &.
044344: 004767 026734       	call	73304			; w.\-
044350: 012746 054766       	mov	#54766,-(r6)		; f.vY
044354: 012746 000013       	mov	#13,-(r6)		; f...
044360: 011646              	mov	(r6),-(r6)		; &.
044362: 004767 030274       	call	74662			; w.<0
044366: 172466 000026       	ldf	f0,26(r6)		; 6u..
044372: 174046              	stf	f0,-(r6)		; &x
044374: 012746 000015       	mov	#15,-(r6)		; f...
044400: 005046              	clr	-(r6)			; &.
044402: 004767 034034       	call	100442			; w..8
044406: 000445              	br	44522			; %.
;
044410: 011246              	mov	(r2),-(r6)		; &.
044412: 004767 026666       	call	73304			; w.6-
044416: 012746 055002       	mov	#55002,-(r6)		; f..Z
044422: 012746 000110       	mov	#110,-(r6)		; f.H.
044426: 000432              	br	44514			; ..
;
044430: 011246              	mov	(r2),-(r6)		; &.
044432: 004767 026646       	call	73304			; w.&-
044436: 012746 055242       	mov	#55242,-(r6)		; f."Z
044442: 012746 000062       	mov	#62,-(r6)		; f.2.
044446: 011646              	mov	(r6),-(r6)		; &.
044450: 004767 030206       	call	74662			; w..0
044454: 004767 022420       	call	67100			; w..%
044460: 000644              	br	44172			; $.
;
044462: 011246              	mov	(r2),-(r6)		; &.
044464: 004767 026614       	call	73304			; w..-
044470: 012746 055144       	mov	#55144,-(r6)		; f.dZ
044474: 000657              	br	44234			; /.
;
044476: 011246              	mov	(r2),-(r6)		; &.
044500: 004767 026600       	call	73304			; w..-
044504: 012746 055112       	mov	#55112,-(r6)		; f.JZ
044510: 012746 000032       	mov	#32,-(r6)		; f...
044514: 011646              	mov	(r6),-(r6)		; &.
044516: 004767 030140       	call	74662			; w.`0
044522: 004767 022352       	call	67100			; w.j$
044526: 012746 065076       	mov	#65076,-(r6)		; f.>j
044532: 004767 030446       	call	75204			; w.&1
044536: 000167 176130       	jmp	42672			; w.X|
;
044542: 172426              	ldf	f0,(r6)+		; .u
044544: 004767 027654       	call	74424			; w.,/
044550: 062706 000014       	add	#14,r6			; Fe..
044554: 012616              	mov	(r6)+,(r6)		; ..
044556: 012616              	mov	(r6)+,(r6)		; ..
044560: 000207              	ret				; ..
;
044562: 004767 027612       	call	74400			; w../
044566: 012700 100002       	mov	#100002,r0		; @...
044572: 012701 000040       	mov	#40,r1			; A. .
044576: 012702 000022       	mov	#22,r2			; B...
044602: 012703 000046       	mov	#46,r3			; C.&.
044606: 012705 000001       	mov	#1,r5			; E...
044612: 004767 017156       	call	63774			; w.n.
044616: 004767 016626       	call	63450			; w...
044622: 012746 000002       	mov	#2,-(r6)		; f...
044626: 012746 000037       	mov	#37,-(r6)		; f...
044632: 004767 016372       	call	63230			; w.z.
044636: 011046              	mov	(r0),-(r6)		; &.
044640: 004767 026440       	call	73304			; w. -
044644: 012746 056154       	mov	#56154,-(r6)		; f.l\
044650: 012746 000023       	mov	#23,-(r6)		; f...
044654: 011646              	mov	(r6),-(r6)		; &.
044656: 004767 030000       	call	74662			; w..0
044662: 004767 030154       	call	75042			; w.l0
044666: 011046              	mov	(r0),-(r6)		; &.
044670: 004767 026410       	call	73304			; w..-
044674: 110146              	movb	r1,-(r6)		; f.
044676: 012746 000025       	mov	#25,-(r6)		; f...
044702: 004767 027640       	call	74546			; w. /
044706: 012746 056200       	mov	#56200,-(r6)		; f..\
044712: 010346              	mov	r3,-(r6)		; f.
044714: 011646              	mov	(r6),-(r6)		; &.
044716: 004767 027740       	call	74662			; w.`/
044722: 004767 030114       	call	75042			; w.L0
044726: 011046              	mov	(r0),-(r6)		; &.
044730: 004767 026350       	call	73304			; w.h,
044734: 110146              	movb	r1,-(r6)		; f.
044736: 010546              	mov	r5,-(r6)		; f.
044740: 004767 027602       	call	74546			; w../
044744: 004767 030072       	call	75042			; w.:0
044750: 011046              	mov	(r0),-(r6)		; &.
044752: 004767 026326       	call	73304			; w.V,
044756: 110146              	movb	r1,-(r6)		; f.
044760: 012746 000020       	mov	#20,-(r6)		; f...
044764: 004767 027556       	call	74546			; w.n/
044770: 012746 056246       	mov	#56246,-(r6)		; f.&\
044774: 012746 000015       	mov	#15,-(r6)		; f...
045000: 011646              	mov	(r6),-(r6)		; &.
045002: 004767 027654       	call	74662			; w.,/
045006: 004767 030030       	call	75042			; w..0
045012: 011046              	mov	(r0),-(r6)		; &.
045014: 004767 026264       	call	73304			; w.4,
045020: 110146              	movb	r1,-(r6)		; f.
045022: 012746 000020       	mov	#20,-(r6)		; f...
045026: 004767 027514       	call	74546			; w.L/
045032: 012746 056264       	mov	#56264,-(r6)		; f.4\
045036: 012746 000060       	mov	#60,-(r6)		; f.0.
045042: 011646              	mov	(r6),-(r6)		; &.
045044: 004767 027612       	call	74662			; w../
045050: 004767 027766       	call	75042			; w.v/
045054: 011046              	mov	(r0),-(r6)		; &.
045056: 004767 026222       	call	73304			; w..,
045062: 110146              	movb	r1,-(r6)		; f.
045064: 010246              	mov	r2,-(r6)		; &.
045066: 004767 027454       	call	74546			; w.,/
045072: 012746 056344       	mov	#56344,-(r6)		; f.d\
045076: 012746 000030       	mov	#30,-(r6)		; f...
045102: 011646              	mov	(r6),-(r6)		; &.
045104: 004767 027552       	call	74662			; w.j/
045110: 004767 027726       	call	75042			; w.V/
045114: 011046              	mov	(r0),-(r6)		; &.
045116: 004767 026162       	call	73304			; w.r,
045122: 110146              	movb	r1,-(r6)		; f.
045124: 010246              	mov	r2,-(r6)		; &.
045126: 004767 027414       	call	74546			; w../
045132: 012746 056374       	mov	#56374,-(r6)		; f.|\
045136: 012746 000054       	mov	#54,-(r6)		; f.,.
045142: 011646              	mov	(r6),-(r6)		; &.
045144: 004767 027512       	call	74662			; w.J/
045150: 004767 027666       	call	75042			; w.6/
045154: 011046              	mov	(r0),-(r6)		; &.
045156: 004767 026122       	call	73304			; w.R,
045162: 110146              	movb	r1,-(r6)		; f.
045164: 010246              	mov	r2,-(r6)		; &.
045166: 004767 027354       	call	74546			; w.l.
045172: 012746 056450       	mov	#56450,-(r6)		; f.(]
045176: 012746 000041       	mov	#41,-(r6)		; f.!.
045202: 011646              	mov	(r6),-(r6)		; &.
045204: 004767 027452       	call	74662			; w.*/
045210: 004767 027626       	call	75042			; w../
045214: 011046              	mov	(r0),-(r6)		; &.
045216: 004767 026062       	call	73304			; w.2,
045222: 110146              	movb	r1,-(r6)		; f.
045224: 010546              	mov	r5,-(r6)		; f.
045226: 004767 027314       	call	74546			; w.L.
045232: 004767 027604       	call	75042			; w../
045236: 011046              	mov	(r0),-(r6)		; &.
045240: 004767 026040       	call	73304			; w. ,
045244: 110146              	movb	r1,-(r6)		; f.
045246: 010246              	mov	r2,-(r6)		; &.
045250: 004767 027272       	call	74546			; w.:.
045254: 012746 056512       	mov	#56512,-(r6)		; f.J]
045260: 010346              	mov	r3,-(r6)		; f.
045262: 011646              	mov	(r6),-(r6)		; &.
045264: 004767 027372       	call	74662			; w.z.
045270: 004767 027546       	call	75042			; w.f/
045274: 011046              	mov	(r0),-(r6)		; &.
045276: 004767 026002       	call	73304			; w..,
045302: 110146              	movb	r1,-(r6)		; f.
045304: 010246              	mov	r2,-(r6)		; &.
045306: 004767 027234       	call	74546			; w...
045312: 012746 056560       	mov	#56560,-(r6)		; f.p]
045316: 012746 000025       	mov	#25,-(r6)		; f...
045322: 011646              	mov	(r6),-(r6)		; &.
045324: 004767 027332       	call	74662			; w.Z.
045330: 004767 027506       	call	75042			; w.F/
045334: 011046              	mov	(r0),-(r6)		; &.
045336: 004767 025742       	call	73304			; w.b+
045342: 110146              	movb	r1,-(r6)		; f.
045344: 010246              	mov	r2,-(r6)		; &.
045346: 004767 027174       	call	74546			; w.|.
045352: 012746 056606       	mov	#56606,-(r6)		; f..]
045356: 012746 000031       	mov	#31,-(r6)		; f...
045362: 011646              	mov	(r6),-(r6)		; &.
045364: 004767 027272       	call	74662			; w.:.
045370: 004767 027446       	call	75042			; w.&/
045374: 011046              	mov	(r0),-(r6)		; &.
045376: 004767 025702       	call	73304			; w.B+
045402: 110146              	movb	r1,-(r6)		; f.
045404: 010246              	mov	r2,-(r6)		; &.
045406: 004767 027134       	call	74546			; w.\.
045412: 012746 056640       	mov	#56640,-(r6)		; f. ]
045416: 012746 000051       	mov	#51,-(r6)		; f.).
045422: 011646              	mov	(r6),-(r6)		; &.
045424: 004767 027232       	call	74662			; w...
045430: 004767 027406       	call	75042			; w../
045434: 011046              	mov	(r0),-(r6)		; &.
045436: 004767 025642       	call	73304			; w."+
045442: 110146              	movb	r1,-(r6)		; f.
045444: 010246              	mov	r2,-(r6)		; &.
045446: 004767 027074       	call	74546			; w.<.
045452: 012746 056712       	mov	#56712,-(r6)		; f.J]
045456: 012746 000053       	mov	#53,-(r6)		; f.+.
045462: 011646              	mov	(r6),-(r6)		; &.
045464: 004767 027172       	call	74662			; w.z.
045470: 004767 027346       	call	75042			; w.f.
045474: 011046              	mov	(r0),-(r6)		; &.
045476: 004767 025602       	call	73304			; w..+
045502: 110146              	movb	r1,-(r6)		; f.
045504: 010246              	mov	r2,-(r6)		; &.
045506: 004767 027034       	call	74546			; w...
045512: 012746 056766       	mov	#56766,-(r6)		; f.v]
045516: 012746 000045       	mov	#45,-(r6)		; f.%.
045522: 011646              	mov	(r6),-(r6)		; &.
045524: 004767 027132       	call	74662			; w.Z.
045530: 004767 027306       	call	75042			; w.F.
045534: 011046              	mov	(r0),-(r6)		; &.
045536: 004767 025542       	call	73304			; w.b+
045542: 110146              	movb	r1,-(r6)		; f.
045544: 010246              	mov	r2,-(r6)		; &.
045546: 004767 026774       	call	74546			; w.|-
045552: 012746 057034       	mov	#57034,-(r6)		; f..^
045556: 012746 000056       	mov	#56,-(r6)		; f...
045562: 011646              	mov	(r6),-(r6)		; &.
045564: 004767 027072       	call	74662			; w.:.
045570: 004767 027246       	call	75042			; w.&.
045574: 011046              	mov	(r0),-(r6)		; &.
045576: 004767 025502       	call	73304			; w.B+
045602: 110146              	movb	r1,-(r6)		; f.
045604: 010546              	mov	r5,-(r6)		; f.
045606: 004767 026734       	call	74546			; w.\-
045612: 004767 027224       	call	75042			; w...
045616: 011046              	mov	(r0),-(r6)		; &.
045620: 004767 025460       	call	73304			; w.0+
045624: 110146              	movb	r1,-(r6)		; f.
045626: 012746 000021       	mov	#21,-(r6)		; f...
045632: 004767 026710       	call	74546			; w.H-
045636: 012746 057112       	mov	#57112,-(r6)		; f.J^
045642: 012746 000065       	mov	#65,-(r6)		; f.5.
045646: 011646              	mov	(r6),-(r6)		; &.
045650: 004767 027006       	call	74662			; w...
045654: 004767 027162       	call	75042			; w.r.
045660: 011046              	mov	(r0),-(r6)		; &.
045662: 004767 025416       	call	73304			; w..+
045666: 110146              	movb	r1,-(r6)		; f.
045670: 012746 000021       	mov	#21,-(r6)		; f...
045674: 004767 026646       	call	74546			; w.&-
045700: 012746 057200       	mov	#57200,-(r6)		; f..^
045704: 010346              	mov	r3,-(r6)		; f.
045706: 011646              	mov	(r6),-(r6)		; &.
045710: 004767 026746       	call	74662			; w.f-
045714: 004767 027122       	call	75042			; w.R.
045720: 011046              	mov	(r0),-(r6)		; &.
045722: 004767 025356       	call	73304			; w.n*
045726: 110146              	movb	r1,-(r6)		; f.
045730: 012746 000021       	mov	#21,-(r6)		; f...
045734: 004767 026606       	call	74546			; w..-
045740: 012746 057246       	mov	#57246,-(r6)		; f.&^
045744: 012746 000061       	mov	#61,-(r6)		; f.1.
045750: 011646              	mov	(r6),-(r6)		; &.
045752: 004767 026704       	call	74662			; w.D-
045756: 004767 027060       	call	75042			; w.0.
045762: 011046              	mov	(r0),-(r6)		; &.
045764: 004767 025314       	call	73304			; w.L*
045770: 110146              	movb	r1,-(r6)		; f.
045772: 012746 000021       	mov	#21,-(r6)		; f...
045776: 004767 026544       	call	74546			; w.d-
046002: 012746 057330       	mov	#57330,-(r6)		; f.X^
046006: 012746 000043       	mov	#43,-(r6)		; f.#.
046012: 011646              	mov	(r6),-(r6)		; &.
046014: 004767 026642       	call	74662			; w."-
046020: 004767 027016       	call	75042			; w...
046024: 004767 015450       	call	63500			; w.(.
046030: 004767 026370       	call	74424			; w.x,
046034: 000207              	ret				; ..
;
046036: 004767 015406       	call	63450			; w...
046042: 004767 015726       	call	63774			; w.V.
046046: 012746 100172       	mov	#100172,-(r6)		; f.z.
046052: 005046              	clr	-(r6)			; &.
046054: 005046              	clr	-(r6)			; &.
046056: 004767 030616       	call	76700			; w..1
046062: 000207              	ret				; ..
;
046064: 162706 000010       	sub	#10,r6			; Fe..
046070: 004767 026304       	call	74400			; w.D,
046074: 174046              	stf	f0,-(r6)		; &x
046076: 012700 100002       	mov	#100002,r0		; @...
046102: 012701 000021       	mov	#21,r1			; A...
046106: 012702 000003       	mov	#3,r2			; B...
046112: 004767 015656       	call	63774			; w...
046116: 004767 015326       	call	63450			; w.V.
046122: 004767 166510       	call	34636			; w.Hm
046126: 012746 000002       	mov	#2,-(r6)		; f...
046132: 012746 000043       	mov	#43,-(r6)		; f.#.
046136: 004767 015066       	call	63230			; w.6.
046142: 011046              	mov	(r0),-(r6)		; &.
046144: 004767 025134       	call	73304			; w.\*
046150: 012746 057374       	mov	#57374,-(r6)		; f.|^
046154: 012746 000013       	mov	#13,-(r6)		; f...
046160: 011646              	mov	(r6),-(r6)		; &.
046162: 004767 026474       	call	74662			; w.<-
046166: 004767 020706       	call	67100			; w.F!
046172: 010246              	mov	r2,-(r6)		; &.
046174: 012746 000026       	mov	#26,-(r6)		; f...
046200: 004767 015024       	call	63230			; w...
046204: 011046              	mov	(r0),-(r6)		; &.
046206: 004767 025072       	call	73304			; w.:*
046212: 012746 057410       	mov	#57410,-(r6)		; f.._
046216: 012746 000047       	mov	#47,-(r6)		; f.'.
046222: 011646              	mov	(r6),-(r6)		; &.
046224: 004767 026432       	call	74662			; w..-
046230: 004767 020644       	call	67100			; w.$!
046234: 012746 000005       	mov	#5,-(r6)		; f...
046240: 012746 000042       	mov	#42,-(r6)		; f.".
046244: 004767 014760       	call	63230			; w.p.
046250: 011046              	mov	(r0),-(r6)		; &.
046252: 004767 025026       	call	73304			; w..*
046256: 012746 057460       	mov	#57460,-(r6)		; f.0_
046262: 012746 000014       	mov	#14,-(r6)		; f...
046266: 011646              	mov	(r6),-(r6)		; &.
046270: 004767 026366       	call	74662			; w.v,
046274: 004767 020600       	call	67100			; w..!
046300: 012746 000006       	mov	#6,-(r6)		; f...
046304: 010146              	mov	r1,-(r6)		; f.
046306: 004767 014716       	call	63230			; w.N.
046312: 011046              	mov	(r0),-(r6)		; &.
046314: 004767 024764       	call	73304			; w.t)
046320: 012746 057474       	mov	#57474,-(r6)		; f.<_
046324: 012746 000065       	mov	#65,-(r6)		; f.5.
046330: 011646              	mov	(r6),-(r6)		; &.
046332: 004767 026324       	call	74662			; w.T,
046336: 004767 020536       	call	67100			; w.^!
046342: 012746 000007       	mov	#7,-(r6)		; f...
046346: 010146              	mov	r1,-(r6)		; f.
046350: 004767 014654       	call	63230			; w.,.
046354: 011046              	mov	(r0),-(r6)		; &.
046356: 004767 024722       	call	73304			; w.R)
046362: 012746 057562       	mov	#57562,-(r6)		; f.r_
046366: 012746 000017       	mov	#17,-(r6)		; f...
046372: 011646              	mov	(r6),-(r6)		; &.
046374: 004767 026262       	call	74662			; w.2,
046400: 004767 020474       	call	67100			; w.<!
046404: 012746 000010       	mov	#10,-(r6)		; f...
046410: 010146              	mov	r1,-(r6)		; f.
046412: 004767 014612       	call	63230			; w...
046416: 011046              	mov	(r0),-(r6)		; &.
046420: 004767 024660       	call	73304			; w.0)
046424: 012746 057602       	mov	#57602,-(r6)		; f.._
046430: 012746 000070       	mov	#70,-(r6)		; f.8.
046434: 011646              	mov	(r6),-(r6)		; &.
046436: 004767 026220       	call	74662			; w..,
046442: 004767 020432       	call	67100			; w..!
046446: 012746 000011       	mov	#11,-(r6)		; f...
046452: 010146              	mov	r1,-(r6)		; f.
046454: 004767 014550       	call	63230			; w.h.
046460: 011046              	mov	(r0),-(r6)		; &.
046462: 004767 024616       	call	73304			; w..)
046466: 012746 057672       	mov	#57672,-(r6)		; f.:_
046472: 012746 000070       	mov	#70,-(r6)		; f.8.
046476: 011646              	mov	(r6),-(r6)		; &.
046500: 004767 026156       	call	74662			; w.n,
046504: 004767 020370       	call	67100			; w.x 
046510: 012746 000012       	mov	#12,-(r6)		; f...
046514: 010146              	mov	r1,-(r6)		; f.
046516: 004767 014506       	call	63230			; w.F.
046522: 011046              	mov	(r0),-(r6)		; &.
046524: 004767 024554       	call	73304			; w.l)
046530: 012746 057762       	mov	#57762,-(r6)		; f.r_
046534: 012746 000063       	mov	#63,-(r6)		; f.3.
046540: 011646              	mov	(r6),-(r6)		; &.
046542: 004767 026114       	call	74662			; w.L,
046546: 004767 020326       	call	67100			; w.V 
046552: 012746 000013       	mov	#13,-(r6)		; f...
046556: 010146              	mov	r1,-(r6)		; f.
046560: 004767 014444       	call	63230			; w.$.
046564: 011046              	mov	(r0),-(r6)		; &.
046566: 004767 024512       	call	73304			; w.J)
046572: 012746 060046       	mov	#60046,-(r6)		; f.&`
046576: 012746 000063       	mov	#63,-(r6)		; f.3.
046602: 011646              	mov	(r6),-(r6)		; &.
046604: 004767 026052       	call	74662			; w.*,
046610: 004767 020264       	call	67100			; w.4 
046614: 012746 000014       	mov	#14,-(r6)		; f...
046620: 010146              	mov	r1,-(r6)		; f.
046622: 004767 014402       	call	63230			; w...
046626: 011046              	mov	(r0),-(r6)		; &.
046630: 004767 024450       	call	73304			; w.()
046634: 012746 060132       	mov	#60132,-(r6)		; f.Z`
046640: 012746 000046       	mov	#46,-(r6)		; f.&.
046644: 011646              	mov	(r6),-(r6)		; &.
046646: 004767 026010       	call	74662			; w..,
046652: 004767 020222       	call	67100			; w.. 
046656: 012746 000015       	mov	#15,-(r6)		; f...
046662: 010146              	mov	r1,-(r6)		; f.
046664: 004767 014340       	call	63230			; w.`.
046670: 011046              	mov	(r0),-(r6)		; &.
046672: 004767 024406       	call	73304			; w..)
046676: 012746 060200       	mov	#60200,-(r6)		; f..`
046702: 012746 000041       	mov	#41,-(r6)		; f.!.
046706: 011646              	mov	(r6),-(r6)		; &.
046710: 004767 025746       	call	74662			; w.f+
046714: 004767 020160       	call	67100			; w.p 
046720: 012746 000016       	mov	#16,-(r6)		; f...
046724: 010146              	mov	r1,-(r6)		; f.
046726: 004767 014276       	call	63230			; w.>.
046732: 011046              	mov	(r0),-(r6)		; &.
046734: 004767 024344       	call	73304			; w.d(
046740: 012746 060242       	mov	#60242,-(r6)		; f."`
046744: 012746 000041       	mov	#41,-(r6)		; f.!.
046750: 011646              	mov	(r6),-(r6)		; &.
046752: 004767 025704       	call	74662			; w.D+
046756: 004767 020116       	call	67100			; w.N 
046762: 012746 000017       	mov	#17,-(r6)		; f...
046766: 010146              	mov	r1,-(r6)		; f.
046770: 004767 014234       	call	63230			; w...
046774: 011046              	mov	(r0),-(r6)		; &.
046776: 004767 024302       	call	73304			; w.B(
047002: 012746 060304       	mov	#60304,-(r6)		; f.D`
047006: 012746 000056       	mov	#56,-(r6)		; f...
047012: 011646              	mov	(r6),-(r6)		; &.
047014: 004767 025642       	call	74662			; w."+
047020: 004767 020054       	call	67100			; w., 
047024: 010146              	mov	r1,-(r6)		; f.
047026: 012746 000033       	mov	#33,-(r6)		; f...
047032: 004767 014172       	call	63230			; w.z.
047036: 011046              	mov	(r0),-(r6)		; &.
047040: 004767 024240       	call	73304			; w. (
047044: 012746 060362       	mov	#60362,-(r6)		; f.r`
047050: 012746 000035       	mov	#35,-(r6)		; f...
047054: 011646              	mov	(r6),-(r6)		; &.
047056: 004767 025600       	call	74662			; w..+
047062: 004767 020012       	call	67100			; w.. 
047066: 012746 000022       	mov	#22,-(r6)		; f...
047072: 010146              	mov	r1,-(r6)		; f.
047074: 004767 014130       	call	63230			; w.X.
047100: 011046              	mov	(r0),-(r6)		; &.
047102: 004767 024176       	call	73304			; w.~(
047106: 012746 060420       	mov	#60420,-(r6)		; f..a
047112: 012746 000043       	mov	#43,-(r6)		; f.#.
047116: 011646              	mov	(r6),-(r6)		; &.
047120: 004767 025536       	call	74662			; w.^+
047124: 004767 017750       	call	67100			; w.h.
047130: 012746 000023       	mov	#23,-(r6)		; f...
047134: 010146              	mov	r1,-(r6)		; f.
047136: 004767 014066       	call	63230			; w.6.
047142: 011046              	mov	(r0),-(r6)		; &.
047144: 004767 024134       	call	73304			; w.\(
047150: 012746 060464       	mov	#60464,-(r6)		; f.4a
047154: 010146              	mov	r1,-(r6)		; f.
047156: 011646              	mov	(r6),-(r6)		; &.
047160: 004767 025476       	call	74662			; w.>+
047164: 004767 017710       	call	67100			; w.H.
047170: 012746 000024       	mov	#24,-(r6)		; f...
047174: 010146              	mov	r1,-(r6)		; f.
047176: 004767 014026       	call	63230			; w...
047202: 011046              	mov	(r0),-(r6)		; &.
047204: 004767 024074       	call	73304			; w.<(
047210: 012746 060506       	mov	#60506,-(r6)		; f.Fa
047214: 012746 000057       	mov	#57,-(r6)		; f./.
047220: 011646              	mov	(r6),-(r6)		; &.
047222: 004767 025434       	call	74662			; w..+
047226: 004767 017646       	call	67100			; w.&.
047232: 112766 000001 000025	movb	#1,25(r6)		; v.....
047240: 105066 000026       	clrb	26(r6)			; 6...
047244: 105766 000026       	tstb	26(r6)			; v...
047250: 001402              	beq	47256			; ..
047252: 000167 001152       	jmp	50430			; w.j.
;
047256: 012746 065102       	mov	#65102,-(r6)		; f.Bj
047262: 004767 025716       	call	75204			; w.N+
047266: 005746              	tst	-(r6)			; f.
047270: 012746 100142       	mov	#100142,-(r6)		; f.b.
047274: 005046              	clr	-(r6)			; &.
047276: 005046              	clr	-(r6)			; &.
047300: 004767 027526       	call	77032			; w.V/
047304: 112666 000026       	movb	(r6)+,26(r6)		; 6...
047310: 126627 000025 000001	cmpb	25(r6),#1		; .-....
047316: 001004              	bne	47330			; ..
047320: 105066 000025       	clrb	25(r6)			; 6...
047324: 105066 000026       	clrb	26(r6)			; 6...
047330: 105766 000026       	tstb	26(r6)			; v...
047334: 001402              	beq	47342			; ..
047336: 000167 001062       	jmp	50424			; w.2.
;
047342: 012746 000006       	mov	#6,-(r6)		; f...
047346: 012746 000012       	mov	#12,-(r6)		; f...
047352: 004767 013652       	call	63230			; w.*.
047356: 011046              	mov	(r0),-(r6)		; &.
047360: 004767 023720       	call	73304			; w.P'
047364: 013746 100022       	mov	@#100022,-(r6)		; f...
047370: 012746 000004       	mov	#4,-(r6)		; f...
047374: 012746 000020       	mov	#20,-(r6)		; f...
047400: 004767 032302       	call	101706			; w.B4
047404: 004767 017470       	call	67100			; w.8.
047410: 012746 000007       	mov	#7,-(r6)		; f...
047414: 012746 000007       	mov	#7,-(r6)		; f...
047420: 004767 013604       	call	63230			; w...
047424: 011046              	mov	(r0),-(r6)		; &.
047426: 004767 023652       	call	73304			; w.*'
047432: 172437 100062       	ldf	f0,@#100062		; .u2.
047436: 174046              	stf	f0,-(r6)		; &x
047440: 012746 000002       	mov	#2,-(r6)		; f...
047444: 010246              	mov	r2,-(r6)		; &.
047446: 004767 030770       	call	100442			; w.x1
047452: 004767 017422       	call	67100			; w...
047456: 172437 100026       	ldf	f0,@#100026		; .u..
047462: 170537 100026       	tstf	@#100026		; _q..
047466: 170000              	cfcc				; .p
047470: 100002              	bpl	47476			; ..
047472: 173027 040200       	subf	f0,#40200		; .v.@
047476: 172027 040000       	addf	f0,#40000		; .t.@
047502: 175403              		; .{
047504: 010366 000020       	mov	r3,20(r6)		; v...
047510: 012746 000010       	mov	#10,-(r6)		; f...
047514: 012746 000013       	mov	#13,-(r6)		; f...
047520: 004767 013504       	call	63230			; w.D.
047524: 011046              	mov	(r0),-(r6)		; &.
047526: 004767 023552       	call	73304			; w.j'
047532: 010346              	mov	r3,-(r6)		; f.
047534: 010246              	mov	r2,-(r6)		; &.
047536: 004767 031726       	call	101470			; w.V3
047542: 004767 017332       	call	67100			; w.Z.
047546: 172437 100032       	ldf	f0,@#100032		; .u..
047552: 170537 100032       	tstf	@#100032		; _q..
047556: 170000              	cfcc				; .p
047560: 100002              	bpl	47566			; ..
047562: 173027 040200       	subf	f0,#40200		; .v.@
047566: 172027 040000       	addf	f0,#40000		; .t.@
047572: 175403              		; .{
047574: 010366 000022       	mov	r3,22(r6)		; v...
047600: 012746 000011       	mov	#11,-(r6)		; f...
047604: 012746 000013       	mov	#13,-(r6)		; f...
047610: 004767 013414       	call	63230			; w...
047614: 011046              	mov	(r0),-(r6)		; &.
047616: 004767 023462       	call	73304			; w.2'
047622: 010346              	mov	r3,-(r6)		; f.
047624: 010246              	mov	r2,-(r6)		; &.
047626: 004767 031636       	call	101470			; w..3
047632: 004767 017242       	call	67100			; w.".
047636: 012746 000012       	mov	#12,-(r6)		; f...
047642: 012746 000007       	mov	#7,-(r6)		; f...
047646: 004767 013356       	call	63230			; w.n.
047652: 011046              	mov	(r0),-(r6)		; &.
047654: 004767 023424       	call	73304			; w..'
047660: 172437 100042       	ldf	f0,@#100042		; .u".
047664: 174046              	stf	f0,-(r6)		; &x
047666: 012746 000002       	mov	#2,-(r6)		; f...
047672: 010246              	mov	r2,-(r6)		; &.
047674: 004767 030542       	call	100442			; w.b1
047700: 004767 017174       	call	67100			; w.|.
047704: 012746 000013       	mov	#13,-(r6)		; f...
047710: 012746 000007       	mov	#7,-(r6)		; f...
047714: 004767 013310       	call	63230			; w.H.
047720: 011046              	mov	(r0),-(r6)		; &.
047722: 004767 023356       	call	73304			; w.n&
047726: 172437 100046       	ldf	f0,@#100046		; .u&.
047732: 174046              	stf	f0,-(r6)		; &x
047734: 012746 000002       	mov	#2,-(r6)		; f...
047740: 010246              	mov	r2,-(r6)		; &.
047742: 004767 030474       	call	100442			; w.<1
047746: 004767 017126       	call	67100			; w.V.
047752: 012746 000014       	mov	#14,-(r6)		; f...
047756: 012746 000012       	mov	#12,-(r6)		; f...
047762: 004767 013242       	call	63230			; w.".
047766: 011046              	mov	(r0),-(r6)		; &.
047770: 004767 023310       	call	73304			; w.H&
047774: 013746 100016       	mov	@#100016,-(r6)		; f...
050000: 012746 000004       	mov	#4,-(r6)		; f...
050004: 004767 031460       	call	101470			; w.03
050010: 004767 017064       	call	67100			; w.4.
050014: 012746 000015       	mov	#15,-(r6)		; f...
050020: 012746 000007       	mov	#7,-(r6)		; f...
050024: 004767 013200       	call	63230			; w...
050030: 011046              	mov	(r0),-(r6)		; &.
050032: 004767 023246       	call	73304			; w.&&
050036: 172437 100052       	ldf	f0,@#100052		; .u*.
050042: 174046              	stf	f0,-(r6)		; &x
050044: 012746 000002       	mov	#2,-(r6)		; f...
050050: 010246              	mov	r2,-(r6)		; &.
050052: 004767 030364       	call	100442			; w.t0
050056: 004767 017016       	call	67100			; w...
050062: 012746 000016       	mov	#16,-(r6)		; f...
050066: 012746 000007       	mov	#7,-(r6)		; f...
050072: 004767 013132       	call	63230			; w.Z.
050076: 011046              	mov	(r0),-(r6)		; &.
050100: 004767 023200       	call	73304			; w..&
050104: 172437 100056       	ldf	f0,@#100056		; .u..
050110: 174046              	stf	f0,-(r6)		; &x
050112: 012746 000002       	mov	#2,-(r6)		; f...
050116: 010246              	mov	r2,-(r6)		; &.
050120: 004767 030316       	call	100442			; w.N0
050124: 004767 016750       	call	67100			; w.h.
050130: 012746 000017       	mov	#17,-(r6)		; f...
050134: 012746 000012       	mov	#12,-(r6)		; f...
050140: 004767 013064       	call	63230			; w.4.
050144: 011046              	mov	(r0),-(r6)		; &.
050146: 004767 023132       	call	73304			; w.Z&
050152: 013746 100024       	mov	@#100024,-(r6)		; f...
050156: 012746 000004       	mov	#4,-(r6)		; f...
050162: 004767 031302       	call	101470			; w.B2
050166: 004767 016706       	call	67100			; w.F.
050172: 012746 000022       	mov	#22,-(r6)		; f...
050176: 012746 000013       	mov	#13,-(r6)		; f...
050202: 004767 013022       	call	63230			; w...
050206: 105737 100066       	tstb	@#100066		; _.6.
050212: 001407              	beq	50232			; ..
050214: 011046              	mov	(r0),-(r6)		; &.
050216: 004767 023062       	call	73304			; w.2&
050222: 012746 060570       	mov	#60570,-(r6)		; f.xa
050226: 010246              	mov	r2,-(r6)		; &.
050230: 000407              	br	50250			; ..
;
050232: 011046              	mov	(r0),-(r6)		; &.
050234: 004767 023044       	call	73304			; w.$&
050240: 012746 060566       	mov	#60566,-(r6)		; f.va
050244: 012746 000002       	mov	#2,-(r6)		; f...
050250: 011646              	mov	(r6),-(r6)		; &.
050252: 004767 024404       	call	74662			; w..)
050256: 004767 016616       	call	67100			; w...
050262: 012746 000023       	mov	#23,-(r6)		; f...
050266: 010246              	mov	r2,-(r6)		; &.
050270: 004767 012734       	call	63230			; w.\.
050274: 011046              	mov	(r0),-(r6)		; &.
050276: 004767 023002       	call	73304			; w..&
050302: 172437 100036       	ldf	f0,@#100036		; .u..
050306: 174046              	stf	f0,-(r6)		; &x
050310: 012746 000001       	mov	#1,-(r6)		; f...
050314: 012746 000010       	mov	#10,-(r6)		; f...
050320: 004767 030116       	call	100442			; w.N0
050324: 004767 016550       	call	67100			; w.h.
050330: 012746 000024       	mov	#24,-(r6)		; f...
050334: 012746 000012       	mov	#12,-(r6)		; f...
050340: 004767 012664       	call	63230			; w.4.
050344: 011046              	mov	(r0),-(r6)		; &.
050346: 004767 022732       	call	73304			; w.Z%
050352: 013746 100020       	mov	@#100020,-(r6)		; f...
050356: 012746 000004       	mov	#4,-(r6)		; f...
050362: 004767 031102       	call	101470			; w.B2
050366: 004767 016506       	call	67100			; w.F.
050372: 126627 000026 000001	cmpb	26(r6),#1		; .-....
050400: 001411              	beq	50424			; ..
050402: 005746              	tst	-(r6)			; f.
050404: 012746 100172       	mov	#100172,-(r6)		; f.z.
050410: 005046              	clr	-(r6)			; &.
050412: 005046              	clr	-(r6)			; &.
050414: 004767 026350       	call	76770			; w.h,
050420: 112666 000024       	movb	(r6)+,24(r6)		; 6...
050424: 000167 176614       	jmp	47244			; w..}
;
050430: 004767 164060       	call	34514			; w.0h
050434: 172426              	ldf	f0,(r6)+		; .u
050436: 004767 023762       	call	74424			; w.r'
050442: 062706 000010       	add	#10,r6			; Fe..
050446: 000207              	ret				; ..
;
050450: 162706 000024       	sub	#24,r6			; Fe..
050454: 004767 023720       	call	74400			; w.P'
050460: 174046              	stf	f0,-(r6)		; &x
050462: 174346              	stf	f3,-(r6)		; fx
050464: 172705              	ldf	f3,r5			; Eu
050466: 174346              	stf	f3,-(r6)		; fx
050470: 012700 100002       	mov	#100002,r0		; @...
050474: 012701 000067       	mov	#67,r1			; A.7.
050500: 004767 013270       	call	63774			; w.8.
050504: 004767 164126       	call	34636			; w.Vh
050510: 012746 000002       	mov	#2,-(r6)		; f...
050514: 012746 000034       	mov	#34,-(r6)		; f...
050520: 004767 012504       	call	63230			; w.D.
050524: 011046              	mov	(r0),-(r6)		; &.
050526: 004767 022552       	call	73304			; w.j%
050532: 012746 060574       	mov	#60574,-(r6)		; f.|a
050536: 012746 000031       	mov	#31,-(r6)		; f...
050542: 011646              	mov	(r6),-(r6)		; &.
050544: 004767 024112       	call	74662			; w.J(
050550: 004767 016324       	call	67100			; w.T.
050554: 012746 000006       	mov	#6,-(r6)		; f...
050560: 012746 000024       	mov	#24,-(r6)		; f...
050564: 004767 012440       	call	63230			; w. .
050570: 011046              	mov	(r0),-(r6)		; &.
050572: 004767 022506       	call	73304			; w.F%
050576: 012746 060626       	mov	#60626,-(r6)		; f..a
050602: 012746 000043       	mov	#43,-(r6)		; f.#.
050606: 011646              	mov	(r6),-(r6)		; &.
050610: 004767 024046       	call	74662			; w.&(
050614: 004767 016260       	call	67100			; w.0.
050620: 012746 000010       	mov	#10,-(r6)		; f...
050624: 012746 000024       	mov	#24,-(r6)		; f...
050630: 004767 012374       	call	63230			; w.|.
050634: 011046              	mov	(r0),-(r6)		; &.
050636: 004767 022442       	call	73304			; w."%
050642: 012746 060672       	mov	#60672,-(r6)		; f.:a
050646: 012746 000043       	mov	#43,-(r6)		; f.#.
050652: 011646              	mov	(r6),-(r6)		; &.
050654: 004767 024002       	call	74662			; w..(
050660: 004767 016214       	call	67100			; w...
050664: 012746 000012       	mov	#12,-(r6)		; f...
050670: 012746 000024       	mov	#24,-(r6)		; f...
050674: 004767 012330       	call	63230			; w.X.
050700: 011046              	mov	(r0),-(r6)		; &.
050702: 004767 022376       	call	73304			; w.~$
050706: 012746 060736       	mov	#60736,-(r6)		; f.^a
050712: 012746 000025       	mov	#25,-(r6)		; f...
050716: 011646              	mov	(r6),-(r6)		; &.
050720: 004767 023736       	call	74662			; w.^'
050724: 004767 016150       	call	67100			; w.h.
050730: 112766 000001 000041	movb	#1,41(r6)		; v...!.
050736: 105066 000042       	clrb	42(r6)			; 6.".
050742: 105766 000042       	tstb	42(r6)			; v.".
050746: 001402              	beq	50754			; ..
050750: 000167 000506       	jmp	51462			; w.F.
;
050754: 012746 065106       	mov	#65106,-(r6)		; f.Fj
050760: 004767 024220       	call	75204			; w..(
050764: 005746              	tst	-(r6)			; f.
050766: 012746 100142       	mov	#100142,-(r6)		; f.b.
050772: 005046              	clr	-(r6)			; &.
050774: 005046              	clr	-(r6)			; &.
050776: 004767 026030       	call	77032			; w..,
051002: 112666 000042       	movb	(r6)+,42(r6)		; 6.".
051006: 126627 000041 000001	cmpb	41(r6),#1		; .-!...
051014: 001004              	bne	51026			; ..
051016: 105066 000042       	clrb	42(r6)			; 6.".
051022: 105066 000041       	clrb	41(r6)			; 6.!.
051026: 105766 000042       	tstb	42(r6)			; v.".
051032: 001402              	beq	51040			; ..
051034: 000167 000416       	jmp	51456			; w...
;
051040: 005046              	clr	-(r6)			; &.
051042: 005046              	clr	-(r6)			; &.
051044: 012746 000052       	mov	#52,-(r6)		; f.*.
051050: 060616              	add	r6,(r6)			; .a
051052: 012746 000010       	mov	#10,-(r6)		; f...
051056: 005046              	clr	-(r6)			; &.
051060: 012746 100252       	mov	#100252,-(r6)		; f.*.
051064: 005046              	clr	-(r6)			; &.
051066: 005046              	clr	-(r6)			; &.
051070: 004767 025526       	call	76622			; w.V+
051074: 016603 000044       	mov	44(r6),r3		; ..$.
051100: 010366 000030       	mov	r3,30(r6)		; v...
051104: 016602 000046       	mov	46(r6),r2		; ..&.
051110: 010266 000032       	mov	r2,32(r6)		; 6...
051114: 172466 000050       	ldf	f0,50(r6)		; 6u(.
051120: 174005              	stf	f0,r5			; .x
051122: 012746 000006       	mov	#6,-(r6)		; f...
051126: 010146              	mov	r1,-(r6)		; f.
051130: 004767 012074       	call	63230			; w.<.
051134: 004767 012500       	call	63640			; w.@.
051140: 012746 000006       	mov	#6,-(r6)		; f...
051144: 010146              	mov	r1,-(r6)		; f.
051146: 004767 012056       	call	63230			; w...
051152: 011046              	mov	(r0),-(r6)		; &.
051154: 004767 022124       	call	73304			; w.T$
051160: 010346              	mov	r3,-(r6)		; f.
051162: 012746 000007       	mov	#7,-(r6)		; f...
051166: 012746 000020       	mov	#20,-(r6)		; f...
051172: 004767 030510       	call	101706			; w.H1
051176: 012746 060764       	mov	#60764,-(r6)		; f.ta
051202: 012746 000003       	mov	#3,-(r6)		; f...
051206: 011646              	mov	(r6),-(r6)		; &.
051210: 004767 023446       	call	74662			; w.&'
051214: 010346              	mov	r3,-(r6)		; f.
051216: 012746 000007       	mov	#7,-(r6)		; f...
051222: 004767 030464       	call	101712			; w.41
051226: 004767 015646       	call	67100			; w.&.
051232: 012746 000010       	mov	#10,-(r6)		; f...
051236: 010146              	mov	r1,-(r6)		; f.
051240: 004767 011764       	call	63230			; w.t.
051244: 004767 012370       	call	63640			; w.x.
051250: 012746 000010       	mov	#10,-(r6)		; f...
051254: 010146              	mov	r1,-(r6)		; f.
051256: 004767 011746       	call	63230			; w.f.
051262: 011046              	mov	(r0),-(r6)		; &.
051264: 004767 022014       	call	73304			; w..$
051270: 010246              	mov	r2,-(r6)		; &.
051272: 012746 000007       	mov	#7,-(r6)		; f...
051276: 012746 000020       	mov	#20,-(r6)		; f...
051302: 004767 030400       	call	101706			; w..1
051306: 012746 060770       	mov	#60770,-(r6)		; f.xa
051312: 012746 000003       	mov	#3,-(r6)		; f...
051316: 011646              	mov	(r6),-(r6)		; &.
051320: 004767 023336       	call	74662			; w.^&
051324: 010246              	mov	r2,-(r6)		; &.
051326: 012746 000007       	mov	#7,-(r6)		; f...
051332: 004767 030354       	call	101712			; w.l0
051336: 004767 015536       	call	67100			; w.^.
051342: 012746 000012       	mov	#12,-(r6)		; f...
051346: 010146              	mov	r1,-(r6)		; f.
051350: 004767 011654       	call	63230			; w.,.
051354: 004767 012260       	call	63640			; w.0.
051360: 012746 000012       	mov	#12,-(r6)		; f...
051364: 010146              	mov	r1,-(r6)		; f.
051366: 004767 011636       	call	63230			; w...
051372: 011046              	mov	(r0),-(r6)		; &.
051374: 004767 021704       	call	73304			; w.D#
051400: 172405              	ldf	f0,r5			; .u
051402: 174046              	stf	f0,-(r6)		; &x
051404: 012746 000002       	mov	#2,-(r6)		; f...
051410: 012746 000003       	mov	#3,-(r6)		; f...
051414: 004767 027022       	call	100442			; w...
051420: 004767 015454       	call	67100			; w.,.
051424: 126627 000042 000001	cmpb	42(r6),#1		; .-"...
051432: 001411              	beq	51456			; ..
051434: 005746              	tst	-(r6)			; f.
051436: 012746 100172       	mov	#100172,-(r6)		; f.z.
051442: 005046              	clr	-(r6)			; &.
051444: 005046              	clr	-(r6)			; &.
051446: 004767 025316       	call	76770			; w.N*
051452: 112666 000040       	movb	(r6)+,40(r6)		; 6. .
051456: 000167 177260       	jmp	50742			; w.0~
;
051462: 004767 163026       	call	34514			; w..f
051466: 172726              	ldf	f3,(r6)+		; Vu
051470: 174305              	stf	f3,r5			; Ex
051472: 172726              	ldf	f3,(r6)+		; Vu
051474: 172426              	ldf	f0,(r6)+		; .u
051476: 004767 022722       	call	74424			; w.R%
051502: 062706 000024       	add	#24,r6			; Fe..
051506: 000207              	ret				; ..
;
051510: 162706 000014       	sub	#14,r6			; Fe..
051514: 004767 022660       	call	74400			; w.0%
051520: 174046              	stf	f0,-(r6)		; &x
051522: 012700 100002       	mov	#100002,r0		; @...
051526: 012701 000003       	mov	#3,r1			; A...
051532: 012702 000002       	mov	#2,r2			; B...
051536: 004767 012232       	call	63774			; w...
051542: 004767 011702       	call	63450			; w.B.
051546: 012746 100072       	mov	#100072,-(r6)		; f.:.
051552: 004767 024600       	call	76356			; w..)
051556: 010146              	mov	r1,-(r6)		; f.
051560: 012746 000021       	mov	#21,-(r6)		; f...
051564: 004767 011440       	call	63230			; w. .
051570: 011046              	mov	(r0),-(r6)		; &.
051572: 004767 021506       	call	73304			; w.F#
051576: 012746 060774       	mov	#60774,-(r6)		; f.|a
051602: 012746 000063       	mov	#63,-(r6)		; f.3.
051606: 011646              	mov	(r6),-(r6)		; &.
051610: 004767 023046       	call	74662			; w.&&
051614: 004767 023222       	call	75042			; w..&
051620: 012746 000010       	mov	#10,-(r6)		; f...
051624: 012746 000012       	mov	#12,-(r6)		; f...
051630: 004767 011374       	call	63230			; w.|.
051634: 011046              	mov	(r0),-(r6)		; &.
051636: 004767 021442       	call	73304			; w."#
051642: 012746 061060       	mov	#61060,-(r6)		; f.0b
051646: 012746 000015       	mov	#15,-(r6)		; f...
051652: 011646              	mov	(r6),-(r6)		; &.
051654: 004767 023002       	call	74662			; w..&
051660: 172437 100042       	ldf	f0,@#100042		; .u".
051664: 174046              	stf	f0,-(r6)		; &x
051666: 010246              	mov	r2,-(r6)		; &.
051670: 010146              	mov	r1,-(r6)		; f.
051672: 004767 026544       	call	100442			; w.d-
051676: 004767 023140       	call	75042			; w.`&
051702: 011046              	mov	(r0),-(r6)		; &.
051704: 004767 021374       	call	73304			; w.|"
051710: 012746 061076       	mov	#61076,-(r6)		; f.>b
051714: 012746 000026       	mov	#26,-(r6)		; f...
051720: 011646              	mov	(r6),-(r6)		; &.
051722: 004767 022734       	call	74662			; w.\%
051726: 172437 100046       	ldf	f0,@#100046		; .u&.
051732: 174046              	stf	f0,-(r6)		; &x
051734: 010246              	mov	r2,-(r6)		; &.
051736: 010146              	mov	r1,-(r6)		; f.
051740: 004767 026476       	call	100442			; w.>-
051744: 004767 023072       	call	75042			; w.:&
051750: 012746 000014       	mov	#14,-(r6)		; f...
051754: 012746 000012       	mov	#12,-(r6)		; f...
051760: 004767 011244       	call	63230			; w.$.
051764: 011046              	mov	(r0),-(r6)		; &.
051766: 004767 021312       	call	73304			; w.J"
051772: 012746 061124       	mov	#61124,-(r6)		; f.Tb
051776: 012746 000053       	mov	#53,-(r6)		; f.+.
052002: 011646              	mov	(r6),-(r6)		; &.
052004: 004767 022652       	call	74662			; w.*%
052010: 004767 023026       	call	75042			; w..&
052014: 011046              	mov	(r0),-(r6)		; &.
052016: 004767 021262       	call	73304			; w.2"
052022: 012746 061200       	mov	#61200,-(r6)		; f..b
052026: 012746 000071       	mov	#71,-(r6)		; f.9.
052032: 011646              	mov	(r6),-(r6)		; &.
052034: 004767 022622       	call	74662			; w..%
052040: 004767 022776       	call	75042			; w.~%
052044: 011046              	mov	(r0),-(r6)		; &.
052046: 004767 021232       	call	73304			; w.."
052052: 012746 061272       	mov	#61272,-(r6)		; f.:b
052056: 012746 000071       	mov	#71,-(r6)		; f.9.
052062: 011646              	mov	(r6),-(r6)		; &.
052064: 004767 022572       	call	74662			; w.z%
052070: 004767 022746       	call	75042			; w.f%
052074: 011046              	mov	(r0),-(r6)		; &.
052076: 004767 021202       	call	73304			; w.."
052102: 012746 061364       	mov	#61364,-(r6)		; f.tb
052106: 012746 000071       	mov	#71,-(r6)		; f.9.
052112: 011646              	mov	(r6),-(r6)		; &.
052114: 004767 022542       	call	74662			; w.b%
052120: 004767 014754       	call	67100			; w.l.
052124: 012746 000017       	mov	#17,-(r6)		; f...
052130: 012746 000103       	mov	#103,-(r6)		; f.C.
052134: 010146              	mov	r1,-(r6)		; f.
052136: 004767 163164       	call	35326			; w.tf
052142: 013746 100000       	mov	@#100000,-(r6)		; f...
052146: 004767 015400       	call	67552			; w...
052152: 013703 100000       	mov	@#100000,r3		; C...
052156: 005763 000002       	tst	2(r3)			; s...
052162: 100002              	bpl	52170			; ..
052164: 000167 000440       	jmp	52630			; w. .
;
052170: 012746 000017       	mov	#17,-(r6)		; f...
052174: 012746 000104       	mov	#104,-(r6)		; f.D.
052200: 004767 011024       	call	63230			; w...
052204: 013746 100000       	mov	@#100000,-(r6)		; f...
052210: 004767 021070       	call	73304			; w.8"
052214: 004767 022222       	call	74442			; w..$
052220: 112666 000020       	movb	(r6)+,20(r6)		; 6...
052224: 004767 022250       	call	74500			; w.($
052230: 005003              	clr	r3			; ..
052232: 156603 000020       	bisb	20(r6),r3		; .]..
052236: 162703 000060       	sub	#60,r3			; Ce0.
052242: 010366 000022       	mov	r3,22(r6)		; v...
052246: 020103              	cmp	r1,r3			; C 
052250: 103537              	bcs	52550			; _.
052252: 006303              	asl	r3			; C.
052254: 000173 066076       	jmp	@66076(r3)		; {.>l
;
052260: 000563              	br	52630			; s.
;
052262: 012766 000005 000026	mov	#5,26(r6)		; v.....
052270: 010266 000032       	mov	r2,32(r6)		; 6...
052274: 016646 000026       	mov	26(r6),-(r6)		; &...
052300: 016646 000034       	mov	34(r6),-(r6)		; &...
052304: 004767 170330       	call	42640			; w.Xp
052310: 000547              	br	52630			; g.
;
052312: 012766 000006 000026	mov	#6,26(r6)		; v.....
052320: 000763              	br	52270			; s.
;
052322: 005066 000024       	clr	24(r6)			; 6...
052326: 026602 000024       	cmp	24(r6),r2		; .-..
052332: 002105              	bge	52546			; E.
052334: 016603 000024       	mov	24(r6),r3		; ....
052340: 062703 000005       	add	#5,r3			; Ce..
052344: 010366 000026       	mov	r3,26(r6)		; v...
052350: 010266 000032       	mov	r2,32(r6)		; 6...
052354: 012746 000021       	mov	#21,-(r6)		; f...
052360: 012746 000012       	mov	#12,-(r6)		; f...
052364: 004767 010640       	call	63230			; w. .
052370: 005766 000024       	tst	24(r6)			; v...
052374: 001010              	bne	52416			; ..
052376: 011046              	mov	(r0),-(r6)		; &.
052400: 004767 020700       	call	73304			; w.@!
052404: 012746 061060       	mov	#61060,-(r6)		; f.0b
052410: 012746 000015       	mov	#15,-(r6)		; f...
052414: 000415              	br	52450			; ..
;
052416: 012746 000021       	mov	#21,-(r6)		; f...
052422: 012746 000001       	mov	#1,-(r6)		; f...
052426: 004767 010576       	call	63230			; w.~.
052432: 011046              	mov	(r0),-(r6)		; &.
052434: 004767 020644       	call	73304			; w.$!
052440: 012746 061076       	mov	#61076,-(r6)		; f.>b
052444: 012746 000026       	mov	#26,-(r6)		; f...
052450: 011646              	mov	(r6),-(r6)		; &.
052452: 004767 022204       	call	74662			; w..$
052456: 004767 022360       	call	75042			; w.p$
052462: 010346              	mov	r3,-(r6)		; f.
052464: 016646 000034       	mov	34(r6),-(r6)		; &...
052470: 004767 170144       	call	42640			; w.dp
052474: 005266 000024       	inc	24(r6)			; 6...
052500: 012766 000021 000030	mov	#21,30(r6)		; v.....
052506: 026627 000030 000030	cmp	30(r6),#30		; .-....
052514: 002013              	bge	52544			; ..
052516: 016646 000030       	mov	30(r6),-(r6)		; &...
052522: 012746 000001       	mov	#1,-(r6)		; f...
052526: 004767 010476       	call	63230			; w.>.
052532: 004767 011144       	call	63702			; w.d.
052536: 005266 000030       	inc	30(r6)			; 6...
052542: 000761              	br	52506			; q.
;
052544: 000670              	br	52326			; 8.
;
052546: 000430              	br	52630			; ..
;
052550: 012746 000030       	mov	#30,-(r6)		; f...
052554: 012746 000012       	mov	#12,-(r6)		; f...
052560: 004767 010444       	call	63230			; w.$.
052564: 004767 011112       	call	63702			; w.J.
052570: 011046              	mov	(r0),-(r6)		; &.
052572: 004767 020506       	call	73304			; w.F!
052576: 012746 061456       	mov	#61456,-(r6)		; f..c
052602: 012746 000035       	mov	#35,-(r6)		; f...
052606: 011646              	mov	(r6),-(r6)		; &.
052610: 004767 022046       	call	74662			; w.&$
052614: 004767 014260       	call	67100			; w.0.
052620: 012746 065112       	mov	#65112,-(r6)		; f.Jj
052624: 004767 022354       	call	75204			; w.l$
052630: 012746 100072       	mov	#100072,-(r6)		; f.:.
052634: 004767 023570       	call	76430			; w.x'
052640: 172426              	ldf	f0,(r6)+		; .u
052642: 004767 021556       	call	74424			; w.n#
052646: 062706 000014       	add	#14,r6			; Fe..
052652: 000207              	ret				; ..
;
052654: 162706 000006       	sub	#6,r6			; Fe..
052660: 004767 021514       	call	74400			; w.L#
052664: 174046              	stf	f0,-(r6)		; &x
052666: 012700 100002       	mov	#100002,r0		; @...
052672: 012701 100000       	mov	#100000,r1		; A...
052676: 004767 011072       	call	63774			; w.:.
052702: 004767 010542       	call	63450			; w.b.
052706: 012746 100072       	mov	#100072,-(r6)		; f.:.
052712: 004767 023440       	call	76356			; w. '
052716: 012746 000003       	mov	#3,-(r6)		; f...
052722: 012746 000021       	mov	#21,-(r6)		; f...
052726: 004767 010276       	call	63230			; w.>.
052732: 011046              	mov	(r0),-(r6)		; &.
052734: 004767 020344       	call	73304			; w.d 
052740: 012746 061514       	mov	#61514,-(r6)		; f.Lc
052744: 012746 000071       	mov	#71,-(r6)		; f.9.
052750: 011646              	mov	(r6),-(r6)		; &.
052752: 004767 021704       	call	74662			; w.D#
052756: 004767 022060       	call	75042			; w.0$
052762: 012746 000010       	mov	#10,-(r6)		; f...
052766: 012746 000012       	mov	#12,-(r6)		; f...
052772: 004767 010232       	call	63230			; w...
052776: 011046              	mov	(r0),-(r6)		; &.
053000: 004767 020300       	call	73304			; w.@ 
053004: 012746 061606       	mov	#61606,-(r6)		; f..c
053010: 012746 000041       	mov	#41,-(r6)		; f.!.
053014: 011646              	mov	(r6),-(r6)		; &.
053016: 004767 021640       	call	74662			; w. #
053022: 172437 100036       	ldf	f0,@#100036		; .u..
053026: 174046              	stf	f0,-(r6)		; &x
053030: 012746 000001       	mov	#1,-(r6)		; f...
053034: 012746 000010       	mov	#10,-(r6)		; f...
053040: 004767 025376       	call	100442			; w.~*
053044: 004767 021772       	call	75042			; w.z#
053050: 011046              	mov	(r0),-(r6)		; &.
053052: 004767 020226       	call	73304			; w.. 
053056: 012746 061650       	mov	#61650,-(r6)		; f.(c
053062: 012746 000054       	mov	#54,-(r6)		; f.,.
053066: 011646              	mov	(r6),-(r6)		; &.
053070: 004767 021566       	call	74662			; w.v#
053074: 004767 014000       	call	67100			; w...
053100: 012746 000011       	mov	#11,-(r6)		; f...
053104: 012746 000055       	mov	#55,-(r6)		; f.-.
053110: 012746 000003       	mov	#3,-(r6)		; f...
053114: 004767 162206       	call	35326			; w..d
053120: 011146              	mov	(r1),-(r6)		; f.
053122: 004767 014424       	call	67552			; w...
053126: 011103              	mov	(r1),r3			; C.
053130: 005763 000002       	tst	2(r3)			; s...
053134: 100442              	bmi	53242			; ".
053136: 012746 000011       	mov	#11,-(r6)		; f...
053142: 012746 000056       	mov	#56,-(r6)		; f...
053146: 004767 010056       	call	63230			; w...
053152: 011146              	mov	(r1),-(r6)		; f.
053154: 004767 020124       	call	73304			; w.T 
053160: 004767 021256       	call	74442			; w.."
053164: 112603              	movb	(r6)+,r3		; ..
053166: 110366 000024       	movb	r3,24(r6)		; v...
053172: 004767 021302       	call	74500			; w.B"
053176: 120327 000131       	cmpb	r3,#131			; W Y.
053202: 001403              	beq	53212			; ..
053204: 120327 000171       	cmpb	r3,#171			; W y.
053210: 001014              	bne	53242			; ..
053212: 012766 000014 000020	mov	#14,20(r6)		; v.....
053220: 012766 000002 000022	mov	#2,22(r6)		; v.....
053226: 016646 000020       	mov	20(r6),-(r6)		; &...
053232: 016646 000024       	mov	24(r6),-(r6)		; &...
053236: 004767 167376       	call	42640			; w.~n
053242: 012746 100072       	mov	#100072,-(r6)		; f.:.
053246: 004767 023156       	call	76430			; w.n&
053252: 172426              	ldf	f0,(r6)+		; .u
053254: 004767 021144       	call	74424			; w.d"
053260: 062706 000006       	add	#6,r6			; Fe..
053264: 000207              	ret				; ..
;
053266: 162706 000006       	sub	#6,r6			; Fe..
053272: 004767 021102       	call	74400			; w.B"
053276: 012700 100002       	mov	#100002,r0		; @...
053302: 012701 100000       	mov	#100000,r1		; A...
053306: 004767 010462       	call	63774			; w.2.
053312: 004767 010132       	call	63450			; w.Z.
053316: 012746 100072       	mov	#100072,-(r6)		; f.:.
053322: 004767 023030       	call	76356			; w..&
053326: 012746 000003       	mov	#3,-(r6)		; f...
053332: 012746 000021       	mov	#21,-(r6)		; f...
053336: 004767 007666       	call	63230			; w.6.
053342: 011046              	mov	(r0),-(r6)		; &.
053344: 004767 017734       	call	73304			; w.\.
053350: 012746 061724       	mov	#61724,-(r6)		; f.Tc
053354: 012746 000066       	mov	#66,-(r6)		; f.6.
053360: 011646              	mov	(r6),-(r6)		; &.
053362: 004767 021274       	call	74662			; w.<"
053366: 004767 021450       	call	75042			; w.(#
053372: 012746 000010       	mov	#10,-(r6)		; f...
053376: 012746 000012       	mov	#12,-(r6)		; f...
053402: 004767 007622       	call	63230			; w...
053406: 011046              	mov	(r0),-(r6)		; &.
053410: 004767 017670       	call	73304			; w.8.
053414: 012746 062012       	mov	#62012,-(r6)		; f..d
053420: 012746 000056       	mov	#56,-(r6)		; f...
053424: 011646              	mov	(r6),-(r6)		; &.
053426: 004767 021230       	call	74662			; w.."
053432: 013746 100016       	mov	@#100016,-(r6)		; f...
053436: 012746 000007       	mov	#7,-(r6)		; f...
053442: 004767 026022       	call	101470			; w..,
053446: 004767 021370       	call	75042			; w.x"
053452: 011046              	mov	(r0),-(r6)		; &.
053454: 004767 017624       	call	73304			; w...
053460: 012746 062070       	mov	#62070,-(r6)		; f.8d
053464: 012746 000054       	mov	#54,-(r6)		; f.,.
053470: 011646              	mov	(r6),-(r6)		; &.
053472: 004767 021164       	call	74662			; w.t"
053476: 004767 013376       	call	67100			; w.~.
053502: 012746 000011       	mov	#11,-(r6)		; f...
053506: 012746 000055       	mov	#55,-(r6)		; f.-.
053512: 012746 000003       	mov	#3,-(r6)		; f...
053516: 004767 161604       	call	35326			; w..c
053522: 011146              	mov	(r1),-(r6)		; f.
053524: 004767 014022       	call	67552			; w...
053530: 011103              	mov	(r1),r3			; C.
053532: 005763 000002       	tst	2(r3)			; s...
053536: 100442              	bmi	53644			; ".
053540: 012746 000011       	mov	#11,-(r6)		; f...
053544: 012746 000056       	mov	#56,-(r6)		; f...
053550: 004767 007454       	call	63230			; w.,.
053554: 011146              	mov	(r1),-(r6)		; f.
053556: 004767 017522       	call	73304			; w.R.
053562: 004767 020654       	call	74442			; w.,!
053566: 112603              	movb	(r6)+,r3		; ..
053570: 110366 000020       	movb	r3,20(r6)		; v...
053574: 004767 020700       	call	74500			; w.@!
053600: 120327 000131       	cmpb	r3,#131			; W Y.
053604: 001403              	beq	53614			; ..
053606: 120327 000171       	cmpb	r3,#171			; W y.
053612: 001014              	bne	53644			; ..
053614: 012766 000007 000014	mov	#7,14(r6)		; v.....
053622: 012766 000001 000016	mov	#1,16(r6)		; v.....
053630: 016646 000014       	mov	14(r6),-(r6)		; &...
053634: 016646 000020       	mov	20(r6),-(r6)		; &...
053640: 004767 166774       	call	42640			; w.|m
053644: 012746 100072       	mov	#100072,-(r6)		; f.:.
053650: 004767 022554       	call	76430			; w.l%
053654: 004767 020544       	call	74424			; w.d!
053660: 062706 000006       	add	#6,r6			; Fe..
053664: 000207              	ret				; ..
;
053666: 162706 000020       	sub	#20,r6			; Fe..
053672: 004767 020502       	call	74400			; w.B!
053676: 174046              	stf	f0,-(r6)		; &x
053700: 012700 100002       	mov	#100002,r0		; @...
053704: 012701 000003       	mov	#3,r1			; A...
053710: 012702 000021       	mov	#21,r2			; B...
053714: 004767 010054       	call	63774			; w.,.
053720: 004767 007524       	call	63450			; w.T.
053724: 012746 100072       	mov	#100072,-(r6)		; f.:.
053730: 004767 022422       	call	76356			; w..%
053734: 010146              	mov	r1,-(r6)		; f.
053736: 010246              	mov	r2,-(r6)		; &.
053740: 004767 007264       	call	63230			; w.4.
053744: 011046              	mov	(r0),-(r6)		; &.
053746: 004767 017332       	call	73304			; w.Z.
053752: 012746 062226       	mov	#62226,-(r6)		; f..d
053756: 012746 000042       	mov	#42,-(r6)		; f.".
053762: 011646              	mov	(r6),-(r6)		; &.
053764: 004767 020672       	call	74662			; w.:!
053770: 004767 021046       	call	75042			; w.&"
053774: 172437 100026       	ldf	f0,@#100026		; .u..
054000: 170537 100026       	tstf	@#100026		; _q..
054004: 170000              	cfcc				; .p
054006: 100002              	bpl	54014			; ..
054010: 173027 040200       	subf	f0,#40200		; .v.@
054014: 172027 040000       	addf	f0,#40000		; .t.@
054020: 175403              		; .{
054022: 010366 000026       	mov	r3,26(r6)		; v...
054026: 012746 000010       	mov	#10,-(r6)		; f...
054032: 012746 000012       	mov	#12,-(r6)		; f...
054036: 004767 007166       	call	63230			; w.v.
054042: 011046              	mov	(r0),-(r6)		; &.
054044: 004767 017234       	call	73304			; w...
054050: 012746 062270       	mov	#62270,-(r6)		; f.8d
054054: 012746 000037       	mov	#37,-(r6)		; f...
054060: 011646              	mov	(r6),-(r6)		; &.
054062: 004767 020574       	call	74662			; w.|!
054066: 010346              	mov	r3,-(r6)		; f.
054070: 012746 000007       	mov	#7,-(r6)		; f...
054074: 004767 025370       	call	101470			; w.x*
054100: 004767 020736       	call	75042			; w.^!
054104: 172437 100032       	ldf	f0,@#100032		; .u..
054110: 170537 100032       	tstf	@#100032		; _q..
054114: 170000              	cfcc				; .p
054116: 100002              	bpl	54124			; ..
054120: 173027 040200       	subf	f0,#40200		; .v.@
054124: 172027 040000       	addf	f0,#40000		; .t.@
054130: 175403              		; .{
054132: 010366 000030       	mov	r3,30(r6)		; v...
054136: 011046              	mov	(r0),-(r6)		; &.
054140: 004767 017140       	call	73304			; w.`.
054144: 012746 062330       	mov	#62330,-(r6)		; f.Xd
054150: 012746 000050       	mov	#50,-(r6)		; f.(.
054154: 011646              	mov	(r6),-(r6)		; &.
054156: 004767 020500       	call	74662			; w.@!
054162: 010346              	mov	r3,-(r6)		; f.
054164: 012746 000007       	mov	#7,-(r6)		; f...
054170: 004767 025274       	call	101470			; w.<*
054174: 004767 012700       	call	67100			; w.@.
054200: 012746 000014       	mov	#14,-(r6)		; f...
054204: 012746 000012       	mov	#12,-(r6)		; f...
054210: 004767 007014       	call	63230			; w...
054214: 011046              	mov	(r0),-(r6)		; &.
054216: 004767 017062       	call	73304			; w.2.
054222: 012746 062400       	mov	#62400,-(r6)		; f..e
054226: 012746 000052       	mov	#52,-(r6)		; f.*.
054232: 011646              	mov	(r6),-(r6)		; &.
054234: 004767 020422       	call	74662			; w..!
054240: 004767 020576       	call	75042			; w.~!
054244: 011046              	mov	(r0),-(r6)		; &.
054246: 004767 017032       	call	73304			; w...
054252: 012746 062452       	mov	#62452,-(r6)		; f.*e
054256: 012746 000055       	mov	#55,-(r6)		; f.-.
054262: 011646              	mov	(r6),-(r6)		; &.
054264: 004767 020372       	call	74662			; w.z 
054270: 004767 020546       	call	75042			; w.f!
054274: 011046              	mov	(r0),-(r6)		; &.
054276: 004767 017002       	call	73304			; w...
054302: 012746 062530       	mov	#62530,-(r6)		; f.Xe
054306: 012746 000055       	mov	#55,-(r6)		; f.-.
054312: 011646              	mov	(r6),-(r6)		; &.
054314: 004767 020342       	call	74662			; w.b 
054320: 004767 020516       	call	75042			; w.N!
054324: 011046              	mov	(r0),-(r6)		; &.
054326: 004767 016752       	call	73304			; w.j.
054332: 012746 062606       	mov	#62606,-(r6)		; f..e
054336: 012746 000060       	mov	#60,-(r6)		; f.0.
054342: 011646              	mov	(r6),-(r6)		; &.
054344: 004767 020312       	call	74662			; w.J 
054350: 004767 012524       	call	67100			; w.T.
054354: 012746 000017       	mov	#17,-(r6)		; f...
054360: 012746 000072       	mov	#72,-(r6)		; f.:.
054364: 010146              	mov	r1,-(r6)		; f.
054366: 004767 160734       	call	35326			; w.\a
054372: 013746 100000       	mov	@#100000,-(r6)		; f...
054376: 004767 013150       	call	67552			; w.h.
054402: 013703 100000       	mov	@#100000,r3		; C...
054406: 005763 000002       	tst	2(r3)			; s...
054412: 100002              	bpl	54420			; ..
054414: 000167 000434       	jmp	55054			; w...
;
054420: 012746 000017       	mov	#17,-(r6)		; f...
054424: 012746 000073       	mov	#73,-(r6)		; f.;.
054430: 004767 006574       	call	63230			; w.|.
054434: 013746 100000       	mov	@#100000,-(r6)		; f...
054440: 004767 016640       	call	73304			; w. .
054444: 004767 017772       	call	74442			; w.z.
054450: 112666 000020       	movb	(r6)+,20(r6)		; 6...
054454: 004767 020020       	call	74500			; w.. 
054460: 005003              	clr	r3			; ..
054462: 156603 000020       	bisb	20(r6),r3		; .]..
054466: 162703 000060       	sub	#60,r3			; Ce0.
054472: 010366 000022       	mov	r3,22(r6)		; v...
054476: 020103              	cmp	r1,r3			; C 
054500: 103535              	bcs	54774			; ].
054502: 006303              	asl	r3			; C.
054504: 000173 066106       	jmp	@66106(r3)		; {.Fl
;
054510: 000561              	br	55054			; q.
;
054512: 010166 000032       	mov	r1,32(r6)		; v...
054516: 012766 000002 000036	mov	#2,36(r6)		; v.....
054524: 016646 000032       	mov	32(r6),-(r6)		; &...
054530: 016646 000040       	mov	40(r6),-(r6)		; &. .
054534: 004767 166100       	call	42640			; w.@l
054540: 000545              	br	55054			; e.
;
054542: 012766 000004 000032	mov	#4,32(r6)		; v.....
054550: 000762              	br	54516			; r.
;
054552: 005066 000024       	clr	24(r6)			; 6...
054556: 026627 000024 000002	cmp	24(r6),#2		; .-....
054564: 002102              	bge	54772			; B.
054566: 016603 000024       	mov	24(r6),r3		; ....
054572: 060103              	add	r1,r3			; C`
054574: 010366 000032       	mov	r3,32(r6)		; v...
054600: 012766 000002 000036	mov	#2,36(r6)		; v.....
054606: 010246              	mov	r2,-(r6)		; &.
054610: 012746 000012       	mov	#12,-(r6)		; f...
054614: 004767 006410       	call	63230			; w...
054620: 005766 000024       	tst	24(r6)			; v...
054624: 001010              	bne	54646			; ..
054626: 011046              	mov	(r0),-(r6)		; &.
054630: 004767 016450       	call	73304			; w.(.
054634: 012746 062270       	mov	#62270,-(r6)		; f.8d
054640: 012746 000037       	mov	#37,-(r6)		; f...
054644: 000414              	br	54676			; ..
;
054646: 010246              	mov	r2,-(r6)		; &.
054650: 012746 000001       	mov	#1,-(r6)		; f...
054654: 004767 006350       	call	63230			; w.h.
054660: 011046              	mov	(r0),-(r6)		; &.
054662: 004767 016416       	call	73304			; w...
054666: 012746 062330       	mov	#62330,-(r6)		; f.Xd
054672: 012746 000050       	mov	#50,-(r6)		; f.(.
054676: 011646              	mov	(r6),-(r6)		; &.
054700: 004767 017756       	call	74662			; w.n.
054704: 004767 020132       	call	75042			; w.Z 
054710: 010346              	mov	r3,-(r6)		; f.
054712: 016646 000040       	mov	40(r6),-(r6)		; &. .
054716: 004767 165716       	call	42640			; w.Nk
054722: 005266 000024       	inc	24(r6)			; 6...
054726: 010266 000034       	mov	r2,34(r6)		; 6...
054732: 026627 000034 000030	cmp	34(r6),#30		; .-....
054740: 002013              	bge	54770			; ..
054742: 016646 000034       	mov	34(r6),-(r6)		; &...
054746: 012746 000001       	mov	#1,-(r6)		; f...
054752: 004767 006252       	call	63230			; w.*.
054756: 004767 006720       	call	63702			; w.P.
054762: 005266 000034       	inc	34(r6)			; 6...
054766: 000761              	br	54732			; q.
;
054770: 000672              	br	54556			; :.
;
054772: 000430              	br	55054			; ..
;
054774: 012746 000030       	mov	#30,-(r6)		; f...
055000: 012746 000012       	mov	#12,-(r6)		; f...
055004: 004767 006220       	call	63230			; w...
055010: 004767 006666       	call	63702			; w.6.
055014: 011046              	mov	(r0),-(r6)		; &.
055016: 004767 016262       	call	73304			; w.2.
055022: 012746 062666       	mov	#62666,-(r6)		; f.6e
055026: 012746 000035       	mov	#35,-(r6)		; f...
055032: 011646              	mov	(r6),-(r6)		; &.
055034: 004767 017622       	call	74662			; w...
055040: 004767 012034       	call	67100			; w...
055044: 012746 065116       	mov	#65116,-(r6)		; f.Nj
055050: 004767 020130       	call	75204			; w.X 
055054: 012746 100072       	mov	#100072,-(r6)		; f.:.
055060: 004767 021344       	call	76430			; w.d"
055064: 172426              	ldf	f0,(r6)+		; .u
055066: 004767 017332       	call	74424			; w.Z.
055072: 062706 000020       	add	#20,r6			; Fe..
055076: 000207              	ret				; ..
;
055100: 162706 000006       	sub	#6,r6			; Fe..
055104: 004767 017270       	call	74400			; w.8.
055110: 012700 100002       	mov	#100002,r0		; @...
055114: 012701 100000       	mov	#100000,r1		; A...
055120: 004767 006650       	call	63774			; w.(.
055124: 004767 006320       	call	63450			; w.P.
055130: 012746 100072       	mov	#100072,-(r6)		; f.:.
055134: 004767 021216       	call	76356			; w.."
055140: 012746 000003       	mov	#3,-(r6)		; f...
055144: 012746 000021       	mov	#21,-(r6)		; f...
055150: 004767 006054       	call	63230			; w.,.
055154: 011046              	mov	(r0),-(r6)		; &.
055156: 004767 016122       	call	73304			; w.R.
055162: 012746 062724       	mov	#62724,-(r6)		; f.Te
055166: 012746 000057       	mov	#57,-(r6)		; f./.
055172: 011646              	mov	(r6),-(r6)		; &.
055174: 004767 017462       	call	74662			; w.2.
055200: 004767 017636       	call	75042			; w...
055204: 012746 000010       	mov	#10,-(r6)		; f...
055210: 012746 000012       	mov	#12,-(r6)		; f...
055214: 004767 006010       	call	63230			; w...
055220: 011046              	mov	(r0),-(r6)		; &.
055222: 004767 016056       	call	73304			; w...
055226: 012746 063004       	mov	#63004,-(r6)		; f..f
055232: 012746 000033       	mov	#33,-(r6)		; f...
055236: 011646              	mov	(r6),-(r6)		; &.
055240: 004767 017416       	call	74662			; w...
055244: 013746 100024       	mov	@#100024,-(r6)		; f...
055250: 012746 000007       	mov	#7,-(r6)		; f...
055254: 004767 024210       	call	101470			; w..(
055260: 012746 063040       	mov	#63040,-(r6)		; f. f
055264: 012746 000015       	mov	#15,-(r6)		; f...
055270: 011646              	mov	(r6),-(r6)		; &.
055272: 004767 017364       	call	74662			; w.t.
055276: 004767 017540       	call	75042			; w.`.
055302: 011046              	mov	(r0),-(r6)		; &.
055304: 004767 015774       	call	73304			; w.|.
055310: 012746 063056       	mov	#63056,-(r6)		; f..f
055314: 012746 000054       	mov	#54,-(r6)		; f.,.
055320: 011646              	mov	(r6),-(r6)		; &.
055322: 004767 017334       	call	74662			; w.\.
055326: 004767 011546       	call	67100			; w.f.
055332: 012746 000011       	mov	#11,-(r6)		; f...
055336: 012746 000055       	mov	#55,-(r6)		; f.-.
055342: 012746 000003       	mov	#3,-(r6)		; f...
055346: 004767 157754       	call	35326			; w.l_
055352: 011146              	mov	(r1),-(r6)		; f.
055354: 004767 012172       	call	67552			; w.z.
055360: 011103              	mov	(r1),r3			; C.
055362: 005763 000002       	tst	2(r3)			; s...
055366: 100442              	bmi	55474			; ".
055370: 012746 000011       	mov	#11,-(r6)		; f...
055374: 012746 000056       	mov	#56,-(r6)		; f...
055400: 004767 005624       	call	63230			; w...
055404: 011146              	mov	(r1),-(r6)		; f.
055406: 004767 015672       	call	73304			; w.:.
055412: 004767 017024       	call	74442			; w...
055416: 112603              	movb	(r6)+,r3		; ..
055420: 110366 000020       	movb	r3,20(r6)		; v...
055424: 004767 017050       	call	74500			; w.(.
055430: 120327 000131       	cmpb	r3,#131			; W Y.
055434: 001403              	beq	55444			; ..
055436: 120327 000171       	cmpb	r3,#171			; W y.
055442: 001014              	bne	55474			; ..
055444: 012766 000012 000014	mov	#12,14(r6)		; v.....
055452: 012766 000001 000016	mov	#1,16(r6)		; v.....
055460: 016646 000014       	mov	14(r6),-(r6)		; &...
055464: 016646 000020       	mov	20(r6),-(r6)		; &...
055470: 004767 165144       	call	42640			; w.dj
055474: 012746 100072       	mov	#100072,-(r6)		; f.:.
055500: 004767 020724       	call	76430			; w.T!
055504: 004767 016714       	call	74424			; w.L.
055510: 062706 000006       	add	#6,r6			; Fe..
055514: 000207              	ret				; ..
;
055516: 162706 000006       	sub	#6,r6			; Fe..
055522: 004767 016652       	call	74400			; w.*.
055526: 012700 100002       	mov	#100002,r0		; @...
055532: 012701 000011       	mov	#11,r1			; A...
055536: 012702 100000       	mov	#100000,r2		; B...
055542: 004767 006226       	call	63774			; w...
055546: 004767 005676       	call	63450			; w.>.
055552: 012746 100072       	mov	#100072,-(r6)		; f.:.
055556: 004767 020574       	call	76356			; w.|!
055562: 012746 000003       	mov	#3,-(r6)		; f...
055566: 012746 000021       	mov	#21,-(r6)		; f...
055572: 004767 005432       	call	63230			; w...
055576: 011046              	mov	(r0),-(r6)		; &.
055600: 004767 015500       	call	73304			; w.@.
055604: 012746 063132       	mov	#63132,-(r6)		; f.Zf
055610: 012746 000057       	mov	#57,-(r6)		; f./.
055614: 011646              	mov	(r6),-(r6)		; &.
055616: 004767 017040       	call	74662			; w. .
055622: 004767 017214       	call	75042			; w...
055626: 012746 000010       	mov	#10,-(r6)		; f...
055632: 012746 000012       	mov	#12,-(r6)		; f...
055636: 004767 005366       	call	63230			; w.v.
055642: 011046              	mov	(r0),-(r6)		; &.
055644: 004767 015434       	call	73304			; w...
055650: 012746 063212       	mov	#63212,-(r6)		; f..f
055654: 012746 000053       	mov	#53,-(r6)		; f.+.
055660: 011646              	mov	(r6),-(r6)		; &.
055662: 004767 016774       	call	74662			; w.|.
055666: 013746 100022       	mov	@#100022,-(r6)		; f...
055672: 012746 000007       	mov	#7,-(r6)		; f...
055676: 012746 000020       	mov	#20,-(r6)		; f...
055702: 004767 024000       	call	101706			; w..(
055706: 004767 011166       	call	67100			; w.v.
055712: 010146              	mov	r1,-(r6)		; f.
055714: 012746 000012       	mov	#12,-(r6)		; f...
055720: 004767 005304       	call	63230			; w.D.
055724: 011046              	mov	(r0),-(r6)		; &.
055726: 004767 015352       	call	73304			; w.j.
055732: 012746 063266       	mov	#63266,-(r6)		; f.6f
055736: 012746 000043       	mov	#43,-(r6)		; f.#.
055742: 011646              	mov	(r6),-(r6)		; &.
055744: 004767 016712       	call	74662			; w.J.
055750: 004767 011124       	call	67100			; w.T.
055754: 010146              	mov	r1,-(r6)		; f.
055756: 012746 000055       	mov	#55,-(r6)		; f.-.
055762: 012746 000003       	mov	#3,-(r6)		; f...
055766: 004767 157334       	call	35326			; w.\^
055772: 011246              	mov	(r2),-(r6)		; &.
055774: 004767 011552       	call	67552			; w.j.
056000: 011203              	mov	(r2),r3			; ..
056002: 005763 000002       	tst	2(r3)			; s...
056006: 100441              	bmi	56112			; !.
056010: 010146              	mov	r1,-(r6)		; f.
056012: 012746 000056       	mov	#56,-(r6)		; f...
056016: 004767 005206       	call	63230			; w...
056022: 011246              	mov	(r2),-(r6)		; &.
056024: 004767 015254       	call	73304			; w.,.
056030: 004767 016406       	call	74442			; w...
056034: 112603              	movb	(r6)+,r3		; ..
056036: 110366 000020       	movb	r3,20(r6)		; v...
056042: 004767 016432       	call	74500			; w...
056046: 120327 000131       	cmpb	r3,#131			; W Y.
056052: 001403              	beq	56062			; ..
056054: 120327 000171       	cmpb	r3,#171			; W y.
056060: 001014              	bne	56112			; ..
056062: 012766 000001 000014	mov	#1,14(r6)		; v.....
056070: 012766 000004 000016	mov	#4,16(r6)		; v.....
056076: 016646 000014       	mov	14(r6),-(r6)		; &...
056102: 016646 000020       	mov	20(r6),-(r6)		; &...
056106: 004767 164526       	call	42640			; w.Vi
056112: 012746 100072       	mov	#100072,-(r6)		; f.:.
056116: 004767 020306       	call	76430			; w.F 
056122: 004767 016276       	call	74424			; w.>.
056126: 062706 000006       	add	#6,r6			; Fe..
056132: 000207              	ret				; ..
;
056134: 162706 000006       	sub	#6,r6			; Fe..
056140: 004767 016234       	call	74400			; w...
056144: 174046              	stf	f0,-(r6)		; &x
056146: 012700 000003       	mov	#3,r0			; @...
056152: 012701 100002       	mov	#100002,r1		; A...
056156: 012702 000002       	mov	#2,r2			; B...
056162: 004767 005606       	call	63774			; w...
056166: 004767 005256       	call	63450			; w...
056172: 012746 100072       	mov	#100072,-(r6)		; f.:.
056176: 004767 020154       	call	76356			; w.l 
056202: 010046              	mov	r0,-(r6)		; &.
056204: 012746 000021       	mov	#21,-(r6)		; f...
056210: 004767 005014       	call	63230			; w...
056214: 011146              	mov	(r1),-(r6)		; f.
056216: 004767 015062       	call	73304			; w.2.
056222: 012746 063332       	mov	#63332,-(r6)		; f.Zf
056226: 012746 000036       	mov	#36,-(r6)		; f...
056232: 011646              	mov	(r6),-(r6)		; &.
056234: 004767 016422       	call	74662			; w...
056240: 004767 016576       	call	75042			; w.~.
056244: 012746 000010       	mov	#10,-(r6)		; f...
056250: 012746 000012       	mov	#12,-(r6)		; f...
056254: 004767 004750       	call	63230			; w.h.
056260: 011146              	mov	(r1),-(r6)		; f.
056262: 004767 015016       	call	73304			; w...
056266: 012746 063370       	mov	#63370,-(r6)		; f.xf
056272: 012746 000016       	mov	#16,-(r6)		; f...
056276: 011646              	mov	(r6),-(r6)		; &.
056300: 004767 016356       	call	74662			; w.n.
056304: 172437 100062       	ldf	f0,@#100062		; .u2.
056310: 174046              	stf	f0,-(r6)		; &x
056312: 010246              	mov	r2,-(r6)		; &.
056314: 010046              	mov	r0,-(r6)		; &.
056316: 004767 022120       	call	100442			; w.P$
056322: 004767 016514       	call	75042			; w.L.
056326: 012746 000011       	mov	#11,-(r6)		; f...
056332: 012746 000012       	mov	#12,-(r6)		; f...
056336: 004767 004666       	call	63230			; w.6.
056342: 011146              	mov	(r1),-(r6)		; f.
056344: 004767 014734       	call	73304			; w.\.
056350: 012746 063406       	mov	#63406,-(r6)		; f..g
056354: 012746 000043       	mov	#43,-(r6)		; f.#.
056360: 011646              	mov	(r6),-(r6)		; &.
056362: 004767 016274       	call	74662			; w.<.
056366: 004767 010506       	call	67100			; w.F.
056372: 012746 000011       	mov	#11,-(r6)		; f...
056376: 012746 000055       	mov	#55,-(r6)		; f.-.
056402: 010046              	mov	r0,-(r6)		; &.
056404: 004767 156716       	call	35326			; w.N]
056410: 013746 100000       	mov	@#100000,-(r6)		; f...
056414: 004767 011132       	call	67552			; w.Z.
056420: 013703 100000       	mov	@#100000,r3		; C...
056424: 005763 000002       	tst	2(r3)			; s...
056430: 100441              	bmi	56534			; !.
056432: 012746 000011       	mov	#11,-(r6)		; f...
056436: 012746 000056       	mov	#56,-(r6)		; f...
056442: 004767 004562       	call	63230			; w.r.
056446: 013746 100000       	mov	@#100000,-(r6)		; f...
056452: 004767 014626       	call	73304			; w...
056456: 004767 015760       	call	74442			; w.p.
056462: 112603              	movb	(r6)+,r3		; ..
056464: 110366 000024       	movb	r3,24(r6)		; v...
056470: 004767 016004       	call	74500			; w...
056474: 120327 000131       	cmpb	r3,#131			; W Y.
056500: 001403              	beq	56510			; ..
056502: 120327 000171       	cmpb	r3,#171			; W y.
056506: 001012              	bne	56534			; ..
056510: 010266 000020       	mov	r2,20(r6)		; 6...
056514: 010266 000022       	mov	r2,22(r6)		; 6...
056520: 016646 000020       	mov	20(r6),-(r6)		; &...
056524: 016646 000024       	mov	24(r6),-(r6)		; &...
056530: 004767 164104       	call	42640			; w.Dh
056534: 012746 100072       	mov	#100072,-(r6)		; f.:.
056540: 004767 017664       	call	76430			; w.4.
056544: 172426              	ldf	f0,(r6)+		; .u
056546: 004767 015652       	call	74424			; w.*.
056552: 062706 000006       	add	#6,r6			; Fe..
056556: 000207              	ret				; ..
;
056560: 162706 000006       	sub	#6,r6			; Fe..
056564: 004767 015610       	call	74400			; w...
056570: 012700 100002       	mov	#100002,r0		; @...
056574: 012701 000003       	mov	#3,r1			; A...
056600: 012702 000012       	mov	#12,r2			; B...
056604: 004767 005164       	call	63774			; w.t.
056610: 004767 004634       	call	63450			; w...
056614: 012746 100072       	mov	#100072,-(r6)		; f.:.
056620: 004767 017532       	call	76356			; w.Z.
056624: 010146              	mov	r1,-(r6)		; f.
056626: 012746 000021       	mov	#21,-(r6)		; f...
056632: 004767 004372       	call	63230			; w.z.
056636: 011046              	mov	(r0),-(r6)		; &.
056640: 004767 014440       	call	73304			; w. .
056644: 012746 063452       	mov	#63452,-(r6)		; f.*g
056650: 012746 000054       	mov	#54,-(r6)		; f.,.
056654: 011646              	mov	(r6),-(r6)		; &.
056656: 004767 016000       	call	74662			; w...
056662: 004767 016154       	call	75042			; w.l.
056666: 012746 000010       	mov	#10,-(r6)		; f...
056672: 010246              	mov	r2,-(r6)		; &.
056674: 004767 004330       	call	63230			; w.X.
056700: 011046              	mov	(r0),-(r6)		; &.
056702: 004767 014376       	call	73304			; w.~.
056706: 012746 063526       	mov	#63526,-(r6)		; f.Vg
056712: 012746 000072       	mov	#72,-(r6)		; f.:.
056716: 011646              	mov	(r6),-(r6)		; &.
056720: 004767 015736       	call	74662			; w.^.
056724: 004767 016112       	call	75042			; w.J.
056730: 011046              	mov	(r0),-(r6)		; &.
056732: 004767 014346       	call	73304			; w.f.
056736: 112746 000040       	movb	#40,-(r6)		; f. .
056742: 012746 000024       	mov	#24,-(r6)		; f...
056746: 004767 015574       	call	74546			; w.|.
056752: 004767 010122       	call	67100			; w.R.
056756: 004767 004626       	call	63610			; w...
056762: 011046              	mov	(r0),-(r6)		; &.
056764: 004767 014314       	call	73304			; w.L.
056770: 113746 100070       	movb	@#100070,-(r6)		; f.8.
056774: 012746 000005       	mov	#5,-(r6)		; f...
057000: 004767 021246       	call	100252			; w.&"
057004: 004767 016032       	call	75042			; w...
057010: 004767 004434       	call	63450			; w...
057014: 011046              	mov	(r0),-(r6)		; &.
057016: 004767 014262       	call	73304			; w.2.
057022: 012746 063620       	mov	#63620,-(r6)		; f..g
057026: 012746 000054       	mov	#54,-(r6)		; f.,.
057032: 011646              	mov	(r6),-(r6)		; &.
057034: 004767 015622       	call	74662			; w...
057040: 004767 010034       	call	67100			; w...
057044: 010246              	mov	r2,-(r6)		; &.
057046: 012746 000055       	mov	#55,-(r6)		; f.-.
057052: 010146              	mov	r1,-(r6)		; f.
057054: 004767 156246       	call	35326			; w.&\
057060: 013746 100000       	mov	@#100000,-(r6)		; f...
057064: 004767 010462       	call	67552			; w.2.
057070: 013703 100000       	mov	@#100000,r3		; C...
057074: 005763 000002       	tst	2(r3)			; s...
057100: 100441              	bmi	57204			; !.
057102: 010246              	mov	r2,-(r6)		; &.
057104: 012746 000056       	mov	#56,-(r6)		; f...
057110: 004767 004114       	call	63230			; w.L.
057114: 013746 100000       	mov	@#100000,-(r6)		; f...
057120: 004767 014160       	call	73304			; w.p.
057124: 004767 015312       	call	74442			; w.J.
057130: 112603              	movb	(r6)+,r3		; ..
057132: 110366 000020       	movb	r3,20(r6)		; v...
057136: 004767 015336       	call	74500			; w.^.
057142: 120327 000131       	cmpb	r3,#131			; W Y.
057146: 001403              	beq	57156			; ..
057150: 120327 000171       	cmpb	r3,#171			; W y.
057154: 001013              	bne	57204			; ..
057156: 012766 000016 000014	mov	#16,14(r6)		; v.....
057164: 010166 000016       	mov	r1,16(r6)		; v...
057170: 016646 000014       	mov	14(r6),-(r6)		; &...
057174: 016646 000020       	mov	20(r6),-(r6)		; &...
057200: 004767 163434       	call	42640			; w..g
057204: 012746 100072       	mov	#100072,-(r6)		; f.:.
057210: 004767 017214       	call	76430			; w...
057214: 004767 015204       	call	74424			; w...
057220: 062706 000006       	add	#6,r6			; Fe..
057224: 000207              	ret				; ..
;
057226: 162706 000006       	sub	#6,r6			; Fe..
057232: 004767 015142       	call	74400			; w.b.
057236: 012700 100002       	mov	#100002,r0		; @...
057242: 012701 100000       	mov	#100000,r1		; A...
057246: 004767 004522       	call	63774			; w.R.
057252: 004767 004172       	call	63450			; w.z.
057256: 012746 100072       	mov	#100072,-(r6)		; f.:.
057262: 004767 017070       	call	76356			; w.8.
057266: 012746 000003       	mov	#3,-(r6)		; f...
057272: 012746 000021       	mov	#21,-(r6)		; f...
057276: 004767 003726       	call	63230			; w.V.
057302: 011046              	mov	(r0),-(r6)		; &.
057304: 004767 013774       	call	73304			; w.|.
057310: 012746 063674       	mov	#63674,-(r6)		; f.<g
057314: 012746 000066       	mov	#66,-(r6)		; f.6.
057320: 011646              	mov	(r6),-(r6)		; &.
057322: 004767 015334       	call	74662			; w.\.
057326: 004767 015510       	call	75042			; w.H.
057332: 012746 000010       	mov	#10,-(r6)		; f...
057336: 012746 000012       	mov	#12,-(r6)		; f...
057342: 004767 003662       	call	63230			; w.2.
057346: 011046              	mov	(r0),-(r6)		; &.
057350: 004767 013730       	call	73304			; w.X.
057354: 012746 063762       	mov	#63762,-(r6)		; f.rg
057360: 012746 000046       	mov	#46,-(r6)		; f.&.
057364: 011646              	mov	(r6),-(r6)		; &.
057366: 004767 015270       	call	74662			; w.8.
057372: 013746 100020       	mov	@#100020,-(r6)		; f...
057376: 012746 000007       	mov	#7,-(r6)		; f...
057402: 004767 022062       	call	101470			; w.2$
057406: 004767 015430       	call	75042			; w...
057412: 011046              	mov	(r0),-(r6)		; &.
057414: 004767 013664       	call	73304			; w.4.
057420: 012746 064030       	mov	#64030,-(r6)		; f..h
057424: 012746 000054       	mov	#54,-(r6)		; f.,.
057430: 011646              	mov	(r6),-(r6)		; &.
057432: 004767 015224       	call	74662			; w...
057436: 004767 007436       	call	67100			; w...
057442: 012746 000011       	mov	#11,-(r6)		; f...
057446: 012746 000055       	mov	#55,-(r6)		; f.-.
057452: 012746 000003       	mov	#3,-(r6)		; f...
057456: 004767 155644       	call	35326			; w.$[
057462: 011146              	mov	(r1),-(r6)		; f.
057464: 004767 010062       	call	67552			; w.2.
057470: 011103              	mov	(r1),r3			; C.
057472: 005763 000002       	tst	2(r3)			; s...
057476: 100442              	bmi	57604			; ".
057500: 012746 000011       	mov	#11,-(r6)		; f...
057504: 012746 000056       	mov	#56,-(r6)		; f...
057510: 004767 003514       	call	63230			; w.L.
057514: 011146              	mov	(r1),-(r6)		; f.
057516: 004767 013562       	call	73304			; w.r.
057522: 004767 014714       	call	74442			; w.L.
057526: 112603              	movb	(r6)+,r3		; ..
057530: 110366 000020       	movb	r3,20(r6)		; v...
057534: 004767 014740       	call	74500			; w.`.
057540: 120327 000131       	cmpb	r3,#131			; W Y.
057544: 001403              	beq	57554			; ..
057546: 120327 000171       	cmpb	r3,#171			; W y.
057552: 001014              	bne	57604			; ..
057554: 012766 000015 000014	mov	#15,14(r6)		; v.....
057562: 012766 000001 000016	mov	#1,16(r6)		; v.....
057570: 016646 000014       	mov	14(r6),-(r6)		; &...
057574: 016646 000020       	mov	20(r6),-(r6)		; &...
057600: 004767 163034       	call	42640			; w..f
057604: 012746 100072       	mov	#100072,-(r6)		; f.:.
057610: 004767 016614       	call	76430			; w...
057614: 004767 014604       	call	74424			; w...
057620: 062706 000006       	add	#6,r6			; Fe..
057624: 000207              	ret				; ..
;
057626: 162706 000014       	sub	#14,r6			; Fe..
057632: 004767 014542       	call	74400			; w.b.
057636: 174046              	stf	f0,-(r6)		; &x
057640: 012700 100002       	mov	#100002,r0		; @...
057644: 012701 000003       	mov	#3,r1			; A...
057650: 012702 000002       	mov	#2,r2			; B...
057654: 004767 004114       	call	63774			; w.L.
057660: 004767 003564       	call	63450			; w.t.
057664: 012746 100072       	mov	#100072,-(r6)		; f.:.
057670: 004767 016462       	call	76356			; w.2.
057674: 010146              	mov	r1,-(r6)		; f.
057676: 012746 000021       	mov	#21,-(r6)		; f...
057702: 004767 003322       	call	63230			; w.R.
057706: 011046              	mov	(r0),-(r6)		; &.
057710: 004767 013370       	call	73304			; w.x.
057714: 012746 064104       	mov	#64104,-(r6)		; f.Dh
057720: 012746 000071       	mov	#71,-(r6)		; f.9.
057724: 011646              	mov	(r6),-(r6)		; &.
057726: 004767 014730       	call	74662			; w.X.
057732: 004767 015104       	call	75042			; w.D.
057736: 012746 000010       	mov	#10,-(r6)		; f...
057742: 012746 000012       	mov	#12,-(r6)		; f...
057746: 004767 003256       	call	63230			; w...
057752: 011046              	mov	(r0),-(r6)		; &.
057754: 004767 013324       	call	73304			; w.T.
057760: 012746 064176       	mov	#64176,-(r6)		; f.~h
057764: 012746 000017       	mov	#17,-(r6)		; f...
057770: 011646              	mov	(r6),-(r6)		; &.
057772: 004767 014664       	call	74662			; w.4.
057776: 172437 100052       	ldf	f0,@#100052		; .u*.
060002: 174046              	stf	f0,-(r6)		; &x
060004: 010246              	mov	r2,-(r6)		; &.
060006: 010146              	mov	r1,-(r6)		; f.
060010: 004767 020426       	call	100442			; w..!
060014: 004767 015022       	call	75042			; w...
060020: 011046              	mov	(r0),-(r6)		; &.
060022: 004767 013256       	call	73304			; w...
060026: 012746 064216       	mov	#64216,-(r6)		; f..h
060032: 012746 000030       	mov	#30,-(r6)		; f...
060036: 011646              	mov	(r6),-(r6)		; &.
060040: 004767 014616       	call	74662			; w...
060044: 172437 100056       	ldf	f0,@#100056		; .u..
060050: 174046              	stf	f0,-(r6)		; &x
060052: 010246              	mov	r2,-(r6)		; &.
060054: 010146              	mov	r1,-(r6)		; f.
060056: 004767 020360       	call	100442			; w.p 
060062: 004767 014754       	call	75042			; w.l.
060066: 012746 000014       	mov	#14,-(r6)		; f...
060072: 012746 000012       	mov	#12,-(r6)		; f...
060076: 004767 003126       	call	63230			; w.V.
060102: 011046              	mov	(r0),-(r6)		; &.
060104: 004767 013174       	call	73304			; w.|.
060110: 012746 064246       	mov	#64246,-(r6)		; f.&h
060114: 012746 000052       	mov	#52,-(r6)		; f.*.
060120: 011646              	mov	(r6),-(r6)		; &.
060122: 004767 014534       	call	74662			; w.\.
060126: 004767 014710       	call	75042			; w.H.
060132: 011046              	mov	(r0),-(r6)		; &.
060134: 004767 013144       	call	73304			; w.d.
060140: 012746 064320       	mov	#64320,-(r6)		; f.Ph
060144: 012746 000064       	mov	#64,-(r6)		; f.4.
060150: 011646              	mov	(r6),-(r6)		; &.
060152: 004767 014504       	call	74662			; w.D.
060156: 004767 014660       	call	75042			; w.0.
060162: 011046              	mov	(r0),-(r6)		; &.
060164: 004767 013114       	call	73304			; w.L.
060170: 012746 064404       	mov	#64404,-(r6)		; f..i
060174: 012746 000064       	mov	#64,-(r6)		; f.4.
060200: 011646              	mov	(r6),-(r6)		; &.
060202: 004767 014454       	call	74662			; w.,.
060206: 004767 014630       	call	75042			; w...
060212: 011046              	mov	(r0),-(r6)		; &.
060214: 004767 013064       	call	73304			; w.4.
060220: 012746 064470       	mov	#64470,-(r6)		; f.8i
060224: 012746 000056       	mov	#56,-(r6)		; f...
060230: 011646              	mov	(r6),-(r6)		; &.
060232: 004767 014424       	call	74662			; w...
060236: 004767 006636       	call	67100			; w...
060242: 012746 000017       	mov	#17,-(r6)		; f...
060246: 012746 000070       	mov	#70,-(r6)		; f.8.
060252: 010146              	mov	r1,-(r6)		; f.
060254: 004767 155046       	call	35326			; w.&Z
060260: 012746 000017       	mov	#17,-(r6)		; f...
060264: 012746 000071       	mov	#71,-(r6)		; f.9.
060270: 004767 002734       	call	63230			; w.\.
060274: 013746 100000       	mov	@#100000,-(r6)		; f...
060300: 004767 007246       	call	67552			; w.&.
060304: 013703 100000       	mov	@#100000,r3		; C...
060310: 005763 000002       	tst	2(r3)			; s...
060314: 100002              	bpl	60322			; ..
060316: 000167 000424       	jmp	60746			; w...
;
060322: 013746 100000       	mov	@#100000,-(r6)		; f...
060326: 004767 012752       	call	73304			; w.j.
060332: 004767 014104       	call	74442			; w.D.
060336: 112666 000020       	movb	(r6)+,20(r6)		; 6...
060342: 004767 014132       	call	74500			; w.Z.
060346: 005003              	clr	r3			; ..
060350: 156603 000020       	bisb	20(r6),r3		; .]..
060354: 162703 000060       	sub	#60,r3			; Ce0.
060360: 010366 000022       	mov	r3,22(r6)		; v...
060364: 020103              	cmp	r1,r3			; C 
060366: 103537              	bcs	60666			; _.
060370: 006303              	asl	r3			; C.
060372: 000173 066116       	jmp	@66116(r3)		; {.Nl
;
060376: 000563              	br	60746			; s.
;
060400: 012766 000010 000030	mov	#10,30(r6)		; v.....
060406: 010266 000032       	mov	r2,32(r6)		; 6...
060412: 016646 000030       	mov	30(r6),-(r6)		; &...
060416: 016646 000034       	mov	34(r6),-(r6)		; &...
060422: 004767 162212       	call	42640			; w..d
060426: 000547              	br	60746			; g.
;
060430: 012766 000011 000030	mov	#11,30(r6)		; v.....
060436: 000763              	br	60406			; s.
;
060440: 005066 000024       	clr	24(r6)			; 6...
060444: 026602 000024       	cmp	24(r6),r2		; .-..
060450: 002105              	bge	60664			; E.
060452: 016603 000024       	mov	24(r6),r3		; ....
060456: 062703 000010       	add	#10,r3			; Ce..
060462: 010366 000030       	mov	r3,30(r6)		; v...
060466: 010266 000032       	mov	r2,32(r6)		; 6...
060472: 012746 000021       	mov	#21,-(r6)		; f...
060476: 012746 000012       	mov	#12,-(r6)		; f...
060502: 004767 002522       	call	63230			; w.R.
060506: 005766 000024       	tst	24(r6)			; v...
060512: 001010              	bne	60534			; ..
060514: 011046              	mov	(r0),-(r6)		; &.
060516: 004767 012562       	call	73304			; w.r.
060522: 012746 064176       	mov	#64176,-(r6)		; f.~h
060526: 012746 000017       	mov	#17,-(r6)		; f...
060532: 000415              	br	60566			; ..
;
060534: 012746 000021       	mov	#21,-(r6)		; f...
060540: 012746 000001       	mov	#1,-(r6)		; f...
060544: 004767 002460       	call	63230			; w.0.
060550: 011046              	mov	(r0),-(r6)		; &.
060552: 004767 012526       	call	73304			; w.V.
060556: 012746 064216       	mov	#64216,-(r6)		; f..h
060562: 012746 000030       	mov	#30,-(r6)		; f...
060566: 011646              	mov	(r6),-(r6)		; &.
060570: 004767 014066       	call	74662			; w.6.
060574: 004767 014242       	call	75042			; w.".
060600: 010346              	mov	r3,-(r6)		; f.
060602: 016646 000034       	mov	34(r6),-(r6)		; &...
060606: 004767 162026       	call	42640			; w..d
060612: 005266 000024       	inc	24(r6)			; 6...
060616: 012766 000021 000026	mov	#21,26(r6)		; v.....
060624: 026627 000026 000030	cmp	26(r6),#30		; .-....
060632: 002013              	bge	60662			; ..
060634: 016646 000026       	mov	26(r6),-(r6)		; &...
060640: 012746 000001       	mov	#1,-(r6)		; f...
060644: 004767 002360       	call	63230			; w.p.
060650: 004767 003026       	call	63702			; w...
060654: 005266 000026       	inc	26(r6)			; 6...
060660: 000761              	br	60624			; q.
;
060662: 000670              	br	60444			; 8.
;
060664: 000430              	br	60746			; ..
;
060666: 012746 000030       	mov	#30,-(r6)		; f...
060672: 012746 000012       	mov	#12,-(r6)		; f...
060676: 004767 002326       	call	63230			; w.V.
060702: 004767 002774       	call	63702			; w.|.
060706: 011046              	mov	(r0),-(r6)		; &.
060710: 004767 012370       	call	73304			; w.x.
060714: 012746 064546       	mov	#64546,-(r6)		; f.fi
060720: 012746 000035       	mov	#35,-(r6)		; f...
060724: 011646              	mov	(r6),-(r6)		; &.
060726: 004767 013730       	call	74662			; w.X.
060732: 004767 006142       	call	67100			; w.b.
060736: 012746 065122       	mov	#65122,-(r6)		; f.Rj
060742: 004767 014236       	call	75204			; w...
060746: 012746 100072       	mov	#100072,-(r6)		; f.:.
060752: 004767 015452       	call	76430			; w.*.
060756: 172426              	ldf	f0,(r6)+		; .u
060760: 004767 013440       	call	74424			; w. .
060764: 062706 000014       	add	#14,r6			; Fe..
060770: 000207              	ret				; ..
;
060772: 162706 000006       	sub	#6,r6			; Fe..
060776: 004767 013376       	call	74400			; w.~.
061002: 012700 100002       	mov	#100002,r0		; @...
061006: 012701 000003       	mov	#3,r1			; A...
061012: 012702 000012       	mov	#12,r2			; B...
061016: 004767 002752       	call	63774			; w.j.
061022: 004767 002422       	call	63450			; w...
061026: 012746 100072       	mov	#100072,-(r6)		; f.:.
061032: 004767 015320       	call	76356			; w.P.
061036: 010146              	mov	r1,-(r6)		; f.
061040: 012746 000021       	mov	#21,-(r6)		; f...
061044: 004767 002160       	call	63230			; w.p.
061050: 011046              	mov	(r0),-(r6)		; &.
061052: 004767 012226       	call	73304			; w...
061056: 012746 064604       	mov	#64604,-(r6)		; f..i
061062: 012746 000076       	mov	#76,-(r6)		; f.>.
061066: 011646              	mov	(r6),-(r6)		; &.
061070: 004767 013566       	call	74662			; w.v.
061074: 004767 013742       	call	75042			; w.b.
061100: 012746 000010       	mov	#10,-(r6)		; f...
061104: 010246              	mov	r2,-(r6)		; &.
061106: 004767 002116       	call	63230			; w.N.
061112: 011046              	mov	(r0),-(r6)		; &.
061114: 004767 012164       	call	73304			; w.t.
061120: 012746 064702       	mov	#64702,-(r6)		; f.Bi
061124: 012746 000072       	mov	#72,-(r6)		; f.:.
061130: 011646              	mov	(r6),-(r6)		; &.
061132: 004767 013524       	call	74662			; w.T.
061136: 004767 013700       	call	75042			; w.@.
061142: 011046              	mov	(r0),-(r6)		; &.
061144: 004767 012134       	call	73304			; w.\.
061150: 112746 000040       	movb	#40,-(r6)		; f. .
061154: 012746 000024       	mov	#24,-(r6)		; f...
061160: 004767 013362       	call	74546			; w.r.
061164: 004767 005710       	call	67100			; w.H.
061170: 004767 002414       	call	63610			; w...
061174: 011046              	mov	(r0),-(r6)		; &.
061176: 004767 012102       	call	73304			; w.B.
061202: 113746 100066       	movb	@#100066,-(r6)		; f.6.
061206: 012746 000005       	mov	#5,-(r6)		; f...
061212: 004767 017034       	call	100252			; w...
061216: 004767 013620       	call	75042			; w...
061222: 004767 002222       	call	63450			; w...
061226: 011046              	mov	(r0),-(r6)		; &.
061230: 004767 012050       	call	73304			; w.(.
061234: 012746 064774       	mov	#64774,-(r6)		; f.|i
061240: 012746 000054       	mov	#54,-(r6)		; f.,.
061244: 011646              	mov	(r6),-(r6)		; &.
061246: 004767 013410       	call	74662			; w...
061252: 004767 005622       	call	67100			; w...
061256: 010246              	mov	r2,-(r6)		; &.
061260: 012746 000055       	mov	#55,-(r6)		; f.-.
061264: 010146              	mov	r1,-(r6)		; f.
061266: 004767 154034       	call	35326			; w..X
061272: 013746 100000       	mov	@#100000,-(r6)		; f...
061276: 004767 006250       	call	67552			; w.(.
061302: 013703 100000       	mov	@#100000,r3		; C...
061306: 005763 000002       	tst	2(r3)			; s...
061312: 100441              	bmi	61416			; !.
061314: 010246              	mov	r2,-(r6)		; &.
061316: 012746 000056       	mov	#56,-(r6)		; f...
061322: 004767 001702       	call	63230			; w.B.
061326: 013746 100000       	mov	@#100000,-(r6)		; f...
061332: 004767 011746       	call	73304			; w.f.
061336: 004767 013100       	call	74442			; w.@.
061342: 112603              	movb	(r6)+,r3		; ..
061344: 110366 000020       	movb	r3,20(r6)		; v...
061350: 004767 013124       	call	74500			; w.T.
061354: 120327 000131       	cmpb	r3,#131			; W Y.
061360: 001403              	beq	61370			; ..
061362: 120327 000171       	cmpb	r3,#171			; W y.
061366: 001013              	bne	61416			; ..
061370: 012766 000013 000014	mov	#13,14(r6)		; v.....
061376: 010166 000016       	mov	r1,16(r6)		; v...
061402: 016646 000014       	mov	14(r6),-(r6)		; &...
061406: 016646 000020       	mov	20(r6),-(r6)		; &...
061412: 004767 161222       	call	42640			; w..b
061416: 012746 100072       	mov	#100072,-(r6)		; f.:.
061422: 004767 015002       	call	76430			; w...
061426: 004767 012772       	call	74424			; w.z.
061432: 062706 000006       	add	#6,r6			; Fe..
061436: 000207              	ret				; ..
;
061440: 162706 000012       	sub	#12,r6			; Fe..
061444: 010546              	mov	r5,-(r6)		; f.
061446: 012700 100000       	mov	#100000,r0		; @...
061452: 012701 000040       	mov	#40,r1			; A. .
061456: 012746 100142       	mov	#100142,-(r6)		; f.b.
061462: 005046              	clr	-(r6)			; &.
061464: 005046              	clr	-(r6)			; &.
061466: 004767 015242       	call	76734			; w.".
061472: 013746 100002       	mov	@#100002,-(r6)		; f...
061476: 004767 011602       	call	73304			; w...
061502: 004767 013334       	call	75042			; w.\.
061506: 010046              	mov	r0,-(r6)		; &.
061510: 004767 011570       	call	73304			; w.x.
061514: 012746 177777       	mov	#177777,-(r6)		; f...
061520: 004767 003276       	call	65022			; w.>.
061524: 012766 000001 000010	mov	#1,10(r6)		; v.....
061532: 005766 000010       	tst	10(r6)			; v...
061536: 001002              	bne	61544			; ..
061540: 000167 000642       	jmp	62406			; w.".
;
061544: 110166 000012       	movb	r1,12(r6)		; v...
061550: 110166 000013       	movb	r1,13(r6)		; v...
061554: 004767 163002       	call	44562			; w..f
061560: 012746 000027       	mov	#27,-(r6)		; f...
061564: 012746 000012       	mov	#12,-(r6)		; f...
061570: 012746 000004       	mov	#4,-(r6)		; f...
061574: 004767 153526       	call	35326			; w.VW
061600: 012746 000027       	mov	#27,-(r6)		; f...
061604: 012746 000013       	mov	#13,-(r6)		; f...
061610: 004767 001414       	call	63230			; w...
061614: 012746 100072       	mov	#100072,-(r6)		; f.:.
061620: 004767 014532       	call	76356			; w.Z.
061624: 010046              	mov	r0,-(r6)		; &.
061626: 004767 011452       	call	73304			; w.*.
061632: 012746 177777       	mov	#177777,-(r6)		; f...
061636: 004767 003160       	call	65022			; w.p.
061642: 011046              	mov	(r0),-(r6)		; &.
061644: 004767 005702       	call	67552			; w.B.
061650: 011003              	mov	(r0),r3			; ..
061652: 005763 000002       	tst	2(r3)			; s...
061656: 100002              	bpl	61664			; ..
061660: 000167 000502       	jmp	62366			; w.B.
;
061664: 012746 000001       	mov	#1,-(r6)		; f...
061670: 011046              	mov	(r0),-(r6)		; &.
061672: 004767 005654       	call	67552			; w.,.
061676: 011003              	mov	(r0),r3			; ..
061700: 032763 040000 000002	bit	#40000,2(r3)		; s5.@..
061706: 001011              	bne	61732			; ..
061710: 011046              	mov	(r0),-(r6)		; &.
061712: 004767 011366       	call	73304			; w.v.
061716: 011603              	mov	(r6),r3			; ..
061720: 060603              	add	r6,r3			; .a
061722: 004767 012514       	call	74442			; w.L.
061726: 112663 000013       	movb	(r6)+,13(r3)		; 3...
061732: 005216              	inc	(r6)			; ..
061734: 021627 000002       	cmp	(r6),#2			; .#..
061740: 003753              	ble	61670			; k.
061742: 005726              	tst	(r6)+			; V.
061744: 011046              	mov	(r0),-(r6)		; &.
061746: 004767 011332       	call	73304			; w.Z.
061752: 004767 012522       	call	74500			; w.R.
061756: 012746 100072       	mov	#100072,-(r6)		; f.:.
061762: 004767 014442       	call	76430			; w.".
061766: 126601 000013       	cmpb	13(r6),r1		; .-..
061772: 001006              	bne	62010			; ..
061774: 116666 000012 000013	movb	12(r6),13(r6)		; 6.....
062002: 112766 000060 000012	movb	#60,12(r6)		; v.0...
062010: 005003              	clr	r3			; ..
062012: 156603 000012       	bisb	12(r6),r3		; .]..
062016: 162703 000060       	sub	#60,r3			; Ce0.
062022: 010366 000002       	mov	r3,2(r6)		; v...
062026: 005002              	clr	r2			; ..
062030: 156602 000013       	bisb	13(r6),r2		; .]..
062034: 162702 000060       	sub	#60,r2			; Be0.
062040: 010266 000004       	mov	r2,4(r6)		; 6...
062044: 070327 000012       	mul	#12,r3			; Wp..
062050: 060302              	add	r3,r2			; B`
062052: 010266 000010       	mov	r2,10(r6)		; 6...
062056: 022702 000015       	cmp	#15,r2			; B%..
062062: 103507              	bcs	62302			; G.
062064: 006302              	asl	r2			; B.
062066: 000172 066126       	jmp	@66126(r2)		; z.Vl
;
062072: 005066 000010       	clr	10(r6)			; 6...
062076: 000532              	br	62364			; Z.
;
062100: 010605              	mov	r6,r5			; ..
062102: 005725              	tst	(r5)+			; U.
062104: 004767 163754       	call	46064			; w.lg
062110: 000525              	br	62364			; U.
;
062112: 010605              	mov	r6,r5			; ..
062114: 005725              	tst	(r5)+			; U.
062116: 004767 166326       	call	50450			; w.Vl
062122: 000520              	br	62364			; P.
;
062124: 010605              	mov	r6,r5			; ..
062126: 005725              	tst	(r5)+			; U.
062130: 004767 173362       	call	55516			; w.rv
062134: 000513              	br	62364			; K.
;
062136: 010605              	mov	r6,r5			; ..
062140: 005725              	tst	(r5)+			; U.
062142: 004767 173766       	call	56134			; w.vw
062146: 000506              	br	62364			; F.
;
062150: 010605              	mov	r6,r5			; ..
062152: 005725              	tst	(r5)+			; U.
062154: 004767 171506       	call	53666			; w.Fs
062160: 000501              	br	62364			; A.
;
062162: 010605              	mov	r6,r5			; ..
062164: 005725              	tst	(r5)+			; U.
062166: 004767 167316       	call	51510			; w.Nn
062172: 000474              	br	62364			; <.
;
062174: 010605              	mov	r6,r5			; ..
062176: 005725              	tst	(r5)+			; U.
062200: 004767 171062       	call	53266			; w.2r
062204: 000467              	br	62364			; 7.
;
062206: 010605              	mov	r6,r5			; ..
062210: 005725              	tst	(r5)+			; U.
062212: 004767 175410       	call	57626			; w..{
062216: 000462              	br	62364			; 2.
;
062220: 010605              	mov	r6,r5			; ..
062222: 005725              	tst	(r5)+			; U.
062224: 004767 172650       	call	55100			; w.(u
062230: 000455              	br	62364			; -.
;
062232: 010605              	mov	r6,r5			; ..
062234: 005725              	tst	(r5)+			; U.
062236: 004767 176530       	call	60772			; w.X}
062242: 000450              	br	62364			; (.
;
062244: 010605              	mov	r6,r5			; ..
062246: 005725              	tst	(r5)+			; U.
062250: 004767 170400       	call	52654			; w..q
062254: 000443              	br	62364			; #.
;
062256: 010605              	mov	r6,r5			; ..
062260: 005725              	tst	(r5)+			; U.
062262: 004767 174740       	call	57226			; w.`y
062266: 000436              	br	62364			; ..
;
062270: 010605              	mov	r6,r5			; ..
062272: 005725              	tst	(r5)+			; U.
062274: 004767 174260       	call	56560			; w.0x
062300: 000431              	br	62364			; ..
;
062302: 004767 152154       	call	34462			; w.lT
062306: 012746 000030       	mov	#30,-(r6)		; f...
062312: 012746 000012       	mov	#12,-(r6)		; f...
062316: 004767 000706       	call	63230			; w.F.
062322: 013746 100002       	mov	@#100002,-(r6)		; f...
062326: 004767 010752       	call	73304			; w.j.
062332: 012746 054164       	mov	#54164,-(r6)		; f.tX
062336: 012746 000020       	mov	#20,-(r6)		; f...
062342: 011646              	mov	(r6),-(r6)		; &.
062344: 004767 012312       	call	74662			; w.J.
062350: 004767 004524       	call	67100			; w.T.
062354: 012746 065126       	mov	#65126,-(r6)		; f.Vj
062360: 004767 012620       	call	75204			; w...
062364: 000406              	br	62402			; ..
;
062366: 005066 000010       	clr	10(r6)			; 6...
062372: 012746 100072       	mov	#100072,-(r6)		; f.:.
062376: 004767 014026       	call	76430			; w...
062402: 000167 177124       	jmp	61532			; w.T~
;
062406: 010605              	mov	r6,r5			; ..
062410: 005725              	tst	(r5)+			; U.
062412: 004767 163420       	call	46036			; w..g
062416: 000167 177034       	jmp	61456			; w..~
;
062422: 004767 015040       	call	77466			; w. .
062426: 013746 100002       	mov	@#100002,-(r6)		; f...
062432: 004767 010646       	call	73304			; w.&.
062436: 112746 000033       	movb	#33,-(r6)		; f...
062442: 012746 000001       	mov	#1,-(r6)		; f...
062446: 004767 012074       	call	74546			; w.<.
062452: 004767 004422       	call	67100			; w...
062456: 000207              	ret				; ..
;
062460: 004767 177742       	call	62426			; w.b.
062464: 013746 100002       	mov	@#100002,-(r6)		; f...
062470: 004767 010610       	call	73304			; w...
062474: 112746 000133       	movb	#133,-(r6)		; f.[.
062500: 012746 000001       	mov	#1,-(r6)		; f...
062504: 004767 012036       	call	74546			; w...
062510: 004767 004364       	call	67100			; w.t.
062514: 000207              	ret				; ..
;
062516: 004767 177704       	call	62426			; w.D.
062522: 013746 100002       	mov	@#100002,-(r6)		; f...
062526: 004767 010552       	call	73304			; w.j.
062532: 116646 000002       	movb	2(r6),-(r6)		; &...
062536: 012746 000001       	mov	#1,-(r6)		; f...
062542: 004767 012000       	call	74546			; w...
062546: 004767 004326       	call	67100			; w.V.
062552: 012616              	mov	(r6)+,(r6)		; ..
062554: 000207              	ret				; ..
;
062556: 004767 177644       	call	62426			; w.$.
062562: 013746 100002       	mov	@#100002,-(r6)		; f...
062566: 004767 010512       	call	73304			; w.J.
062572: 012746 000004       	mov	#4,-(r6)		; f...
062576: 060616              	add	r6,(r6)			; .a
062600: 012746 000002       	mov	#2,-(r6)		; f...
062604: 011646              	mov	(r6),-(r6)		; &.
062606: 004767 012050       	call	74662			; w.(.
062612: 004767 004262       	call	67100			; w.2.
062616: 012616              	mov	(r6)+,(r6)		; ..
062620: 000207              	ret				; ..
;
062622: 004767 177600       	call	62426			; w...
062626: 013746 100002       	mov	@#100002,-(r6)		; f...
062632: 004767 010446       	call	73304			; w.&.
062636: 012746 000004       	mov	#4,-(r6)		; f...
062642: 060616              	add	r6,(r6)			; .a
062644: 012746 000003       	mov	#3,-(r6)		; f...
062650: 011646              	mov	(r6),-(r6)		; &.
062652: 004767 012004       	call	74662			; w...
062656: 004767 004216       	call	67100			; w...
062662: 012616              	mov	(r6)+,(r6)		; ..
062664: 012616              	mov	(r6)+,(r6)		; ..
062666: 000207              	ret				; ..
;
062670: 024646              	cmp	-(r6),-(r6)		; &)
062672: 004767 011502       	call	74400			; w.B.
062676: 024646              	cmp	-(r6),-(r6)		; &)
062700: 113716 066170       	movb	@#66170,(r6)		; N.xl
062704: 113766 066171 000001	movb	@#66171,1(r6)		; v.yl..
062712: 113766 066172 000002	movb	@#66172,2(r6)		; v.zl..
062720: 004767 177676       	call	62622			; w.>.
062724: 013746 100002       	mov	@#100002,-(r6)		; f...
062730: 004767 010350       	call	73304			; w.h.
062734: 004767 004146       	call	67106			; w.f.
062740: 005005              	clr	r5			; ..
062742: 016603 000022       	mov	22(r6),r3		; ....
062746: 005205              	inc	r5			; ..
062750: 013746 100000       	mov	@#100000,-(r6)		; f...
062754: 004767 010324       	call	73304			; w.T.
062760: 004767 011456       	call	74442			; w...
062764: 112602              	movb	(r6)+,r2		; ..
062766: 110266 000015       	movb	r2,15(r6)		; 6...
062772: 010501              	mov	r5,r1			; A.
062774: 060301              	add	r3,r1			; A`
062776: 110261 000001       	movb	r2,1(r1)		; 1...
063002: 105066 000014       	clrb	14(r6)			; 6...
063006: 120227 000122       	cmpb	r2,#122			; . R.
063012: 001002              	bne	63020			; ..
063014: 105266 000014       	incb	14(r6)			; 6...
063020: 105766 000014       	tstb	14(r6)			; v...
063024: 001746              	beq	62742			; f.
063026: 010513              	mov	r5,(r3)			; K.
063030: 060503              	add	r5,r3			; Ca
063032: 112763 000110 000001	movb	#110,1(r3)		; s.H...
063040: 004767 011360       	call	74424			; w.p.
063044: 022626              	cmp	(r6)+,(r6)+		; .%
063046: 012616              	mov	(r6)+,(r6)		; ..
063050: 000207              	ret				; ..
;
063052: 004767 177402       	call	62460			; w...
063056: 013746 100002       	mov	@#100002,-(r6)		; f...
063062: 004767 010216       	call	73304			; w...
063066: 016646 000004       	mov	4(r6),-(r6)		; &...
063072: 012746 000001       	mov	#1,-(r6)		; f...
063076: 004767 016366       	call	101470			; w.v.
063102: 116646 000002       	movb	2(r6),-(r6)		; &...
063106: 012746 000001       	mov	#1,-(r6)		; f...
063112: 004767 011430       	call	74546			; w...
063116: 004767 003756       	call	67100			; w.n.
063122: 012616              	mov	(r6)+,(r6)		; ..
063124: 012616              	mov	(r6)+,(r6)		; ..
063126: 000207              	ret				; ..
;
063130: 016646 000002       	mov	2(r6),-(r6)		; &...
063134: 112746 000101       	movb	#101,-(r6)		; f.A.
063140: 004767 177706       	call	63052			; w.F.
063144: 012616              	mov	(r6)+,(r6)		; ..
063146: 000207              	ret				; ..
;
063150: 016646 000002       	mov	2(r6),-(r6)		; &...
063154: 112746 000102       	movb	#102,-(r6)		; f.B.
063160: 004767 177666       	call	63052			; w.6.
063164: 012616              	mov	(r6)+,(r6)		; ..
063166: 000207              	ret				; ..
;
063170: 016646 000002       	mov	2(r6),-(r6)		; &...
063174: 112746 000103       	movb	#103,-(r6)		; f.C.
063200: 004767 177646       	call	63052			; w.&.
063204: 012616              	mov	(r6)+,(r6)		; ..
063206: 000207              	ret				; ..
;
063210: 016646 000002       	mov	2(r6),-(r6)		; &...
063214: 112746 000104       	movb	#104,-(r6)		; f.D.
063220: 004767 177626       	call	63052			; w...
063224: 012616              	mov	(r6)+,(r6)		; ..
063226: 000207              	ret				; ..
;
063230: 016646 000004       	mov	4(r6),-(r6)		; &...
063234: 112746 000073       	movb	#73,-(r6)		; f.;.
063240: 004767 177606       	call	63052			; w...
063244: 013746 100002       	mov	@#100002,-(r6)		; f...
063250: 004767 010030       	call	73304			; w...
063254: 016646 000002       	mov	2(r6),-(r6)		; &...
063260: 012746 000001       	mov	#1,-(r6)		; f...
063264: 004767 016200       	call	101470			; w...
063270: 112746 000110       	movb	#110,-(r6)		; f.H.
063274: 012746 000001       	mov	#1,-(r6)		; f...
063300: 004767 011242       	call	74546			; w.".
063304: 004767 003570       	call	67100			; w.x.
063310: 012616              	mov	(r6)+,(r6)		; ..
063312: 012616              	mov	(r6)+,(r6)		; ..
063314: 000207              	ret				; ..
;
063316: 112746 000104       	movb	#104,-(r6)		; f.D.
063322: 004767 177170       	call	62516			; w.x~
063326: 000207              	ret				; ..
;
063330: 112746 000105       	movb	#105,-(r6)		; f.E.
063334: 004767 177156       	call	62516			; w.n~
063340: 000207              	ret				; ..
;
063342: 112746 000115       	movb	#115,-(r6)		; f.M.
063346: 004767 177144       	call	62516			; w.d~
063352: 000207              	ret				; ..
;
063354: 112746 000067       	movb	#67,-(r6)		; f.7.
063360: 004767 177132       	call	62516			; w.Z~
063364: 000207              	ret				; ..
;
063366: 112746 000070       	movb	#70,-(r6)		; f.8.
063372: 004767 177120       	call	62516			; w.P~
063376: 000207              	ret				; ..
;
063400: 013746 066174       	mov	@#66174,-(r6)		; f.|l
063404: 004767 177146       	call	62556			; w.f~
063410: 000207              	ret				; ..
;
063412: 013746 066176       	mov	@#66176,-(r6)		; f.~l
063416: 004767 177134       	call	62556			; w.\~
063422: 000207              	ret				; ..
;
063424: 013746 066200       	mov	@#66200,-(r6)		; f..l
063430: 004767 177122       	call	62556			; w.R~
063434: 000207              	ret				; ..
;
063436: 013746 066202       	mov	@#66202,-(r6)		; f..l
063442: 004767 177110       	call	62556			; w.H~
063446: 000207              	ret				; ..
;
063450: 024646              	cmp	-(r6),-(r6)		; &)
063452: 113716 066204       	movb	@#66204,(r6)		; N..l
063456: 113766 066205 000001	movb	@#66205,1(r6)		; v..l..
063464: 113766 066206 000002	movb	@#66206,2(r6)		; v..l..
063472: 004767 177124       	call	62622			; w.T~
063476: 000207              	ret				; ..
;
063500: 024646              	cmp	-(r6),-(r6)		; &)
063502: 113716 066210       	movb	@#66210,(r6)		; N..l
063506: 113766 066211 000001	movb	@#66211,1(r6)		; v..l..
063514: 113766 066212 000002	movb	@#66212,2(r6)		; v..l..
063522: 004767 177074       	call	62622			; w.<~
063526: 000207              	ret				; ..
;
063530: 024646              	cmp	-(r6),-(r6)		; &)
063532: 113716 066214       	movb	@#66214,(r6)		; N..l
063536: 113766 066215 000001	movb	@#66215,1(r6)		; v..l..
063544: 113766 066216 000002	movb	@#66216,2(r6)		; v..l..
063552: 004767 177044       	call	62622			; w.$~
063556: 000207              	ret				; ..
;
063560: 024646              	cmp	-(r6),-(r6)		; &)
063562: 113716 066220       	movb	@#66220,(r6)		; N..l
063566: 113766 066221 000001	movb	@#66221,1(r6)		; v..l..
063574: 113766 066222 000002	movb	@#66222,2(r6)		; v..l..
063602: 004767 177014       	call	62622			; w..~
063606: 000207              	ret				; ..
;
063610: 024646              	cmp	-(r6),-(r6)		; &)
063612: 113716 066224       	movb	@#66224,(r6)		; N..l
063616: 113766 066225 000001	movb	@#66225,1(r6)		; v..l..
063624: 113766 066226 000002	movb	@#66226,2(r6)		; v..l..
063632: 004767 176764       	call	62622			; w.t}
063636: 000207              	ret				; ..
;
063640: 013746 066230       	mov	@#66230,-(r6)		; f..l
063644: 004767 176706       	call	62556			; w.F}
063650: 000207              	ret				; ..
;
063652: 024646              	cmp	-(r6),-(r6)		; &)
063654: 113716 066232       	movb	@#66232,(r6)		; N..l
063660: 113766 066233 000001	movb	@#66233,1(r6)		; v..l..
063666: 113766 066234 000002	movb	@#66234,2(r6)		; v..l..
063674: 004767 176722       	call	62622			; w.R}
063700: 000207              	ret				; ..
;
063702: 024646              	cmp	-(r6),-(r6)		; &)
063704: 113716 066236       	movb	@#66236,(r6)		; N..l
063710: 113766 066237 000001	movb	@#66237,1(r6)		; v..l..
063716: 113766 066240 000002	movb	@#66240,2(r6)		; v. l..
063724: 004767 176672       	call	62622			; w.:}
063730: 000207              	ret				; ..
;
063732: 013746 066242       	mov	@#66242,-(r6)		; f."l
063736: 004767 176614       	call	62556			; w..}
063742: 000207              	ret				; ..
;
063744: 024646              	cmp	-(r6),-(r6)		; &)
063746: 113716 066244       	movb	@#66244,(r6)		; N.$l
063752: 113766 066245 000001	movb	@#66245,1(r6)		; v.%l..
063760: 113766 066246 000002	movb	@#66246,2(r6)		; v.&l..
063766: 004767 176630       	call	62622			; w..}
063772: 000207              	ret				; ..
;
063774: 024646              	cmp	-(r6),-(r6)		; &)
063776: 113716 066250       	movb	@#66250,(r6)		; N.(l
064002: 113766 066251 000001	movb	@#66251,1(r6)		; v.)l..
064010: 113766 066252 000002	movb	@#66252,2(r6)		; v.*l..
064016: 004767 176600       	call	62622			; w..}
064022: 000207              	ret				; ..
;
064024: 016646 000004       	mov	4(r6),-(r6)		; &...
064030: 112746 000073       	movb	#73,-(r6)		; f.;.
064034: 004767 177012       	call	63052			; w..~
064040: 013746 100002       	mov	@#100002,-(r6)		; f...
064044: 004767 007234       	call	73304			; w...
064050: 016646 000002       	mov	2(r6),-(r6)		; &...
064054: 012746 000001       	mov	#1,-(r6)		; f...
064060: 004767 015404       	call	101470			; w...
064064: 112746 000162       	movb	#162,-(r6)		; f.r.
064070: 012746 000001       	mov	#1,-(r6)		; f...
064074: 004767 010446       	call	74546			; w.&.
064100: 004767 002774       	call	67100			; w.|.
064104: 012616              	mov	(r6)+,(r6)		; ..
064106: 012616              	mov	(r6)+,(r6)		; ..
064110: 000207              	ret				; ..
;
064112: 013746 066254       	mov	@#66254,-(r6)		; f.,l
064116: 004767 176434       	call	62556			; w..}
064122: 000207              	ret				; ..
;
064124: 013746 066256       	mov	@#66256,-(r6)		; f..l
064130: 004767 176422       	call	62556			; w..}
064134: 000207              	ret				; ..
;
064136: 162706 000016       	sub	#16,r6			; Fe..
064142: 004767 010232       	call	74400			; w...
064146: 012700 000001       	mov	#1,r0			; @...
064152: 012701 100002       	mov	#100002,r1		; A...
064156: 012746 000020       	mov	#20,-(r6)		; f...
064162: 060616              	add	r6,(r6)			; .a
064164: 004767 176500       	call	62670			; w.@}
064170: 004767 177204       	call	63400			; w..~
064174: 016646 000034       	mov	34(r6),-(r6)		; &...
064200: 016605 000040       	mov	40(r6),r5		; .. .
064204: 020516              	cmp	r5,(r6)			; N!
064206: 003021              	bgt	64252			; ..
064210: 011146              	mov	(r1),-(r6)		; f.
064212: 004767 007066       	call	73304			; w.6.
064216: 005746              	tst	-(r6)			; f.
064220: 010503              	mov	r5,r3			; C.
064222: 166603 000042       	sub	42(r6),r3		; .m".
064226: 066603 000044       	add	44(r6),r3		; .m$.
064232: 111316              	movb	(r3),(r6)		; N.
064234: 010046              	mov	r0,-(r6)		; &.
064236: 004767 010304       	call	74546			; w.D.
064242: 004767 002632       	call	67100			; w...
064246: 005205              	inc	r5			; ..
064250: 102355              	bvc	64204			; m.
064252: 005726              	tst	(r6)+			; V.
064254: 016646 000016       	mov	16(r6),-(r6)		; &...
064260: 010005              	mov	r0,r5			; ..
064262: 020516              	cmp	r5,(r6)			; N!
064264: 003016              	bgt	64322			; ..
064266: 011146              	mov	(r1),-(r6)		; f.
064270: 004767 007010       	call	73304			; w...
064274: 010503              	mov	r5,r3			; C.
064276: 060603              	add	r6,r3			; .a
064300: 116346 000021       	movb	21(r3),-(r6)		; f...
064304: 010046              	mov	r0,-(r6)		; &.
064306: 004767 010234       	call	74546			; w...
064312: 004767 002562       	call	67100			; w.r.
064316: 005205              	inc	r5			; ..
064320: 102360              	bvc	64262			; p.
064322: 005726              	tst	(r6)+			; V.
064324: 010046              	mov	r0,-(r6)		; &.
064326: 004767 176616       	call	63150			; w..}
064332: 004767 177054       	call	63412			; w.,~
064336: 016646 000034       	mov	34(r6),-(r6)		; &...
064342: 016605 000040       	mov	40(r6),r5		; .. .
064346: 020516              	cmp	r5,(r6)			; N!
064350: 003021              	bgt	64414			; ..
064352: 011146              	mov	(r1),-(r6)		; f.
064354: 004767 006724       	call	73304			; w.T.
064360: 005746              	tst	-(r6)			; f.
064362: 010503              	mov	r5,r3			; C.
064364: 166603 000042       	sub	42(r6),r3		; .m".
064370: 066603 000044       	add	44(r6),r3		; .m$.
064374: 111316              	movb	(r3),(r6)		; N.
064376: 010046              	mov	r0,-(r6)		; &.
064400: 004767 010142       	call	74546			; w.b.
064404: 004767 002470       	call	67100			; w.8.
064410: 005205              	inc	r5			; ..
064412: 102355              	bvc	64346			; m.
064414: 005726              	tst	(r6)+			; V.
064416: 010046              	mov	r0,-(r6)		; &.
064420: 004767 176504       	call	63130			; w.D}
064424: 004767 007774       	call	74424			; w.|.
064430: 016666 000016 000024	mov	16(r6),24(r6)		; 6.....
064436: 062706 000024       	add	#24,r6			; Fe..
064442: 000207              	ret				; ..
;
064444: 005746              	tst	-(r6)			; f.
064446: 010546              	mov	r5,-(r6)		; f.
064450: 010346              	mov	r3,-(r6)		; f.
064452: 004767 176760       	call	63436			; w.p}
064456: 016646 000010       	mov	10(r6),-(r6)		; &...
064462: 016605 000014       	mov	14(r6),r5		; ....
064466: 020516              	cmp	r5,(r6)			; N!
064470: 003023              	bgt	64540			; ..
064472: 013746 100002       	mov	@#100002,-(r6)		; f...
064476: 004767 006602       	call	73304			; w...
064502: 005746              	tst	-(r6)			; f.
064504: 010503              	mov	r5,r3			; C.
064506: 166603 000016       	sub	16(r6),r3		; .m..
064512: 066603 000020       	add	20(r6),r3		; .m..
064516: 111316              	movb	(r3),(r6)		; N.
064520: 012746 000001       	mov	#1,-(r6)		; f...
064524: 004767 010016       	call	74546			; w...
064530: 004767 002344       	call	67100			; w.d.
064534: 005205              	inc	r5			; ..
064536: 102353              	bvc	64466			; k.
064540: 005726              	tst	(r6)+			; V.
064542: 012603              	mov	(r6)+,r3		; ..
064544: 012605              	mov	(r6)+,r5		; ..
064546: 016666 000002 000010	mov	2(r6),10(r6)		; 6.....
064554: 062706 000010       	add	#10,r6			; Fe..
064560: 000207              	ret				; ..
;
064562: 177776 000120       	ldcdf	f3,@120(r6)		; ~.P.
064566: 005021              	clr	(r1)+			; ..
064570: 000001              	wait				; ..
064572: 000204              	rts	r4			; ..
;
064574: 000000              	halt				; ..
064576: 000000              	halt				; ..
064600: 000000              	halt				; ..
064602: 000000              	halt				; ..
;
064604: 000204              	rts	r4			; ..
;
064606: 000204              	rts	r4			; ..
;
064610: 000000              	halt				; ..
064612: 000000              	halt				; ..
;
064614: 177776 000000       	ldcdf	f3,@0(r6)		; ~...
064620: 000000              	halt				; ..
064622: 000000              	halt				; ..
;
064624: 000076              	invalid opcode			; >.
064626: 000000              	halt				; ..
064630: 000000              	halt				; ..
;
064632: 000062              	invalid opcode			; 2.
064634: 000000              	halt				; ..
064636: 000000              	halt				; ..
064640: 000000              	halt				; ..
064642: 000000              	halt				; ..
064644: 000000              	halt				; ..
064646: 000000              	halt				; ..
064650: 000000              	halt				; ..
;
064652: 052044              	bis	(r0)+,-(r4)		; $T
064654: 040524              	bic	r5,(r4)+		; TA
064656: 020040              	cmp	r0,-(r0)		;   
064660: 000000              	halt				; ..
064662: 000000              	halt				; ..
064664: 000000              	halt				; ..
064666: 000000              	halt				; ..
;
064670: 177777 021043       	ldcdf	f3,@105737		; ..#"
064674: 177776 010464       	ldcdf	f3,@10464(r6)		; ~.4.
064700: 001001              	bne	64704			; ..
064702: 000001              	wait				; ..
064704: 000102              	jmp	r2			; B.
;
064706: 000102              	jmp	r2			; B.
;
064710: 000000              	halt				; ..
064712: 000000              	halt				; ..
064714: 000000              	halt				; ..
;
064716: 000102              	jmp	r2			; B.
;
064720: 000102              	jmp	r2			; B.
;
064722: 177776 000000       	ldcdf	f3,@0(r6)		; ~...
064726: 177776 000000       	ldcdf	f3,@0(r6)		; ~...
064732: 000000              	halt				; ..
064734: 000000              	halt				; ..
;
064736: 000076              	invalid opcode			; >.
064740: 000000              	halt				; ..
064742: 000000              	halt				; ..
;
064744: 000062              	invalid opcode			; 2.
064746: 000000              	halt				; ..
064750: 000000              	halt				; ..
064752: 000000              	halt				; ..
064754: 000000              	halt				; ..
064756: 000000              	halt				; ..
064760: 000000              	halt				; ..
064762: 000000              	halt				; ..
;
064764: 052044              	bis	(r0)+,-(r4)		; $T
064766: 040524              	bic	r5,(r4)+		; TA
064770: 020040              	cmp	r0,-(r0)		;   
064772: 000000              	halt				; ..
064774: 000000              	halt				; ..
064776: 000000              	halt				; ..
065000: 000000              	halt				; ..
;
065002: 177777 021043       	ldcdf	f3,@106051		; ..#"
065006: 040506              	bic	r5,r6			; FA
065010: 051514              	bis	(r5),(r4)		; LS
065012: 000105              	jmp	r5			; E.
;
065014: 051124              	bis	(r1),(r4)+		; TR
065016: 042525              	bic	(r5)+,(r5)+		; UE
065020: 005727 000261       	tst	#261			; W.1.
065024: 004767 000004       	call	65034			; w...
065030: 012616              	mov	(r6)+,(r6)		; ..
065032: 000207              	ret				; ..
;
065034: 004567 006356       	jsr	r5,73416		; w.n.
065040: 011400              	mov	(r4),r0			; ..
065042: 017005 000054       	mov	@54(r0),r5		; ..,.
065046: 010501              	mov	r5,r1			; A.
065050: 005201              	inc	r1			; ..
065052: 005201              	inc	r1			; ..
065054: 010546              	mov	r5,-(r6)		; f.
065056: 103022              	bcc	65124			; ..
065060: 005046              	clr	-(r6)			; &.
065062: 004767 001630       	call	66716			; w...
065066: 103527              	bcs	65346			; W.
065070: 004767 006250       	call	73344			; w.(.
065074: 004767 004472       	call	71572			; w.:.
065100: 042711 141240       	bic	#141240,(r1)		; IE B
065104: 052711 000100       	bis	#100,(r1)		; IU@.
065110: 005065 000012       	clr	12(r5)			; 5...
065114: 052765 004000 000004	bis	#4000,4(r5)		; uU....
065122: 000475              	br	65316			; =.
;
065124: 010746              	mov	r7,-(r6)		; f.
065126: 004767 001564       	call	66716			; w.t.
065132: 103027              	bcc	65212			; ..
065134: 012746 042524       	mov	#42524,-(r6)		; f.TE
065140: 010602              	mov	r6,r2			; ..
065142: 016646 000024       	mov	24(r6),-(r6)		; &...
065146: 010246              	mov	r2,-(r6)		; &.
065150: 012746 000001       	mov	#1,-(r6)		; f...
065154: 012746 000002       	mov	#2,-(r6)		; f...
065160: 005046              	clr	-(r6)			; &.
065162: 005046              	clr	-(r6)			; &.
065164: 012746 000410       	mov	#410,-(r6)		; f...
065170: 005046              	clr	-(r6)			; &.
065172: 004767 000152       	call	65350			; w.j.
065176: 030026              	bit	r0,(r6)+		; .0
065200: 103462              	bcs	65346			; 2.
065202: 017005 000054       	mov	@54(r0),r5		; ..,.
065206: 010501              	mov	r5,r1			; A.
065210: 005721              	tst	(r1)+			; Q.
065212: 004767 006126       	call	73344			; w.V.
065216: 032711 000100       	bit	#100,(r1)		; I5@.
065222: 001403              	beq	65232			; ..
065224: 032711 000004       	bit	#4,(r1)			; I5..
065230: 001006              	bne	65246			; ..
065232: 031765 000004       	bit	(r7),4(r5)		; u3..
065236: 001410              	beq	65260			; ..
065240: 032711 000400       	bit	#400,(r1)		; I5..
065244: 001005              	bne	65260			; ..
065246: 012746 034017       	mov	#34017,-(r6)		; f..8
065252: 004767 007006       	call	74264			; w...
065256: 000431              	br	65342			; ..
;
065260: 042711 141100       	bic	#141100,(r1)		; IE@B
065264: 052711 000040       	bis	#40,(r1)		; IU .
065270: 016565 000032 000026	mov	32(r5),26(r5)		; u.....
065276: 016500 000010       	mov	10(r5),r0		; @...
065302: 010065 000012       	mov	r0,12(r5)		; 5...
065306: 010065 000022       	mov	r0,22(r5)		; 5...
065312: 010065 000024       	mov	r0,24(r5)		; 5...
065316: 005065 000014       	clr	14(r5)			; 5...
065322: 005065 000016       	clr	16(r5)			; 5...
065326: 005065 000052       	clr	52(r5)			; 5.*.
065332: 005065 000044       	clr	44(r5)			; 5.$.
065336: 005065 000046       	clr	46(r5)			; 5.&.
065342: 004767 006016       	call	73364			; w...
065346: 000207              	ret				; ..
;
065350: 004767 007564       	call	75140			; w.t.
065354: 004767 000022       	call	65402			; w...
065360: 004767 007604       	call	75170			; w...
065364: 011666 000020       	mov	(r6),20(r6)		; 6...
065370: 032626              	bit	(r6)+,(r6)+		; .5
065372: 032626              	bit	(r6)+,(r6)+		; .5
065374: 032626              	bit	(r6)+,(r6)+		; .5
065376: 032626              	bit	(r6)+,(r6)+		; .5
065400: 000207              	ret				; ..
;
065402: 004567 006010       	jsr	r5,73416		; w...
065406: 011400              	mov	(r4),r0			; ..
065410: 016003 000054       	mov	54(r0),r3		; ..,.
065414: 011346              	mov	(r3),-(r6)		; f.
065416: 010746              	mov	r7,-(r6)		; f.
065420: 004767 001272       	call	66716			; w.:.
065424: 103414              	bcs	65456			; ..
065426: 011301              	mov	(r3),r1			; A.
065430: 032761 001000 000004	bit	#1000,4(r1)		; q5....
065436: 001005              	bne	65452			; ..
065440: 012746 034042       	mov	#34042,-(r6)		; f."8
065444: 004767 006614       	call	74264			; w...
065450: 000405              	br	65464			; ..
;
065452: 004767 004704       	call	72362			; w.D.
065456: 004767 000642       	call	66324			; w.".
065462: 103002              	bcc	65470			; ..
065464: 000261              	sec				; 1.
065466: 000207              	ret				; ..
;
065470: 010513              	mov	r5,(r3)			; K.
065472: 010503              	mov	r5,r3			; C.
065474: 005723              	tst	(r3)+			; S.
065476: 016613 000024       	mov	24(r6),(r3)		; ....
065502: 042713 140000       	bic	#140000,(r3)		; KE.@
065506: 016601 000040       	mov	40(r6),r1		; .. .
065512: 001516              	beq	65750			; N.
065514: 003004              	bgt	65526			; ..
065516: 052713 000020       	bis	#20,(r3)		; KU..
065522: 012701 000001       	mov	#1,r1			; A...
065526: 010165 000006       	mov	r1,6(r5)		; u...
065532: 004767 000554       	call	66312			; w.l.
065536: 103501              	bcs	65742			; A.
065540: 010015              	mov	r0,(r5)			; ..
065542: 012765 000021 000036	mov	#21,36(r5)		; u.....
065550: 032713 000400       	bit	#400,(r3)		; K5..
065554: 001010              	bne	65576			; ..
065556: 005365 000036       	dec	36(r5)			; u...
065562: 032713 000002       	bit	#2,(r3)			; K5..
065566: 001416              	beq	65624			; ..
065570: 052713 000001       	bis	#1,(r3)			; KU..
065574: 000413              	br	65624			; ..
;
065576: 016600 000030       	mov	30(r6),r0		; ....
065602: 001402              	beq	65610			; ..
065604: 011065 000046       	mov	(r0),46(r5)		; 5.&.
065610: 016665 000026 000044	mov	26(r6),44(r5)		; 5...$.
065616: 032713 000003       	bit	#3,(r3)			; K5..
065622: 001042              	bne	65730			; ".
065624: 010602              	mov	r6,r2			; ..
065626: 016203 000036       	mov	36(r2),r3		; ....
065632: 016201 000032       	mov	32(r2),r1		; ....
065636: 166201 000034       	sub	34(r2),r1		; .l..
065642: 005201              	inc	r1			; ..
065644: 010100              	mov	r1,r0			; @.
065646: 062700 000003       	add	#3,r0			; @e..
065652: 042700 000001       	bic	#1,r0			; @E..
065656: 160006              	sub	r0,r6			; .`
065660: 010600              	mov	r6,r0			; ..
065662: 010120              	mov	r1,(r0)+		; P.
065664: 112320              	movb	(r3)+,(r0)+		; P.
065666: 077102              	sob	r1,65664		; B~
065670: 010601              	mov	r6,r1			; ..
065672: 010200              	mov	r2,r0			; ..
065674: 160100              	sub	r1,r0			; @`
065676: 010746              	mov	r7,-(r6)		; f.
065700: 010146              	mov	r1,-(r6)		; f.
065702: 010046              	mov	r0,-(r6)		; &.
065704: 005046              	clr	-(r6)			; &.
065706: 004767 005032       	call	72744			; w...
065712: 010206              	mov	r2,r6			; ..
065714: 103020              	bcc	65756			; ..
065716: 016546 000052       	mov	52(r5),-(r6)		; f.*.
065722: 004767 006336       	call	74264			; w.^.
065726: 000556              	br	66264			; n.
;
065730: 012746 034030       	mov	#34030,-(r6)		; f..8
065734: 004767 006324       	call	74264			; w.T.
065740: 000551              	br	66264			; i.
;
065742: 012746 044004       	mov	#44004,-(r6)		; f..H
065746: 000772              	br	65734			; z.
;
065750: 012746 034022       	mov	#34022,-(r6)		; f..8
065754: 000767              	br	65734			; w.
;
065756: 010503              	mov	r5,r3			; C.
065760: 005723              	tst	(r3)+			; S.
065762: 056565 000056 000004	bis	56(r5),4(r5)		; u]....
065770: 032765 000200 000004	bit	#200,4(r5)		; u5....
065776: 001410              	beq	66020			; ..
066000: 016546 000042       	mov	42(r5),-(r6)		; f.".
066004: 010600              	mov	r6,r0			; ..
066006: 000004              	iot				; ..
066010: 005332              	dec	@(r2)+			; Z.
066012: 005226              	inc	(r6)+			; ..
066014: 042713 000004       	bic	#4,(r3)			; KE..
066020: 016402 000016       	mov	16(r4),r2		; ....
066024: 005264 000022       	inc	22(r4)			; 4...
066030: 001405              	beq	66044			; ..
066032: 010246              	mov	r2,-(r6)		; &.
066034: 010600              	mov	r6,r0			; ..
066036: 000004              	iot				; ..
066040: 010754              	mov	r7,@-(r4)		; l.
066042: 005226              	inc	(r6)+			; ..
066044: 016400 000010       	mov	10(r4),r0		; ....
066050: 005710              	tst	(r0)			; H.
066052: 001404              	beq	66064			; ..
066054: 011000              	mov	(r0),r0			; ..
066056: 062700 000104       	add	#104,r0			; @eD.
066062: 000772              	br	66050			; z.
;
066064: 010510              	mov	r5,(r0)			; H.
066066: 005364 000022       	dec	22(r4)			; t...
066072: 100405              	bmi	66106			; ..
066074: 010246              	mov	r2,-(r6)		; &.
066076: 010600              	mov	r6,r0			; ..
066100: 000004              	iot				; ..
066102: 010116              	mov	r1,(r6)			; N.
066104: 005226              	inc	(r6)+			; ..
066106: 052765 002000 000004	bis	#2000,4(r5)		; uU....
066114: 016600 000030       	mov	30(r6),r0		; ....
066120: 001402              	beq	66126			; ..
066122: 016510 000054       	mov	54(r5),(r0)		; H.,.
066126: 016501 000060       	mov	60(r5),r1		; A.0.
066132: 001004              	bne	66144			; ..
066134: 016601 000026       	mov	26(r6),r1		; ....
066140: 001001              	bne	66144			; ..
066142: 005201              	inc	r1			; ..
066144: 032765 000010 000004	bit	#10,4(r5)		; u5....
066152: 001404              	beq	66164			; ..
066154: 062701 000777       	add	#777,r1			; Ae..
066160: 042701 000777       	bic	#777,r1			; AE..
066164: 010165 000010       	mov	r1,10(r5)		; u...
066170: 004767 000116       	call	66312			; w.N.
066174: 103662              	bcs	65742			; 2.
066176: 010065 000032       	mov	r0,32(r5)		; 5...
066202: 032765 010004 000004	bit	#10004,4(r5)		; u5....
066210: 001402              	beq	66216			; ..
066212: 042713 010000       	bic	#10000,(r3)		; KE..
066216: 032713 000003       	bit	#3,(r3)			; K5..
066222: 001406              	beq	66240			; ..
066224: 032765 000004 000004	bit	#4,4(r5)		; u5....
066232: 001636              	beq	65730			; ..
066234: 042713 000004       	bic	#4,(r3)			; KE..
066240: 032713 000004       	bit	#4,(r3)			; K5..
066244: 001405              	beq	66260			; ..
066246: 004767 000040       	call	66312			; w. .
066252: 103633              	bcs	65742			; ..
066254: 010065 000034       	mov	r0,34(r5)		; 5...
066260: 000241              	clc				; !.
066262: 000207              	ret				; ..
;
066264: 032765 002000 000004	bit	#2000,4(r5)		; u5....
066272: 001403              	beq	66302			; ..
066274: 004767 004060       	call	72360			; w.0.
066300: 000402              	br	66306			; ..
;
066302: 004767 000262       	call	66570			; w.2.
066306: 000261              	sec				; 1.
066310: 000207              	ret				; ..
;
066312: 010146              	mov	r1,-(r6)		; f.
066314: 004767 005212       	call	73532			; w...
066320: 012600              	mov	(r6)+,r0		; ..
066322: 000207              	ret				; ..
;
066324: 004367 005126       	jsr	r3,73456		; w.V.
066330: 012702 000112       	mov	#112,r2			; B.J.
066334: 010246              	mov	r2,-(r6)		; &.
066336: 004767 005170       	call	73532			; w.x.
066342: 012605              	mov	(r6)+,r5		; ..
066344: 103504              	bcs	66556			; D.
066346: 010501              	mov	r5,r1			; A.
066350: 010200              	mov	r2,r0			; ..
066352: 006200              	asr	r0			; ..
066354: 005021              	clr	(r1)+			; ..
066356: 077002              	sob	r0,66354		; .~
066360: 010501              	mov	r5,r1			; A.
066362: 062701 000062       	add	#62,r1			; Ae2.
066366: 010165 000050       	mov	r1,50(r5)		; u.(.
066372: 062701 000014       	add	#14,r1			; Ae..
066376: 010165 000042       	mov	r1,42(r5)		; u.".
066402: 012765 177777 000106	mov	#177777,106(r5)		; u...F.
066410: 005774 000024       	tst	@24(r4)			; |...
066414: 001015              	bne	66450			; ..
066416: 010603              	mov	r6,r3			; ..
066420: 005746              	tst	-(r6)			; f.
066422: 010616              	mov	r6,(r6)			; ..
066424: 005746              	tst	-(r6)			; f.
066426: 010616              	mov	r6,(r6)			; ..
066430: 016446 000024       	mov	24(r4),-(r6)		; &...
066434: 010601              	mov	r6,r1			; ..
066436: 010100              	mov	r1,r0			; @.
066440: 000004              	iot				; ..
066442: 006122              	rol	(r2)+			; R.
066444: 010306              	mov	r3,r6			; F.
066446: 103432              	bcs	66534			; ..
066450: 016403 000024       	mov	24(r4),r3		; ....
066454: 016501 000050       	mov	50(r5),r1		; A.(.
066460: 012321              	mov	(r3)+,(r1)+		; Q.
066462: 012321              	mov	(r3)+,(r1)+		; Q.
066464: 011311              	mov	(r3),(r1)		; I.
066466: 005046              	clr	-(r6)			; &.
066470: 005046              	clr	-(r6)			; &.
066472: 012746 000002       	mov	#2,-(r6)		; f...
066476: 016546 000042       	mov	42(r5),-(r6)		; f.".
066502: 010600              	mov	r6,r0			; ..
066504: 000004              	iot				; ..
066506: 004504              	jsr	r5,r4			; D.
066510: 012626              	mov	(r6)+,(r6)+		; ..
066512: 012626              	mov	(r6)+,(r6)+		; ..
066514: 103012              	bcc	66542			; ..
066516: 004767 005532       	call	74254			; w.Z.
066522: 010546              	mov	r5,-(r6)		; f.
066524: 010246              	mov	r2,-(r6)		; &.
066526: 004767 005252       	call	74004			; w.*.
066532: 000407              	br	66552			; ..
;
066534: 012700 034011       	mov	#34011,r0		; @..8
066540: 000766              	br	66516			; v.
;
066542: 012765 021043 000110	mov	#21043,110(r5)		; u.#"H.
066550: 005727 000261       	tst	#261			; W.1.
066554: 000207              	ret				; ..
;
066556: 012746 044005       	mov	#44005,-(r6)		; f..H
066562: 004767 005476       	call	74264			; w.>.
066566: 000771              	br	66552			; y.
;
066570: 004267 004712       	jsr	r2,73506		; 7.J.
066574: 005715              	tst	(r5)			; M.
066576: 001405              	beq	66612			; ..
066600: 011546              	mov	(r5),-(r6)		; f.
066602: 016546 000006       	mov	6(r5),-(r6)		; f...
066606: 004767 005172       	call	74004			; w.z.
066612: 016500 000010       	mov	10(r5),r0		; @...
066616: 016501 000034       	mov	34(r5),r1		; A...
066622: 001404              	beq	66634			; ..
066624: 010146              	mov	r1,-(r6)		; f.
066626: 010046              	mov	r0,-(r6)		; &.
066630: 004767 005150       	call	74004			; w.h.
066634: 016501 000032       	mov	32(r5),r1		; A...
066640: 001404              	beq	66652			; ..
066642: 010146              	mov	r1,-(r6)		; f.
066644: 010046              	mov	r0,-(r6)		; &.
066646: 004767 005132       	call	74004			; w.Z.
066652: 032765 000200 000004	bit	#200,4(r5)		; u5....
066660: 001006              	bne	66676			; ..
066662: 016546 000042       	mov	42(r5),-(r6)		; f.".
066666: 010600              	mov	r6,r0			; ..
066670: 000004              	iot				; ..
066672: 005332              	dec	@(r2)+			; Z.
066674: 005226              	inc	(r6)+			; ..
066676: 005065 000110       	clr	110(r5)			; 5.H.
066702: 010546              	mov	r5,-(r6)		; f.
066704: 012746 000112       	mov	#112,-(r6)		; f.J.
066710: 004767 005070       	call	74004			; w.8.
066714: 000207              	ret				; ..
;
066716: 004767 000006       	call	66730			; w...
066722: 012616              	mov	(r6)+,(r6)		; ..
066724: 012616              	mov	(r6)+,(r6)		; ..
066726: 000207              	ret				; ..
;
066730: 004567 004462       	jsr	r5,73416		; w.2.
066734: 016605 000024       	mov	24(r6),r5		; ....
066740: 001445              	beq	67054			; %.
066742: 005264 000022       	inc	22(r4)			; 4...
066746: 001406              	beq	66764			; ..
066750: 016446 000016       	mov	16(r4),-(r6)		; &...
066754: 010600              	mov	r6,r0			; ..
066756: 000004              	iot				; ..
066760: 010754              	mov	r7,@-(r4)		; l.
066762: 005226              	inc	(r6)+			; ..
066764: 005001              	clr	r1			; ..
066766: 017400 000010       	mov	@10(r4),r0		; ....
066772: 001406              	beq	67010			; ..
066774: 020005              	cmp	r0,r5			; . 
066776: 001403              	beq	67006			; ..
067000: 016000 000104       	mov	104(r0),r0		; ..D.
067004: 000772              	br	66772			; z.
;
067006: 010601              	mov	r6,r1			; ..
067010: 005364 000022       	dec	22(r4)			; t...
067014: 100406              	bmi	67032			; ..
067016: 016446 000016       	mov	16(r4),-(r6)		; &...
067022: 010600              	mov	r6,r0			; ..
067024: 000004              	iot				; ..
067026: 010116              	mov	r1,(r6)			; N.
067030: 005226              	inc	(r6)+			; ..
067032: 005701              	tst	r1			; A.
067034: 001407              	beq	67054			; ..
067036: 022765 021043 000110	cmp	#21043,110(r5)		; u%#"H.
067044: 001003              	bne	67054			; ..
067046: 005727 000261       	tst	#261			; W.1.
067052: 000207              	ret				; ..
;
067054: 005766 000022       	tst	22(r6)			; v...
067060: 001373              	bne	67050			; {.
067062: 012746 034015       	mov	#34015,-(r6)		; f..8
067066: 004767 005172       	call	74264			; w.z.
067072: 000766              	br	67050			; v.
;
067074: 005046              	clr	-(r6)			; &.
067076: 000405              	br	67112			; ..
;
067100: 012746 177777       	mov	#177777,-(r6)		; f...
067104: 000402              	br	67112			; ..
;
067106: 012746 000001       	mov	#1,-(r6)		; f...
067112: 004767 000004       	call	67122			; w...
067116: 005726              	tst	(r6)+			; V.
067120: 000207              	ret				; ..
;
067122: 004567 004270       	jsr	r5,73416		; w.8.
067126: 011400              	mov	(r4),r0			; ..
067130: 016005 000054       	mov	54(r0),r5		; ..,.
067134: 010546              	mov	r5,-(r6)		; f.
067136: 005046              	clr	-(r6)			; &.
067140: 004767 177552       	call	66716			; w.j.
067144: 103435              	bcs	67240			; ..
067146: 004767 004172       	call	73344			; w.z.
067152: 005766 000020       	tst	20(r6)			; v...
067156: 100024              	bpl	67230			; ..
067160: 001410              	beq	67202			; ..
067162: 032765 010000 000002	bit	#10000,2(r5)		; u5....
067170: 001421              	beq	67234			; ..
067172: 032765 010000 000004	bit	#10000,4(r5)		; u5....
067200: 001015              	bne	67234			; ..
067202: 032765 000004 000004	bit	#4,4(r5)		; u5....
067210: 001404              	beq	67222			; ..
067212: 032765 000004 000002	bit	#4,2(r5)		; u5....
067220: 001003              	bne	67230			; ..
067222: 004767 002340       	call	71566			; w.`.
067226: 000402              	br	67234			; ..
;
067230: 004767 002336       	call	71572			; w.^.
067234: 004767 004124       	call	73364			; w.T.
067240: 000207              	ret				; ..
;
067242: 004567 004150       	jsr	r5,73416		; w.h.
067246: 010400              	mov	r4,r0			; ..
067250: 062700 000056       	add	#56,r0			; @e..
067254: 012720 040444       	mov	#40444,(r0)+		; P.$A
067260: 012720 050103       	mov	#50103,(r0)+		; P.CP
067264: 012710 020040       	mov	#20040,(r0)		; H.  
067270: 010703              	mov	r7,r3			; C.
067272: 062703 175270       	add	#175270,r3		; Ce8z
067276: 004767 000056       	call	67360			; w...
067302: 010522              	mov	r5,(r2)+		; R.
067304: 010574 000010       	mov	r5,@10(r4)		; |...
067310: 010500              	mov	r5,r0			; @.
067312: 010703              	mov	r7,r3			; C.
067314: 062703 175360       	add	#175360,r3		; Cepz
067320: 004767 000034       	call	67360			; w...
067324: 016546 000010       	mov	10(r5),-(r6)		; f...
067330: 004767 004176       	call	73532			; w.~.
067334: 012665 000034       	mov	(r6)+,34(r5)		; 5...
067340: 103461              	bcs	67504			; 1.
067342: 016565 000032 000026	mov	32(r5),26(r5)		; u.....
067350: 010512              	mov	r5,(r2)			; J.
067352: 010560 000104       	mov	r5,104(r0)		; p.D.
067356: 000207              	ret				; ..
;
067360: 004367 004072       	jsr	r3,73456		; w.:.
067364: 012701 000112       	mov	#112,r1			; A.J.
067370: 010146              	mov	r1,-(r6)		; f.
067372: 004767 004134       	call	73532			; w.\.
067376: 012605              	mov	(r6)+,r5		; ..
067400: 103441              	bcs	67504			; !.
067402: 010502              	mov	r5,r2			; B.
067404: 112322              	movb	(r3)+,(r2)+		; R.
067406: 077102              	sob	r1,67404		; B~
067410: 012746 000001       	mov	#1,-(r6)		; f...
067414: 004767 004112       	call	73532			; w.J.
067420: 012615              	mov	(r6)+,(r5)		; ..
067422: 103430              	bcs	67504			; ..
067424: 016546 000010       	mov	10(r5),-(r6)		; f...
067430: 004767 004076       	call	73532			; w.>.
067434: 012665 000032       	mov	(r6)+,32(r5)		; 5...
067440: 103421              	bcs	67504			; ..
067442: 060565 000042       	add	r5,42(r5)		; ua".
067446: 060565 000050       	add	r5,50(r5)		; ua(.
067452: 005046              	clr	-(r6)			; &.
067454: 005046              	clr	-(r6)			; &.
067456: 012746 000002       	mov	#2,-(r6)		; f...
067462: 016546 000042       	mov	42(r5),-(r6)		; f.".
067466: 010600              	mov	r6,r0			; ..
067470: 000004              	iot				; ..
067472: 004504              	jsr	r5,r4			; D.
067474: 012626              	mov	(r6)+,(r6)+		; ..
067476: 012626              	mov	(r6)+,(r6)+		; ..
067500: 103403              	bcs	67510			; ..
067502: 000207              	ret				; ..
;
067504: 012700 044005       	mov	#44005,r0		; @..H
067510: 004767 004540       	call	74254			; w.`.
067514: 000772              	br	67502			; z.
;
067516: 010046              	mov	r0,-(r6)		; &.
067520: 011400              	mov	(r4),r0			; ..
067522: 005046              	clr	-(r6)			; &.
067524: 010660 000054       	mov	r6,54(r0)		; 0.,.
067530: 000402              	br	67536			; ..
;
067532: 004767 002622       	call	72360			; w...
067536: 017416 000010       	mov	@10(r4),(r6)		; ....
067542: 001373              	bne	67532			; {.
067544: 005726              	tst	(r6)+			; V.
067546: 012600              	mov	(r6)+,r0		; ..
067550: 000207              	ret				; ..
;
067552: 011646              	mov	(r6),-(r6)		; &.
067554: 016666 000004 000002	mov	4(r6),2(r6)		; 6.....
067562: 012666 000002       	mov	(r6)+,2(r6)		; 6...
067566: 004767 003512       	call	73304			; w.J.
067572: 000401              	br	67576			; ..
;
067574: 005727 000261       	tst	#261			; W.1.
067600: 004567 003612       	jsr	r5,73416		; w...
067604: 010746              	mov	r7,-(r6)		; f.
067606: 103401              	bcs	67612			; ..
067610: 005016              	clr	(r6)			; ..
067612: 011400              	mov	(r4),r0			; ..
067614: 016005 000054       	mov	54(r0),r5		; ..,.
067620: 010546              	mov	r5,-(r6)		; f.
067622: 005046              	clr	-(r6)			; &.
067624: 004767 177066       	call	66716			; w.6~
067630: 103465              	bcs	70004			; 5.
067632: 004767 003506       	call	73344			; w.F.
067636: 010503              	mov	r5,r3			; C.
067640: 005723              	tst	(r3)+			; S.
067642: 032713 000100       	bit	#100,(r3)		; K5@.
067646: 001460              	beq	70010			; 0.
067650: 032713 000200       	bit	#200,(r3)		; K5..
067654: 001037              	bne	67754			; ..
067656: 052713 000200       	bis	#200,(r3)		; KU..
067662: 004767 000210       	call	70076			; w...
067666: 103440              	bcs	67770			;  .
067670: 032713 000020       	bit	#20,(r3)		; K5..
067674: 001441              	beq	70000			; !.
067676: 011500              	mov	(r5),r0			; @.
067700: 032765 000004 000004	bit	#4,4(r5)		; u5....
067706: 001006              	bne	67724			; ..
067710: 121027 000032       	cmpb	(r0),#32		; ."..
067714: 001003              	bne	67724			; ..
067716: 052713 100000       	bis	#100000,(r3)		; KU..
067722: 000410              	br	67744			; ..
;
067724: 105710              	tstb	(r0)			; H.
067726: 001755              	beq	67662			; m.
067730: 121027 000012       	cmpb	(r0),#12		; ."..
067734: 001752              	beq	67662			; j.
067736: 121027 000015       	cmpb	(r0),#15		; ."..
067742: 001004              	bne	67754			; ..
067744: 112710 000040       	movb	#40,(r0)		; H. .
067750: 052713 040000       	bis	#40000,(r3)		; KU.@
067754: 005716              	tst	(r6)			; N.
067756: 001010              	bne	70000			; ..
067760: 004767 000036       	call	70022			; w...
067764: 042713 000200       	bic	#200,(r3)		; KE..
067770: 005713              	tst	(r3)			; K.
067772: 100402              	bmi	70000			; ..
067774: 042713 040000       	bic	#40000,(r3)		; KE.@
070000: 004767 003360       	call	73364			; w.p.
070004: 012605              	mov	(r6)+,r5		; ..
070006: 000207              	ret				; ..
;
070010: 012746 034026       	mov	#34026,-(r6)		; f..8
070014: 004767 004244       	call	74264			; w.$.
070020: 000767              	br	70000			; w.
;
070022: 032713 000001       	bit	#1,(r3)			; K5..
070026: 001422              	beq	70074			; ..
070030: 012700 001000       	mov	#1000,r0		; @...
070034: 016501 000014       	mov	14(r5),r1		; A...
070040: 016502 000016       	mov	16(r5),r2		; B...
070044: 066502 000006       	add	6(r5),r2		; Bm..
070050: 000403              	br	70060			; ..
;
070052: 160002              	sub	r0,r2			; .`
070054: 062701 000001       	add	#1,r1			; Ae..
070060: 020200              	cmp	r2,r0			; . 
070062: 002373              	bge	70052			; {.
070064: 010165 000014       	mov	r1,14(r5)		; u...
070070: 010265 000016       	mov	r2,16(r5)		; 5...
070074: 000207              	ret				; ..
;
070076: 004367 003354       	jsr	r3,73456		; w.l.
070102: 004767 000010       	call	70116			; w...
070106: 103402              	bcs	70114			; ..
070110: 004767 000170       	call	70304			; w.x.
070114: 000207              	ret				; ..
;
070116: 032713 000001       	bit	#1,(r3)			; K5..
070122: 001456              	beq	70260			; ..
070124: 005713              	tst	(r3)			; K.
070126: 100457              	bmi	70266			; /.
070130: 016501 000044       	mov	44(r5),r1		; A.$.
070134: 016502 000014       	mov	14(r5),r2		; B...
070140: 032765 004000 000004	bit	#4000,4(r5)		; u5....
070146: 001012              	bne	70174			; ..
070150: 020102              	cmp	r1,r2			; B 
070152: 101010              	bhi	70174			; ..
070154: 016500 000010       	mov	10(r5),r0		; @...
070160: 000300              	swab	r0			; @.
070162: 006200              	asr	r0			; ..
070164: 005300              	dec	r0			; @.
070166: 060001              	add	r0,r1			; .`
070170: 020102              	cmp	r1,r2			; B 
070172: 103010              	bcc	70214			; ..
070174: 016546 000010       	mov	10(r5),-(r6)		; f...
070200: 016546 000010       	mov	10(r5),-(r6)		; f...
070204: 010246              	mov	r2,-(r6)		; &.
070206: 004767 000314       	call	70526			; w.L.
070212: 103425              	bcs	70266			; ..
070214: 010200              	mov	r2,r0			; ..
070216: 166500 000044       	sub	44(r5),r0		; @m$.
070222: 000300              	swab	r0			; @.
070224: 006300              	asl	r0			; @.
070226: 066500 000016       	add	16(r5),r0		; @m..
070232: 016565 000024 000012	mov	24(r5),12(r5)		; u.....
070240: 160065 000012       	sub	r0,12(r5)		; 5`..
070244: 101410              	blos	70266			; ..
070246: 016565 000020 000026	mov	20(r5),26(r5)		; u.....
070254: 060065 000026       	add	r0,26(r5)		; 5`..
070260: 005727 000261       	tst	#261			; W.1.
070264: 000207              	ret				; ..
;
070266: 012746 034024       	mov	#34024,-(r6)		; f..8
070272: 004767 003766       	call	74264			; w.v.
070276: 052713 100000       	bis	#100000,(r3)		; KU..
070302: 000767              	br	70262			; w.
;
070304: 011502              	mov	(r5),r2			; B.
070306: 016503 000006       	mov	6(r5),r3		; C...
070312: 005046              	clr	-(r6)			; &.
070314: 000435              	br	70410			; ..
;
070316: 010346              	mov	r3,-(r6)		; f.
070320: 016546 000010       	mov	10(r5),-(r6)		; f...
070324: 016546 000044       	mov	44(r5),-(r6)		; f.$.
070330: 032765 004000 000004	bit	#4000,4(r5)		; u5....
070336: 001011              	bne	70362			; ..
070340: 032765 000010 000004	bit	#10,4(r5)		; u5....
070346: 001405              	beq	70362			; ..
070350: 016546 000010       	mov	10(r5),-(r6)		; f...
070354: 000316              	swab	(r6)			; N.
070356: 006216              	asr	(r6)			; ..
070360: 062616              	add	(r6)+,(r6)		; .e
070362: 004767 000140       	call	70526			; w.`.
070366: 103455              	bcs	70522			; -.
070370: 032765 010000 000004	bit	#10000,4(r5)		; u5....
070376: 001404              	beq	70410			; ..
070400: 032765 000004 000056	bit	#4,56(r5)		; u5....
070406: 001343              	bne	70316			; c.
070410: 016501 000026       	mov	26(r5),r1		; A...
070414: 016516 000012       	mov	12(r5),(r6)		; N...
070420: 001023              	bne	70470			; ..
070422: 032765 010000 000004	bit	#10000,4(r5)		; u5....
070430: 001732              	beq	70316			; Z.
070432: 032765 000020 000002	bit	#20,2(r5)		; u5....
070440: 001726              	beq	70316			; V.
070442: 032765 000002 000056	bit	#2,56(r5)		; u5....
070450: 001722              	beq	70316			; R.
070452: 042765 000002 000056	bic	#2,56(r5)		; uE....
070460: 012712 000015       	mov	#15,(r2)		; J...
070464: 005003              	clr	r3			; ..
070466: 000411              	br	70512			; ..
;
070470: 010300              	mov	r3,r0			; @.
070472: 020316              	cmp	r3,(r6)			; N 
070474: 101401              	blos	70500			; ..
070476: 011600              	mov	(r6),r0			; ..
070500: 160003              	sub	r0,r3			; .`
070502: 160065 000012       	sub	r0,12(r5)		; 5`..
070506: 112122              	movb	(r1)+,(r2)+		; R.
070510: 077002              	sob	r0,70506		; .~
070512: 005703              	tst	r3			; C.
070514: 001300              	bne	70316			; @.
070516: 010165 000026       	mov	r1,26(r5)		; u...
070522: 030126              	bit	r1,(r6)+		; V0
070524: 000207              	ret				; ..
;
070526: 004767 000010       	call	70542			; w...
070532: 012616              	mov	(r6)+,(r6)		; ..
070534: 012616              	mov	(r6)+,(r6)		; ..
070536: 012616              	mov	(r6)+,(r6)		; ..
070540: 000207              	ret				; ..
;
070542: 004367 002710       	jsr	r3,73456		; w.H.
070546: 010503              	mov	r5,r3			; C.
070550: 005723              	tst	(r3)+			; S.
070552: 005713              	tst	(r3)			; K.
070554: 100003              	bpl	70564			; ..
070556: 012700 034024       	mov	#34024,r0		; @..8
070562: 000416              	br	70620			; ..
;
070564: 032713 000002       	bit	#2,(r3)			; K5..
070570: 001403              	beq	70600			; ..
070572: 004767 000774       	call	71572			; w.|.
070576: 103414              	bcs	70630			; ..
070600: 016500 000052       	mov	52(r5),r0		; @.*.
070604: 001412              	beq	70632			; ..
070606: 005065 000052       	clr	52(r5)			; 5.*.
070612: 020027 034043       	cmp	r0,#34043		; . #8
070616: 001402              	beq	70624			; ..
070620: 000167 000412       	jmp	71236			; w...
;
070624: 052713 100000       	bis	#100000,(r3)		; KU..
070630: 000576              	br	71226			; ~.
;
070632: 016500 000032       	mov	32(r5),r0		; @...
070636: 032713 000004       	bit	#4,(r3)			; K5..
070642: 001417              	beq	70702			; ..
070644: 016501 000034       	mov	34(r5),r1		; A...
070650: 032713 002000       	bit	#2000,(r3)		; K5..
070654: 001006              	bne	70672			; ..
070656: 052713 002000       	bis	#2000,(r3)		; KU..
070662: 010046              	mov	r0,-(r6)		; &.
070664: 010100              	mov	r1,r0			; @.
070666: 012601              	mov	(r6)+,r1		; ..
070670: 000402              	br	70676			; ..
;
070672: 042713 002000       	bic	#2000,(r3)		; KE..
070676: 010165 000030       	mov	r1,30(r5)		; u...
070702: 010065 000026       	mov	r0,26(r5)		; 5...
070706: 010065 000020       	mov	r0,20(r5)		; 5...
070712: 010602              	mov	r6,r2			; ..
070714: 032765 000200 000004	bit	#200,4(r5)		; u5....
070722: 001056              	bne	71060			; ..
070724: 012765 000001 000036	mov	#1,36(r5)		; u.....
070732: 026262 000022 000020	cmp	22(r2),20(r2)		; 2,....
070740: 101403              	blos	70750			; ..
070742: 016262 000020 000022	mov	20(r2),22(r2)		; 2.....
070750: 032713 004000       	bit	#4000,(r3)		; K5..
070754: 001034              	bne	71046			; ..
070756: 032765 000010 000004	bit	#10,4(r5)		; u5....
070764: 001403              	beq	70774			; ..
070766: 016665 000016 000044	mov	16(r6),44(r5)		; 5...$.
070774: 032765 000020 000004	bit	#20,4(r5)		; u5....
071002: 001403              	beq	71012			; ..
071004: 052765 000200 000036	bis	#200,36(r5)		; uU....
071012: 005046              	clr	-(r6)			; &.
071014: 010046              	mov	r0,-(r6)		; &.
071016: 016246 000020       	mov	20(r2),-(r6)		; &...
071022: 016246 000022       	mov	22(r2),-(r6)		; &...
071026: 004767 001712       	call	72744			; w.J.
071032: 103477              	bcs	71232			; ?.
071034: 042765 004000 000004	bic	#4000,4(r5)		; uE....
071042: 052713 004000       	bis	#4000,(r3)		; KU..
071046: 004767 001654       	call	72726			; w.,.
071052: 042713 004000       	bic	#4000,(r3)		; KE..
071056: 000416              	br	71114			; ..
;
071060: 016246 000022       	mov	22(r2),-(r6)		; &...
071064: 010046              	mov	r0,-(r6)		; &.
071066: 016546 000050       	mov	50(r5),-(r6)		; f.(.
071072: 010600              	mov	r6,r0			; ..
071074: 000004              	iot				; ..
071076: 005614              	sbc	(r4)			; ..
071100: 005226              	inc	(r6)+			; ..
071102: 012626              	mov	(r6)+,(r6)+		; ..
071104: 103454              	bcs	71236			; ,.
071106: 016265 000022 000054	mov	22(r2),54(r5)		; 5...,.
071114: 016500 000054       	mov	54(r5),r0		; @.,.
071120: 010065 000012       	mov	r0,12(r5)		; 5...
071124: 010065 000024       	mov	r0,24(r5)		; 5...
071130: 010065 000022       	mov	r0,22(r5)		; 5...
071134: 032713 000004       	bit	#4,(r3)			; K5..
071140: 001431              	beq	71224			; ..
071142: 005765 000052       	tst	52(r5)			; u.*.
071146: 001026              	bne	71224			; ..
071150: 032765 000010 000004	bit	#10,4(r5)		; u5....
071156: 001406              	beq	71174			; ..
071160: 016500 000010       	mov	10(r5),r0		; @...
071164: 000300              	swab	r0			; @.
071166: 006200              	asr	r0			; ..
071170: 060065 000044       	add	r0,44(r5)		; 5`$.
071174: 005046              	clr	-(r6)			; &.
071176: 016546 000030       	mov	30(r5),-(r6)		; f...
071202: 016246 000020       	mov	20(r2),-(r6)		; &...
071206: 016246 000020       	mov	20(r2),-(r6)		; &...
071212: 004767 001526       	call	72744			; w.V.
071216: 103405              	bcs	71232			; ..
071220: 052713 004000       	bis	#4000,(r3)		; KU..
071224: 005727 000261       	tst	#261			; W.1.
071230: 000207              	ret				; ..
;
071232: 016500 000052       	mov	52(r5),r0		; @.*.
071236: 004767 003012       	call	74254			; w...
071242: 000771              	br	71226			; y.
;
071244: 005727 000261       	tst	#261			; W.1.
071250: 004567 002142       	jsr	r5,73416		; w.b.
071254: 010746              	mov	r7,-(r6)		; f.
071256: 103401              	bcs	71262			; ..
071260: 005016              	clr	(r6)			; ..
071262: 011400              	mov	(r4),r0			; ..
071264: 016005 000054       	mov	54(r0),r5		; ..,.
071270: 010546              	mov	r5,-(r6)		; f.
071272: 005046              	clr	-(r6)			; &.
071274: 004767 175416       	call	66716			; w..{
071300: 103507              	bcs	71520			; G.
071302: 004767 002036       	call	73344			; w...
071306: 010503              	mov	r5,r3			; C.
071310: 005723              	tst	(r3)+			; S.
071312: 032713 000040       	bit	#40,(r3)		; K5 .
071316: 001006              	bne	71334			; ..
071320: 032713 000100       	bit	#100,(r3)		; K5@.
071324: 001477              	beq	71524			; ?.
071326: 032713 000002       	bit	#2,(r3)			; K5..
071332: 001474              	beq	71524			; <.
071334: 004767 176556       	call	70116			; w.n}
071340: 103465              	bcs	71514			; 5.
071342: 011501              	mov	(r5),r1			; A.
071344: 016503 000006       	mov	6(r5),r3		; C...
071350: 005046              	clr	-(r6)			; &.
071352: 005766 000002       	tst	2(r6)			; v...
071356: 001410              	beq	71400			; ..
071360: 016601 000010       	mov	10(r6),r1		; ....
071364: 016603 000012       	mov	12(r6),r3		; ....
071370: 000403              	br	71400			; ..
;
071372: 004767 000140       	call	71536			; w.`.
071376: 103445              	bcs	71512			; %.
071400: 016502 000026       	mov	26(r5),r2		; B...
071404: 010300              	mov	r3,r0			; @.
071406: 016516 000012       	mov	12(r5),(r6)		; N...
071412: 001767              	beq	71372			; w.
071414: 020316              	cmp	r3,(r6)			; N 
071416: 101401              	blos	71422			; ..
071420: 011600              	mov	(r6),r0			; ..
071422: 160003              	sub	r0,r3			; .`
071424: 160065 000012       	sub	r0,12(r5)		; 5`..
071430: 112122              	movb	(r1)+,(r2)+		; R.
071432: 077002              	sob	r0,71430		; .~
071434: 026565 000022 000012	cmp	22(r5),12(r5)		; u-....
071442: 101403              	blos	71452			; ..
071444: 016565 000012 000022	mov	12(r5),22(r5)		; u.....
071452: 052765 001000 000002	bis	#1000,2(r5)		; uU....
071460: 005703              	tst	r3			; C.
071462: 001343              	bne	71372			; c.
071464: 010265 000026       	mov	r2,26(r5)		; 5...
071470: 010503              	mov	r5,r3			; C.
071472: 005723              	tst	(r3)+			; S.
071474: 004767 176322       	call	70022			; w.R|
071500: 032713 000002       	bit	#2,(r3)			; K5..
071504: 001402              	beq	71512			; ..
071506: 042713 000200       	bic	#200,(r3)		; KE..
071512: 012601              	mov	(r6)+,r1		; ..
071514: 004767 001644       	call	73364			; w.$.
071520: 012601              	mov	(r6)+,r1		; ..
071522: 000207              	ret				; ..
;
071524: 012746 034027       	mov	#34027,-(r6)		; f..8
071530: 004767 002530       	call	74264			; w.X.
071534: 000767              	br	71514			; w.
;
071536: 005046              	clr	-(r6)			; &.
071540: 005046              	clr	-(r6)			; &.
071542: 032765 010000 000004	bit	#10000,4(r5)		; u5....
071550: 001401              	beq	71554			; ..
071552: 010716              	mov	r7,(r6)			; N.
071554: 000410              	br	71576			; ..
;
071556: 005046              	clr	-(r6)			; &.
071560: 005046              	clr	-(r6)			; &.
071562: 010746              	mov	r7,-(r6)		; f.
071564: 000405              	br	71600			; ..
;
071566: 005046              	clr	-(r6)			; &.
071570: 000401              	br	71574			; ..
;
071572: 010746              	mov	r7,-(r6)		; f.
071574: 005046              	clr	-(r6)			; &.
071576: 005046              	clr	-(r6)			; &.
071600: 004767 000006       	call	71612			; w...
071604: 032626              	bit	(r6)+,(r6)+		; .5
071606: 005226              	inc	(r6)+			; ..
071610: 000207              	ret				; ..
;
071612: 004567 001600       	jsr	r5,73416		; w...
071616: 010503              	mov	r5,r3			; C.
071620: 005723              	tst	(r3)+			; S.
071622: 032765 000002 000002	bit	#2,2(r5)		; u5....
071630: 001004              	bne	71642			; ..
071632: 032765 000040 000002	bit	#40,2(r5)		; u5 ...
071640: 001413              	beq	71670			; ..
071642: 032713 004000       	bit	#4000,(r3)		; K5..
071646: 001403              	beq	71656			; ..
071650: 004767 000376       	call	72252			; w.~.
071654: 103535              	bcs	72150			; ].
071656: 005766 000020       	tst	20(r6)			; v...
071662: 001003              	bne	71672			; ..
071664: 032713 001000       	bit	#1000,(r3)		; K5..
071670: 001560              	beq	72232			; p.
071672: 016502 000032       	mov	32(r5),r2		; B...
071676: 010201              	mov	r2,r1			; ..
071700: 032713 000004       	bit	#4,(r3)			; K5..
071704: 001415              	beq	71740			; ..
071706: 016501 000034       	mov	34(r5),r1		; A...
071712: 032713 002000       	bit	#2000,(r3)		; K5..
071716: 001006              	bne	71734			; ..
071720: 052713 002000       	bis	#2000,(r3)		; KU..
071724: 010200              	mov	r2,r0			; ..
071726: 010102              	mov	r1,r2			; B.
071730: 010001              	mov	r0,r1			; ..
071732: 000402              	br	71740			; ..
;
071734: 042713 002000       	bic	#2000,(r3)		; KE..
071740: 010165 000030       	mov	r1,30(r5)		; u...
071744: 016500 000024       	mov	24(r5),r0		; @...
071750: 166500 000022       	sub	22(r5),r0		; @m..
071754: 032765 000200 000004	bit	#200,4(r5)		; u5....
071762: 001414              	beq	72014			; ..
071764: 010046              	mov	r0,-(r6)		; &.
071766: 016546 000030       	mov	30(r5),-(r6)		; f...
071772: 016546 000050       	mov	50(r5),-(r6)		; f.(.
071776: 010600              	mov	r6,r0			; ..
072000: 000004              	iot				; ..
072002: 006264 005226       	asr	5226(r4)		; 4...
072006: 012626              	mov	(r6)+,(r6)+		; ..
072010: 103515              	bcs	72244			; M.
072012: 000457              	br	72152			; /.
;
072014: 012765 000004 000036	mov	#4,36(r5)		; u.....
072022: 005766 000022       	tst	22(r6)			; v...
072026: 001403              	beq	72036			; ..
072030: 052765 000100 000036	bis	#100,36(r5)		; uU@...
072036: 032713 000002       	bit	#2,(r3)			; K5..
072042: 001404              	beq	72054			; ..
072044: 062700 000777       	add	#777,r0			; @e..
072050: 042700 000777       	bic	#777,r0			; @E..
072054: 032765 000010 000004	bit	#10,4(r5)		; u5....
072062: 001406              	beq	72100			; ..
072064: 032700 000001       	bit	#1,r0			; @5..
072070: 001403              	beq	72100			; ..
072072: 105075 000026       	clrb	@26(r5)			; =...
072076: 005200              	inc	r0			; ..
072100: 005046              	clr	-(r6)			; &.
072102: 016546 000030       	mov	30(r5),-(r6)		; f...
072106: 010046              	mov	r0,-(r6)		; &.
072110: 005046              	clr	-(r6)			; &.
072112: 004767 000626       	call	72744			; w...
072116: 103450              	bcs	72240			; (.
072120: 042713 001000       	bic	#1000,(r3)		; KE..
072124: 052713 004000       	bis	#4000,(r3)		; KU..
072130: 005766 000024       	tst	24(r6)			; v...
072134: 001003              	bne	72144			; ..
072136: 032713 000004       	bit	#4,(r3)			; K5..
072142: 001003              	bne	72152			; ..
072144: 004767 000102       	call	72252			; w.B.
072150: 103433              	bcs	72240			; ..
072152: 005766 000024       	tst	24(r6)			; v...
072156: 001017              	bne	72216			; ..
072160: 004767 000114       	call	72300			; w.L.
072164: 032713 000002       	bit	#2,(r3)			; K5..
072170: 001420              	beq	72232			; ..
072172: 016546 000010       	mov	10(r5),-(r6)		; f...
072176: 016546 000010       	mov	10(r5),-(r6)		; f...
072202: 016546 000044       	mov	44(r5),-(r6)		; f.$.
072206: 004767 176314       	call	70526			; w.L|
072212: 103410              	bcs	72234			; ..
072214: 000406              	br	72232			; ..
;
072216: 032765 000004 000004	bit	#4,4(r5)		; u5....
072224: 001002              	bne	72232			; ..
072226: 004767 000046       	call	72300			; w.&.
072232: 005727 000261       	tst	#261			; W.1.
072236: 000207              	ret				; ..
;
072240: 016500 000052       	mov	52(r5),r0		; @.*.
072244: 004767 002004       	call	74254			; w...
072250: 000771              	br	72234			; y.
;
072252: 004767 000450       	call	72726			; w.(.
072256: 042765 004000 000002	bic	#4000,2(r5)		; uE....
072264: 005765 000052       	tst	52(r5)			; u.*.
072270: 001001              	bne	72274			; ..
072272: 005727 000261       	tst	#261			; W.1.
072276: 000207              	ret				; ..
;
072300: 032765 000010 000004	bit	#10,4(r5)		; u5....
072306: 001406              	beq	72324			; ..
072310: 016500 000010       	mov	10(r5),r0		; @...
072314: 000300              	swab	r0			; @.
072316: 006200              	asr	r0			; ..
072320: 060065 000044       	add	r0,44(r5)		; 5`$.
072324: 010265 000026       	mov	r2,26(r5)		; 5...
072330: 010265 000020       	mov	r2,20(r5)		; 5...
072334: 016565 000010 000012	mov	10(r5),12(r5)		; u.....
072342: 016565 000012 000024	mov	12(r5),24(r5)		; u.....
072350: 016565 000012 000022	mov	12(r5),22(r5)		; u.....
072356: 000207              	ret				; ..
;
072360: 005727 000261       	tst	#261			; W.1.
072364: 004567 001026       	jsr	r5,73416		; w...
072370: 010703              	mov	r7,r3			; C.
072372: 103001              	bcc	72376			; ..
072374: 005003              	clr	r3			; ..
072376: 011400              	mov	(r4),r0			; ..
072400: 016002 000054       	mov	54(r0),r2		; ..,.
072404: 011205              	mov	(r2),r5			; ..
072406: 010546              	mov	r5,-(r6)		; f.
072410: 005046              	clr	-(r6)			; &.
072412: 004767 174300       	call	66716			; w.@x
072416: 103542              	bcs	72724			; b.
072420: 005703              	tst	r3			; C.
072422: 001002              	bne	72430			; ..
072424: 004767 177142       	call	71572			; w.b~
072430: 005012              	clr	(r2)			; ..
072432: 005264 000022       	inc	22(r4)			; 4...
072436: 001406              	beq	72454			; ..
072440: 016446 000016       	mov	16(r4),-(r6)		; &...
072444: 010600              	mov	r6,r0			; ..
072446: 000004              	iot				; ..
072450: 010754              	mov	r7,@-(r4)		; l.
072452: 005226              	inc	(r6)+			; ..
072454: 016401 000010       	mov	10(r4),r1		; ....
072460: 020511              	cmp	r5,(r1)			; I!
072462: 001411              	beq	72506			; ..
072464: 011101              	mov	(r1),r1			; A.
072466: 016100 000104       	mov	104(r1),r0		; @.D.
072472: 020005              	cmp	r0,r5			; . 
072474: 001402              	beq	72502			; ..
072476: 010001              	mov	r0,r1			; ..
072500: 000772              	br	72466			; z.
;
072502: 062701 000104       	add	#104,r1			; AeD.
072506: 016511 000104       	mov	104(r5),(r1)		; I.D.
072512: 005364 000022       	dec	22(r4)			; t...
072516: 100406              	bmi	72534			; ..
072520: 016446 000016       	mov	16(r4),-(r6)		; &...
072524: 010600              	mov	r6,r0			; ..
072526: 000004              	iot				; ..
072530: 010116              	mov	r1,(r6)			; N.
072532: 005226              	inc	(r6)+			; ..
072534: 032765 000200 000004	bit	#200,4(r5)		; u5....
072542: 001066              	bne	72720			; 6.
072544: 032765 001000 000004	bit	#1000,4(r5)		; u5....
072552: 001044              	bne	72664			; $.
072554: 012700 000024       	mov	#24,r0			; @...
072560: 032765 000010 000002	bit	#10,2(r5)		; u5....
072566: 001002              	bne	72574			; ..
072570: 005703              	tst	r3			; C.
072572: 001401              	beq	72576			; ..
072574: 005200              	inc	r0			; ..
072576: 010065 000036       	mov	r0,36(r5)		; 5...
072602: 010746              	mov	r7,-(r6)		; f.
072604: 005746              	tst	-(r6)			; f.
072606: 005046              	clr	-(r6)			; &.
072610: 005046              	clr	-(r6)			; &.
072612: 004767 000126       	call	72744			; w.V.
072616: 103022              	bcc	72664			; ..
072620: 016500 000052       	mov	52(r5),r0		; @.*.
072624: 020027 034006       	cmp	r0,#34006		; . .8
072630: 001415              	beq	72664			; ..
072632: 020027 030001       	cmp	r0,#30001		; . .0
072636: 001412              	beq	72664			; ..
072640: 032765 000100 000002	bit	#100,2(r5)		; u5@...
072646: 001404              	beq	72660			; ..
072650: 032765 000004 000002	bit	#4,2(r5)		; u5....
072656: 001002              	bne	72664			; ..
072660: 004767 001370       	call	74254			; w.x.
072664: 032765 004000 000002	bit	#4000,2(r5)		; u5....
072672: 001412              	beq	72720			; ..
072674: 004767 177352       	call	72252			; w.j~
072700: 103007              	bcc	72720			; ..
072702: 016500 000052       	mov	52(r5),r0		; @.*.
072706: 020027 034006       	cmp	r0,#34006		; . .8
072712: 001402              	beq	72720			; ..
072714: 004767 001334       	call	74254			; w.\.
072720: 004767 173644       	call	66570			; w.$w
072724: 000207              	ret				; ..
;
072726: 004567 000464       	jsr	r5,73416		; w.4.
072732: 010602              	mov	r6,r2			; ..
072734: 162706 000042       	sub	#42,r6			; Fe".
072740: 010601              	mov	r6,r1			; ..
072742: 000467              	br	73122			; 7.
;
072744: 004767 000012       	call	72762			; w...
072750: 012616              	mov	(r6)+,(r6)		; ..
072752: 012616              	mov	(r6)+,(r6)		; ..
072754: 012616              	mov	(r6)+,(r6)		; ..
072756: 012616              	mov	(r6)+,(r6)		; ..
072760: 000207              	ret				; ..
;
072762: 004567 000430       	jsr	r5,73416		; w...
072766: 010602              	mov	r6,r2			; ..
072770: 162706 000042       	sub	#42,r6			; Fe".
072774: 010600              	mov	r6,r0			; ..
072776: 010503              	mov	r5,r3			; C.
073000: 062703 000036       	add	#36,r3			; Ce..
073004: 012320              	mov	(r3)+,(r0)+		; P.
073006: 012320              	mov	(r3)+,(r0)+		; P.
073010: 005020              	clr	(r0)+			; ..
073012: 016401 000016       	mov	16(r4),r1		; ....
073016: 012120              	mov	(r1)+,(r0)+		; P.
073020: 012120              	mov	(r1)+,(r0)+		; P.
073022: 012120              	mov	(r1)+,(r0)+		; P.
073024: 012301              	mov	(r3)+,r1		; A.
073026: 012120              	mov	(r1)+,(r0)+		; P.
073030: 012120              	mov	(r1)+,(r0)+		; P.
073032: 011120              	mov	(r1),(r0)+		; P.
073034: 012320              	mov	(r3)+,(r0)+		; P.
073036: 012320              	mov	(r3)+,(r0)+		; P.
073040: 016620 000064       	mov	64(r6),(r0)+		; ..4.
073044: 011403              	mov	(r4),r3			; ..
073046: 010601              	mov	r6,r1			; ..
073050: 016146 000070       	mov	70(r1),-(r6)		; f.8.
073054: 016146 000066       	mov	66(r1),-(r6)		; f.6.
073060: 010146              	mov	r1,-(r6)		; f.
073062: 012746 000034       	mov	#34,-(r6)		; f...
073066: 016346 000006       	mov	6(r3),-(r6)		; f...
073072: 016546 000050       	mov	50(r5),-(r6)		; f.(.
073076: 010600              	mov	r6,r0			; ..
073100: 000004              	iot				; ..
073102: 007352              	invalid opcode			; j.
073104: 012626              	mov	(r6)+,(r6)+		; ..
073106: 012626              	mov	(r6)+,(r6)+		; ..
073110: 012626              	mov	(r6)+,(r6)+		; ..
073112: 103470              	bcs	73274			; 8.
073114: 005766 000072       	tst	72(r6)			; v.:.
073120: 001463              	beq	73270			; 3.
073122: 162706 000010       	sub	#10,r6			; Fe..
073126: 010603              	mov	r6,r3			; ..
073130: 005046              	clr	-(r6)			; &.
073132: 005046              	clr	-(r6)			; &.
073134: 010146              	mov	r1,-(r6)		; f.
073136: 012746 000042       	mov	#42,-(r6)		; f.".
073142: 010346              	mov	r3,-(r6)		; f.
073144: 016546 000042       	mov	42(r5),-(r6)		; f.".
073150: 010600              	mov	r6,r0			; ..
073152: 000004              	iot				; ..
073154: 006616              	mtpi	(r6)			; ..
073156: 012626              	mov	(r6)+,(r6)+		; ..
073160: 012626              	mov	(r6)+,(r6)+		; ..
073162: 012626              	mov	(r6)+,(r6)+		; ..
073164: 005723              	tst	(r3)+			; S.
073166: 016365 000014 000052	mov	14(r3),52(r5)		; u...*.
073174: 016365 000016 000054	mov	16(r3),54(r5)		; u...,.
073202: 016365 000020 000056	mov	20(r3),56(r5)		; u.....
073210: 026527 000036 000021	cmp	36(r5),#21		; W-....
073216: 001404              	beq	73230			; ..
073220: 026527 000036 000020	cmp	36(r5),#20		; W-....
073226: 001014              	bne	73260			; ..
073230: 016365 000010 000040	mov	10(r3),40(r5)		; u... .
073236: 010501              	mov	r5,r1			; A.
073240: 062701 000060       	add	#60,r1			; Ae0.
073244: 062703 000030       	add	#30,r3			; Ce..
073250: 012321              	mov	(r3)+,(r1)+		; Q.
073252: 012321              	mov	(r3)+,(r1)+		; Q.
073254: 012321              	mov	(r3)+,(r1)+		; Q.
073256: 011311              	mov	(r3),(r1)		; I.
073260: 005765 000052       	tst	52(r5)			; u.*.
073264: 001401              	beq	73270			; ..
073266: 000261              	sec				; 1.
073270: 010206              	mov	r2,r6			; ..
073272: 000207              	ret				; ..
;
073274: 012765 034011 000052	mov	#34011,52(r5)		; u..8*.
073302: 000766              	br	73260			; v.
;
073304: 010046              	mov	r0,-(r6)		; &.
073306: 011400              	mov	(r4),r0			; ..
073310: 016660 000004 000054	mov	4(r6),54(r0)		; 0...,.
073316: 012600              	mov	(r6)+,r0		; ..
073320: 012616              	mov	(r6)+,(r6)		; ..
073322: 000207              	ret				; ..
;
073324: 011646              	mov	(r6),-(r6)		; &.
073326: 010046              	mov	r0,-(r6)		; &.
073330: 011400              	mov	(r4),r0			; ..
073332: 016066 000054 000004	mov	54(r0),4(r6)		; 6.,...
073340: 012600              	mov	(r6)+,r0		; ..
073342: 000207              	ret				; ..
;
073344: 005265 000106       	inc	106(r5)			; 5.F.
073350: 001404              	beq	73362			; ..
073352: 012746 034045       	mov	#34045,-(r6)		; f.%8
073356: 004767 000702       	call	74264			; w.B.
073362: 000207              	ret				; ..
;
073364: 005365 000106       	dec	106(r5)			; u.F.
073370: 000207              	ret				; ..
;
073372: 100330              	bpl	73254			; X.
073374: 000734              	br	73266			; \.
;
073376: 007640              	invalid opcode			;  .
073400: 000062              	invalid opcode			; 2.
073402: 000000              	halt				; ..
;
073404: 005254              	inc	@-(r4)			; ,.
073406: 100000              	bpl	73410			; ..
073410: 044214              	bic	-(r2),(r4)		; .H
073412: 044216              	bic	-(r2),(r6)		; .H
073414: 000076              	invalid opcode			; >.
073416: 010446              	mov	r4,-(r6)		; &.
073420: 010346              	mov	r3,-(r6)		; f.
073422: 010246              	mov	r2,-(r6)		; &.
073424: 010146              	mov	r1,-(r6)		; f.
073426: 010046              	mov	r0,-(r6)		; &.
073430: 010546              	mov	r5,-(r6)		; f.
073432: 016605 000014       	mov	14(r6),r5		; ....
073436: 004736              	call	@(r6)+			; ^.
073440: 012600              	mov	(r6)+,r0		; ..
073442: 012601              	mov	(r6)+,r1		; ..
073444: 012602              	mov	(r6)+,r2		; ..
073446: 012603              	mov	(r6)+,r3		; ..
073450: 012604              	mov	(r6)+,r4		; ..
073452: 012605              	mov	(r6)+,r5		; ..
073454: 000207              	ret				; ..
;
073456: 010246              	mov	r2,-(r6)		; &.
073460: 010146              	mov	r1,-(r6)		; f.
073462: 010046              	mov	r0,-(r6)		; &.
073464: 010346              	mov	r3,-(r6)		; f.
073466: 016603 000010       	mov	10(r6),r3		; ....
073472: 004736              	call	@(r6)+			; ^.
073474: 012600              	mov	(r6)+,r0		; ..
073476: 012601              	mov	(r6)+,r1		; ..
073500: 012602              	mov	(r6)+,r2		; ..
073502: 012603              	mov	(r6)+,r3		; ..
073504: 000207              	ret				; ..
;
073506: 010146              	mov	r1,-(r6)		; f.
073510: 010046              	mov	r0,-(r6)		; &.
073512: 010246              	mov	r2,-(r6)		; &.
073514: 016602 000006       	mov	6(r6),r2		; ....
073520: 004736              	call	@(r6)+			; ^.
073522: 012600              	mov	(r6)+,r0		; ..
073524: 012601              	mov	(r6)+,r1		; ..
073526: 012602              	mov	(r6)+,r2		; ..
073530: 000207              	ret				; ..
;
073532: 005727 000261       	tst	#261			; W.1.
073536: 004767 000002       	call	73544			; w...
073542: 000207              	ret				; ..
;
073544: 004267 177736       	jsr	r2,73506		; 7.^.
073550: 012746 000001       	mov	#1,-(r6)		; f...
073554: 103001              	bcc	73560			; ..
073556: 005016              	clr	(r6)			; ..
073560: 016601 000016       	mov	16(r6),r1		; ....
073564: 001443              	beq	73674			; #.
073566: 062701 000003       	add	#3,r1			; Ae..
073572: 042701 000003       	bic	#3,r1			; AE..
073576: 005066 000016       	clr	16(r6)			; 6...
073602: 004767 000126       	call	73734			; w.V.
073606: 010100              	mov	r1,r0			; @.
073610: 016401 000006       	mov	6(r4),r1		; ....
073614: 011102              	mov	(r1),r2			; B.
073616: 001435              	beq	73712			; ..
073620: 020062 000002       	cmp	r0,2(r2)		; 2 ..
073624: 001412              	beq	73652			; ..
073626: 103402              	bcs	73634			; ..
073630: 010201              	mov	r2,r1			; ..
073632: 000770              	br	73614			; x.
;
073634: 060011              	add	r0,(r1)			; .`
073636: 011101              	mov	(r1),r1			; A.
073640: 011221              	mov	(r2),(r1)+		; ..
073642: 016211 000002       	mov	2(r2),(r1)		; ....
073646: 160011              	sub	r0,(r1)			; .`
073650: 000401              	br	73654			; ..
;
073652: 011211              	mov	(r2),(r1)		; ..
073654: 010266 000016       	mov	r2,16(r6)		; 6...
073660: 004767 000074       	call	73760			; w.<.
073664: 005726              	tst	(r6)+			; V.
073666: 100001              	bpl	73672			; ..
073670: 000261              	sec				; 1.
073672: 000207              	ret				; ..
;
073674: 005716              	tst	(r6)			; N.
073676: 001003              	bne	73706			; ..
073700: 012700 044006       	mov	#44006,r0		; @..H
073704: 000410              	br	73726			; ..
;
073706: 005416              	neg	(r6)			; ..
073710: 000765              	br	73664			; u.
;
073712: 004767 000042       	call	73760			; w.".
073716: 005716              	tst	(r6)			; N.
073720: 001372              	bne	73706			; z.
073722: 012700 044003       	mov	#44003,r0		; @..H
073726: 004767 000322       	call	74254			; w.R.
073732: 000754              	br	73664			; l.
;
073734: 005264 000020       	inc	20(r4)			; 4...
073740: 001406              	beq	73756			; ..
073742: 016446 000014       	mov	14(r4),-(r6)		; &...
073746: 010600              	mov	r6,r0			; ..
073750: 000004              	iot				; ..
073752: 010754              	mov	r7,@-(r4)		; l.
073754: 005226              	inc	(r6)+			; ..
073756: 000207              	ret				; ..
;
073760: 005364 000020       	dec	20(r4)			; t...
073764: 100406              	bmi	74002			; ..
073766: 016446 000014       	mov	14(r4),-(r6)		; &...
073772: 010600              	mov	r6,r0			; ..
073774: 000004              	iot				; ..
073776: 010116              	mov	r1,(r6)			; N.
074000: 005226              	inc	(r6)+			; ..
074002: 000207              	ret				; ..
;
074004: 005727 000261       	tst	#261			; W.1.
074010: 103003              	bcc	74020			; ..
074012: 011646              	mov	(r6),-(r6)		; &.
074014: 010066 000002       	mov	r0,2(r6)		; 6...
074020: 004767 000006       	call	74032			; w...
074024: 012616              	mov	(r6)+,(r6)		; ..
074026: 012616              	mov	(r6)+,(r6)		; ..
074030: 000207              	ret				; ..
;
074032: 004567 177360       	jsr	r5,73416		; w.p~
074036: 012746 000001       	mov	#1,-(r6)		; f...
074042: 103001              	bcc	74046			; ..
074044: 005016              	clr	(r6)			; ..
074046: 016605 000026       	mov	26(r6),r5		; ....
074052: 001446              	beq	74170			; &.
074054: 016602 000024       	mov	24(r6),r2		; ....
074060: 062702 000003       	add	#3,r2			; Be..
074064: 042702 000003       	bic	#3,r2			; BE..
074070: 004767 177640       	call	73734			; w. .
074074: 016403 000006       	mov	6(r4),r3		; ....
074100: 011301              	mov	(r3),r1			; A.
074102: 001404              	beq	74114			; ..
074104: 020105              	cmp	r1,r5			; E 
074106: 101002              	bhi	74114			; ..
074110: 011303              	mov	(r3),r3			; C.
074112: 000772              	br	74100			; z.
;
074114: 020364 000006       	cmp	r3,6(r4)		; t ..
074120: 001405              	beq	74134			; ..
074122: 010346              	mov	r3,-(r6)		; f.
074124: 066316 000002       	add	2(r3),(r6)		; Nl..
074130: 022605              	cmp	(r6)+,r5		; .%
074132: 101035              	bhi	74226			; ..
074134: 005701              	tst	r1			; A.
074136: 001404              	beq	74150			; ..
074140: 010546              	mov	r5,-(r6)		; f.
074142: 060216              	add	r2,(r6)			; .`
074144: 022601              	cmp	(r6)+,r1		; .%
074146: 101027              	bhi	74226			; ..
074150: 010265 000002       	mov	r2,2(r5)		; 5...
074154: 010115              	mov	r1,(r5)			; M.
074156: 010513              	mov	r5,(r3)			; K.
074160: 004767 000014       	call	74200			; w...
074164: 004767 177570       	call	73760			; w.x.
074170: 005726              	tst	(r6)+			; V.
074172: 100001              	bpl	74176			; ..
074174: 000261              	sec				; 1.
074176: 000207              	ret				; ..
;
074200: 004717              	call	(r7)			; O.
074202: 011502              	mov	(r5),r2			; B.
074204: 016546 000002       	mov	2(r5),-(r6)		; f...
074210: 060516              	add	r5,(r6)			; Na
074212: 022602              	cmp	(r6)+,r2		; .%
074214: 001002              	bne	74222			; ..
074216: 012225              	mov	(r2)+,(r5)+		; ..
074220: 061215              	add	(r2),(r5)		; .b
074222: 010305              	mov	r3,r5			; E.
074224: 000207              	ret				; ..
;
074226: 004767 177526       	call	73760			; w.V.
074232: 005716              	tst	(r6)			; N.
074234: 001005              	bne	74250			; ..
074236: 012700 044007       	mov	#44007,r0		; @..H
074242: 004767 000006       	call	74254			; w...
074246: 000750              	br	74170			; h.
;
074250: 005416              	neg	(r6)			; ..
074252: 000746              	br	74170			; f.
;
074254: 010046              	mov	r0,-(r6)		; &.
074256: 004767 000002       	call	74264			; w...
074262: 000207              	ret				; ..
;
074264: 010046              	mov	r0,-(r6)		; &.
074266: 010146              	mov	r1,-(r6)		; f.
074270: 010246              	mov	r2,-(r6)		; &.
074272: 016601 000010       	mov	10(r6),r1		; ....
074276: 000301              	swab	r1			; A.
074300: 042701 177407       	bic	#177407,r1		; AE..
074304: 006201              	asr	r1			; ..
074306: 006201              	asr	r1			; ..
074310: 006201              	asr	r1			; ..
074312: 005000              	clr	r0			; ..
074314: 000261              	sec				; 1.
074316: 006100              	rol	r0			; @.
074320: 077102              	sob	r1,74316		; B~
074322: 016601 000010       	mov	10(r6),r1		; ....
074326: 011402              	mov	(r4),r2			; ..
074330: 016202 000016       	mov	16(r2),r2		; ....
074334: 001407              	beq	74354			; ..
074336: 010022              	mov	r0,(r2)+		; ..
074340: 010112              	mov	r1,(r2)			; J.
074342: 012602              	mov	(r6)+,r2		; ..
074344: 012601              	mov	(r6)+,r1		; ..
074346: 012600              	mov	(r6)+,r0		; ..
074350: 012616              	mov	(r6)+,(r6)		; ..
074352: 000207              	ret				; ..
;
074354: 005046              	clr	-(r6)			; &.
074356: 005046              	clr	-(r6)			; &.
074360: 010146              	mov	r1,-(r6)		; f.
074362: 010046              	mov	r0,-(r6)		; &.
074364: 010600              	mov	r6,r0			; ..
074366: 000004              	iot				; ..
074370: 015106              	mov	@-(r1),r6		; F.
074372: 012626              	mov	(r6)+,(r6)+		; ..
074374: 012626              	mov	(r6)+,(r6)+		; ..
074376: 000761              	br	74342			; q.
;
074400: 010446              	mov	r4,-(r6)		; &.
074402: 010346              	mov	r3,-(r6)		; f.
074404: 016603 000004       	mov	4(r6),r3		; ....
074410: 010566 000004       	mov	r5,4(r6)		; v...
074414: 010246              	mov	r2,-(r6)		; &.
074416: 010146              	mov	r1,-(r6)		; f.
074420: 010046              	mov	r0,-(r6)		; &.
074422: 010307              	mov	r3,r7			; G.
074424: 012605              	mov	(r6)+,r5		; ..
074426: 012600              	mov	(r6)+,r0		; ..
074430: 012601              	mov	(r6)+,r1		; ..
074432: 012602              	mov	(r6)+,r2		; ..
074434: 012603              	mov	(r6)+,r3		; ..
074436: 012604              	mov	(r6)+,r4		; ..
074440: 000205              	rts	r5			; ..
;
074442: 011646              	mov	(r6),-(r6)		; &.
074444: 010046              	mov	r0,-(r6)		; &.
074446: 010546              	mov	r5,-(r6)		; f.
074450: 011400              	mov	(r4),r0			; ..
074452: 016005 000054       	mov	54(r0),r5		; ..,.
074456: 004767 005456       	call	102140			; w...
074462: 004767 173106       	call	67574			; w.Fv
074466: 010066 000006       	mov	r0,6(r6)		; 6...
074472: 012605              	mov	(r6)+,r5		; ..
074474: 012600              	mov	(r6)+,r0		; ..
074476: 000207              	ret				; ..
;
074500: 010046              	mov	r0,-(r6)		; &.
074502: 010546              	mov	r5,-(r6)		; f.
074504: 011400              	mov	(r4),r0			; ..
074506: 016005 000054       	mov	54(r0),r5		; ..,.
074512: 004767 005422       	call	102140			; w...
074516: 032765 040000 000002	bit	#40000,2(r5)		; u5.@..
074524: 001003              	bne	74534			; ..
074526: 004767 173042       	call	67574			; w."v
074532: 000767              	br	74512			; w.
;
074534: 004767 173034       	call	67574			; w..v
074540: 012605              	mov	(r6)+,r5		; ..
074542: 012600              	mov	(r6)+,r0		; ..
074544: 000207              	ret				; ..
;
074546: 004767 005330       	call	102102			; w.X.
074552: 016603 000014       	mov	14(r6),r3		; ....
074556: 003006              	bgt	74574			; ..
074560: 012746 034005       	mov	#34005,-(r6)		; f..8
074564: 004767 177474       	call	74264			; w.<.
074570: 012703 000001       	mov	#1,r3			; C...
074574: 116600 000016       	movb	16(r6),r0		; ....
074600: 005002              	clr	r2			; ..
074602: 010305              	mov	r3,r5			; E.
074604: 005205              	inc	r5			; ..
074606: 042705 000001       	bic	#1,r5			; EE..
074612: 010601              	mov	r6,r1			; ..
074614: 160506              	sub	r5,r6			; Fa
074616: 110041              	movb	r0,-(r1)		; !.
074620: 005202              	inc	r2			; ..
074622: 005303              	dec	r3			; C.
074624: 001405              	beq	74640			; ..
074626: 112741 000040       	movb	#40,-(r1)		; a. .
074632: 005202              	inc	r2			; ..
074634: 005303              	dec	r3			; C.
074636: 001373              	bne	74626			; {.
074640: 004767 174402       	call	71246			; w..y
074644: 060506              	add	r5,r6			; Fa
074646: 004767 005252       	call	102124			; w.*.
074652: 012666 000002       	mov	(r6)+,2(r6)		; 6...
074656: 005726              	tst	(r6)+			; V.
074660: 000207              	ret				; ..
;
074662: 004767 005214       	call	102102			; w...
074666: 016603 000014       	mov	14(r6),r3		; ....
074672: 003006              	bgt	74710			; ..
074674: 012746 034005       	mov	#34005,-(r6)		; f..8
074700: 004767 177360       	call	74264			; w.p~
074704: 016603 000016       	mov	16(r6),r3		; ....
074710: 016600 000020       	mov	20(r6),r0		; ....
074714: 016602 000016       	mov	16(r6),r2		; ....
074720: 020203              	cmp	r2,r3			; . 
074722: 001443              	beq	75032			; #.
074724: 010346              	mov	r3,-(r6)		; f.
074726: 005216              	inc	(r6)			; ..
074730: 042716 000001       	bic	#1,(r6)			; NE..
074734: 020203              	cmp	r2,r3			; . 
074736: 003002              	bgt	74744			; ..
074740: 010205              	mov	r2,r5			; ..
074742: 000401              	br	74746			; ..
;
074744: 010305              	mov	r3,r5			; E.
074746: 060500              	add	r5,r0			; @a
074750: 010601              	mov	r6,r1			; ..
074752: 011602              	mov	(r6),r2			; ..
074754: 161606              	sub	(r6),r6			; .c
074756: 010246              	mov	r2,-(r6)		; &.
074760: 005002              	clr	r2			; ..
074762: 114041              	movb	-(r0),-(r1)		; !.
074764: 005202              	inc	r2			; ..
074766: 005305              	dec	r5			; E.
074770: 001374              	bne	74762			; |.
074772: 020203              	cmp	r2,r3			; . 
074774: 002004              	bge	75006			; ..
074776: 112741 000040       	movb	#40,-(r1)		; a. .
075002: 005202              	inc	r2			; ..
075004: 000772              	br	74772			; z.
;
075006: 004767 174234       	call	71246			; w..x
075012: 062606              	add	(r6)+,r6		; .e
075014: 005726              	tst	(r6)+			; V.
075016: 004767 005102       	call	102124			; w.B.
075022: 012666 000004       	mov	(r6)+,4(r6)		; 6...
075026: 022626              	cmp	(r6)+,(r6)+		; .%
075030: 000207              	ret				; ..
;
075032: 010001              	mov	r0,r1			; ..
075034: 004767 174206       	call	71246			; w..x
075040: 000766              	br	75016			; v.
;
075042: 004567 176350       	jsr	r5,73416		; w.h|
075046: 011400              	mov	(r4),r0			; ..
075050: 016005 000054       	mov	54(r0),r5		; ..,.
075054: 032765 010000 000004	bit	#10000,4(r5)		; u5....
075062: 001404              	beq	75074			; ..
075064: 032765 000020 000002	bit	#20,2(r5)		; u5....
075072: 001013              	bne	75122			; ..
075074: 012746 005015       	mov	#5015,-(r6)		; f...
075100: 010601              	mov	r6,r1			; ..
075102: 012702 000002       	mov	#2,r2			; B...
075106: 004767 174134       	call	71246			; w.\x
075112: 005726              	tst	(r6)+			; V.
075114: 004767 171760       	call	67100			; w.ps
075120: 000207              	ret				; ..
;
075122: 004767 176216       	call	73344			; w..|
075126: 004767 174424       	call	71556			; w..y
075132: 004767 176226       	call	73364			; w..|
075136: 000207              	ret				; ..
;
075140: 010046              	mov	r0,-(r6)		; &.
075142: 011400              	mov	(r4),r0			; ..
075144: 016660 000006 000016	mov	6(r6),16(r0)		; 0.....
075152: 001404              	beq	75164			; ..
075154: 016600 000006       	mov	6(r6),r0		; ....
075160: 005020              	clr	(r0)+			; ..
075162: 005010              	clr	(r0)			; ..
075164: 012600              	mov	(r6)+,r0		; ..
075166: 000207              	ret				; ..
;
075170: 010046              	mov	r0,-(r6)		; &.
075172: 011400              	mov	(r4),r0			; ..
075174: 005060 000016       	clr	16(r0)			; 0...
075200: 012600              	mov	(r6)+,r0		; ..
075202: 000207              	ret				; ..
;
075204: 010046              	mov	r0,-(r6)		; &.
075206: 010600              	mov	r6,r0			; ..
075210: 062700 000004       	add	#4,r0			; @e..
075214: 000004              	iot				; ..
075216: 010166 103002       	mov	r1,103002(r6)		; v...
075222: 004767 177026       	call	74254			; w..~
075226: 012600              	mov	(r6)+,r0		; ..
075230: 012616              	mov	(r6)+,(r6)		; ..
075232: 000207              	ret				; ..
;
075234: 010046              	mov	r0,-(r6)		; &.
075236: 010600              	mov	r6,r0			; ..
075240: 000004              	iot				; ..
075242: 006610              	mtpi	(r0)			; ..
075244: 010066 000004       	mov	r0,4(r6)		; 6...
075250: 012600              	mov	(r6)+,r0		; ..
075252: 000207              	ret				; ..
;
075254: 011646              	mov	(r6),-(r6)		; &.
075256: 016666 000026 000002	mov	26(r6),2(r6)		; 6.....
075264: 004767 177650       	call	75140			; w.(.
075270: 012616              	mov	(r6)+,(r6)		; ..
075272: 004767 000026       	call	75324			; w...
075276: 060666 000020       	add	r6,20(r6)		; 6a..
075302: 061766 000020       	add	(r7),20(r6)		; vc..
075306: 011676 000020       	mov	(r6),@20(r6)		; >...
075312: 016606 000020       	mov	20(r6),r6		; ....
075316: 004767 177646       	call	75170			; w.&.
075322: 000207              	ret				; ..
;
075324: 004567 176066       	jsr	r5,73416		; w.6|
075330: 016602 000050       	mov	50(r6),r2		; ..(.
075334: 010205              	mov	r2,r5			; ..
075336: 062705 000070       	add	#70,r5			; Ee8.
075342: 010546              	mov	r5,-(r6)		; f.
075344: 004767 176162       	call	73532			; w.r|
075350: 103002              	bcc	75356			; ..
075352: 000167 000440       	jmp	76016			; w. .
;
075356: 011601              	mov	(r6),r1			; ..
075360: 060201              	add	r2,r1			; .`
075362: 010146              	mov	r1,-(r6)		; f.
075364: 011402              	mov	(r4),r2			; ..
075366: 005766 000056       	tst	56(r6)			; v...
075372: 100003              	bpl	75402			; ..
075374: 016266 000006 000056	mov	6(r2),56(r6)		; 6.....
075402: 005766 000046       	tst	46(r6)			; v.&.
075406: 001404              	beq	75420			; ..
075410: 016202 000002       	mov	2(r2),r2		; ....
075414: 001001              	bne	75420			; ..
075416: 011402              	mov	(r4),r2			; ..
075420: 010246              	mov	r2,-(r6)		; &.
075422: 062702 000024       	add	#24,r2			; Be..
075426: 005712              	tst	(r2)			; J.
075430: 001017              	bne	75470			; ..
075432: 005062 000006       	clr	6(r2)			; 2...
075436: 010246              	mov	r2,-(r6)		; &.
075440: 012642              	mov	(r6)+,-(r2)		; ".
075442: 005046              	clr	-(r6)			; &.
075444: 005046              	clr	-(r6)			; &.
075446: 012746 000001       	mov	#1,-(r6)		; f...
075452: 011246              	mov	(r2),-(r6)		; &.
075454: 010600              	mov	r6,r0			; ..
075456: 000004              	iot				; ..
075460: 004504              	jsr	r5,r4			; D.
075462: 012626              	mov	(r6)+,(r6)+		; ..
075464: 012626              	mov	(r6)+,(r6)+		; ..
075466: 103561              	bcs	76032			; q.
075470: 005021              	clr	(r1)+			; ..
075472: 011621              	mov	(r6),(r1)+		; ..
075474: 011400              	mov	(r4),r0			; ..
075476: 016021 000050       	mov	50(r0),(r1)+		; ..(.
075502: 116621 000060       	movb	60(r6),(r1)+		; ..0.
075506: 105021              	clrb	(r1)+			; ..
075510: 012721 177777       	mov	#177777,(r1)+		; Q...
075514: 016621 000034       	mov	34(r6),(r1)+		; ....
075520: 016621 000040       	mov	40(r6),(r1)+		; .. .
075524: 012703 000024       	mov	#24,r3			; C...
075530: 005021              	clr	(r1)+			; ..
075532: 077302              	sob	r3,75530		; B~
075534: 010511              	mov	r5,(r1)			; I.
075536: 010600              	mov	r6,r0			; ..
075540: 062700 000046       	add	#46,r0			; @e&.
075544: 012002              	mov	(r0)+,r2		; ..
075546: 060200              	add	r2,r0			; .`
075550: 006202              	asr	r2			; ..
075552: 016601 000002       	mov	2(r6),r1		; ....
075556: 005741              	tst	-(r1)			; a.
075560: 010105              	mov	r1,r5			; E.
075562: 014041              	mov	-(r0),-(r1)		; !.
075564: 077202              	sob	r2,75562		; .~
075566: 010741              	mov	r7,-(r1)		; a.
075570: 062711 001676       	add	#1676,(r1)		; Ie>.
075574: 016641 000030       	mov	30(r6),-(r1)		; !...
075600: 016641 000032       	mov	32(r6),-(r1)		; !...
075604: 010441              	mov	r4,-(r1)		; !.
075606: 010102              	mov	r1,r2			; B.
075610: 062700 000020       	add	#20,r0			; @e..
075614: 016601 000002       	mov	2(r6),r1		; ....
075620: 062701 000046       	add	#46,r1			; Ae&.
075624: 014041              	mov	-(r0),-(r1)		; !.
075626: 014041              	mov	-(r0),-(r1)		; !.
075630: 014041              	mov	-(r0),-(r1)		; !.
075632: 016603 000002       	mov	2(r6),r3		; ....
075636: 062703 000032       	add	#32,r3			; Ce..
075642: 016601 000002       	mov	2(r6),r1		; ....
075646: 010200              	mov	r2,r0			; ..
075650: 166100 000014       	sub	14(r1),r0		; @l..
075654: 062700 000006       	add	#6,r0			; @e..
075660: 032700 000001       	bit	#1,r0			; @5..
075664: 001402              	beq	75672			; ..
075666: 005200              	inc	r0			; ..
075670: 000402              	br	75676			; ..
;
075672: 162700 000002       	sub	#2,r0			; @e..
075676: 010061 000014       	mov	r0,14(r1)		; 1...
075702: 010601              	mov	r6,r1			; ..
075704: 016146 000002       	mov	2(r1),-(r6)		; f...
075710: 010746              	mov	r7,-(r6)		; f.
075712: 062716 004576       	add	#4576,(r6)		; Ne~.
075716: 010546              	mov	r5,-(r6)		; f.
075720: 016146 000004       	mov	4(r1),-(r6)		; f...
075724: 010246              	mov	r2,-(r6)		; &.
075726: 010446              	mov	r4,-(r6)		; &.
075730: 010746              	mov	r7,-(r6)		; f.
075732: 062716 001534       	add	#1534,(r6)		; Ne\.
075736: 016146 000042       	mov	42(r1),-(r6)		; f.".
075742: 016146 000044       	mov	44(r1),-(r6)		; f.$.
075746: 005046              	clr	-(r6)			; &.
075750: 116116 000060       	movb	60(r1),(r6)		; N.0.
075754: 010346              	mov	r3,-(r6)		; f.
075756: 010600              	mov	r6,r0			; ..
075760: 000004              	iot				; ..
075762: 012240              	mov	(r2)+,-(r0)		;  .
075764: 010106              	mov	r1,r6			; F.
075766: 103430              	bcs	76050			; ..
075770: 012601              	mov	(r6)+,r1		; ..
075772: 005261 000020       	inc	20(r1)			; 1...
075776: 016600 000052       	mov	52(r6),r0		; ..*.
076002: 001403              	beq	76012			; ..
076004: 012320              	mov	(r3)+,(r0)+		; P.
076006: 012320              	mov	(r3)+,(r0)+		; P.
076010: 012320              	mov	(r3)+,(r0)+		; P.
076012: 022626              	cmp	(r6)+,(r6)+		; .%
076014: 000207              	ret				; ..
;
076016: 012700 044002       	mov	#44002,r0		; @..H
076022: 004767 176226       	call	74254			; w..|
076026: 005726              	tst	(r6)+			; V.
076030: 000771              	br	76014			; y.
;
076032: 004767 176216       	call	74254			; w..|
076036: 005726              	tst	(r6)+			; V.
076040: 010516              	mov	r5,(r6)			; N.
076042: 004767 175736       	call	74004			; w.^{
076046: 000762              	br	76014			; r.
;
076050: 004767 176200       	call	74254			; w..|
076054: 016601 000002       	mov	2(r6),r1		; ....
076060: 016105 000066       	mov	66(r1),r5		; E.6.
076064: 000764              	br	76036			; t.
;
076066: 004767 177046       	call	75140			; w.&~
076072: 004767 004270       	call	102366			; w.8.
076076: 103423              	bcs	76146			; ..
076100: 016660 000012 000006	mov	12(r6),6(r0)		; 0.....
076106: 005060 000002       	clr	2(r0)			; 0...
076112: 105766 000014       	tstb	14(r6)			; v...
076116: 001404              	beq	76130			; ..
076120: 012760 000200 000004	mov	#200,4(r0)		; p.....
076126: 000402              	br	76134			; ..
;
076130: 005060 000004       	clr	4(r0)			; 0...
076134: 000004              	iot				; ..
076136: 004504              	jsr	r5,r4			; D.
076140: 103003              	bcc	76150			; ..
076142: 004767 176106       	call	74254			; w.F|
076146: 005000              	clr	r0			; ..
076150: 010066 000016       	mov	r0,16(r6)		; 6...
076154: 004767 177010       	call	75170			; w..~
076160: 000167 004026       	jmp	102212			; w...
;
076164: 004767 176750       	call	75140			; w.h}
076170: 010046              	mov	r0,-(r6)		; &.
076172: 010146              	mov	r1,-(r6)		; f.
076174: 016600 000012       	mov	12(r6),r0		; ....
076200: 010001              	mov	r0,r1			; ..
076202: 005721              	tst	(r1)+			; Q.
076204: 012710 177777       	mov	#177777,(r0)		; H...
076210: 005011              	clr	(r1)			; ..
076212: 005061 000006       	clr	6(r1)			; 1...
076216: 005766 000010       	tst	10(r6)			; v...
076222: 001403              	beq	76232			; ..
076224: 012700 000200       	mov	#200,r0			; @...
076230: 000402              	br	76236			; ..
;
076232: 012700 000000       	mov	#0,r0			; @...
076236: 005046              	clr	-(r6)			; &.
076240: 010046              	mov	r0,-(r6)		; &.
076242: 012746 000000       	mov	#0,-(r6)		; f...
076246: 010146              	mov	r1,-(r6)		; f.
076250: 010600              	mov	r6,r0			; ..
076252: 000004              	iot				; ..
076254: 004504              	jsr	r5,r4			; D.
076256: 012626              	mov	(r6)+,(r6)+		; ..
076260: 012626              	mov	(r6)+,(r6)+		; ..
076262: 103405              	bcs	76276			; ..
076264: 012601              	mov	(r6)+,r1		; ..
076266: 004767 176676       	call	75170			; w.>}
076272: 000167 003702       	jmp	102200			; w.B.
;
076276: 004767 175752       	call	74254			; w.j{
076302: 000770              	br	76264			; x.
;
076304: 004767 176630       	call	75140			; w..}
076310: 010046              	mov	r0,-(r6)		; &.
076312: 010146              	mov	r1,-(r6)		; f.
076314: 016600 000010       	mov	10(r6),r0		; ....
076320: 005020              	clr	(r0)+			; ..
076322: 010046              	mov	r0,-(r6)		; &.
076324: 010600              	mov	r6,r0			; ..
076326: 000004              	iot				; ..
076330: 005332              	dec	@(r2)+			; Z.
076332: 005226              	inc	(r6)+			; ..
076334: 103405              	bcs	76350			; ..
076336: 012601              	mov	(r6)+,r1		; ..
076340: 004767 176624       	call	75170			; w..}
076344: 000167 003620       	jmp	102170			; w...
;
076350: 004767 175700       	call	74254			; w.@{
076354: 000770              	br	76336			; x.
;
076356: 010046              	mov	r0,-(r6)		; &.
076360: 010146              	mov	r1,-(r6)		; f.
076362: 016600 000006       	mov	6(r6),r0		; ....
076366: 010001              	mov	r0,r1			; ..
076370: 005721              	tst	(r1)+			; Q.
076372: 005210              	inc	(r0)			; ..
076374: 001406              	beq	76412			; ..
076376: 010146              	mov	r1,-(r6)		; f.
076400: 010600              	mov	r6,r0			; ..
076402: 000004              	iot				; ..
076404: 010754              	mov	r7,@-(r4)		; l.
076406: 005226              	inc	(r6)+			; ..
076410: 103404              	bcs	76422			; ..
076412: 012601              	mov	(r6)+,r1		; ..
076414: 012600              	mov	(r6)+,r0		; ..
076416: 012616              	mov	(r6)+,(r6)		; ..
076420: 000207              	ret				; ..
;
076422: 004767 175626       	call	74254			; w..{
076426: 000771              	br	76412			; y.
;
076430: 010046              	mov	r0,-(r6)		; &.
076432: 010146              	mov	r1,-(r6)		; f.
076434: 016600 000006       	mov	6(r6),r0		; ....
076440: 010001              	mov	r0,r1			; ..
076442: 005721              	tst	(r1)+			; Q.
076444: 005310              	dec	(r0)			; H.
076446: 100406              	bmi	76464			; ..
076450: 010146              	mov	r1,-(r6)		; f.
076452: 010600              	mov	r6,r0			; ..
076454: 000004              	iot				; ..
076456: 010116              	mov	r1,(r6)			; N.
076460: 005226              	inc	(r6)+			; ..
076462: 103404              	bcs	76474			; ..
076464: 012601              	mov	(r6)+,r1		; ..
076466: 012600              	mov	(r6)+,r0		; ..
076470: 012616              	mov	(r6)+,(r6)		; ..
076472: 000207              	ret				; ..
;
076474: 004767 175554       	call	74254			; w.l{
076500: 000771              	br	76464			; y.
;
076502: 004767 176432       	call	75140			; w..}
076506: 004767 003654       	call	102366			; w.,.
076512: 103434              	bcs	76604			; ..
076514: 105766 000014       	tstb	14(r6)			; v...
076520: 001404              	beq	76532			; ..
076522: 012760 000200 000004	mov	#200,4(r0)		; p.....
076530: 000402              	br	76536			; ..
;
076532: 005060 000004       	clr	4(r0)			; 0...
076536: 105766 000012       	tstb	12(r6)			; v...
076542: 001404              	beq	76554			; ..
076544: 052760 000100 000004	bis	#100,4(r0)		; pU@...
076552: 000402              	br	76560			; ..
;
076554: 005060 000004       	clr	4(r0)			; 0...
076560: 012760 000002 000002	mov	#2,2(r0)		; p.....
076566: 005060 000006       	clr	6(r0)			; 0...
076572: 000004              	iot				; ..
076574: 004504              	jsr	r5,r4			; D.
076576: 103003              	bcc	76606			; ..
076600: 004767 175450       	call	74254			; w.({
076604: 005000              	clr	r0			; ..
076606: 010066 000016       	mov	r0,16(r6)		; 6...
076612: 004767 176352       	call	75170			; w.j|
076616: 000167 003370       	jmp	102212			; w.x.
;
076622: 004767 176312       	call	75140			; w.J|
076626: 004767 003410       	call	102242			; w...
076632: 103416              	bcs	76670			; ..
076634: 162706 000012       	sub	#12,r6			; Fe..
076640: 005760 000002       	tst	2(r0)			; p...
076644: 001002              	bne	76652			; ..
076646: 010660 000002       	mov	r6,2(r0)		; 0...
076652: 000004              	iot				; ..
076654: 006616              	mtpi	(r6)			; ..
076656: 103002              	bcc	76664			; ..
076660: 004767 175370       	call	74254			; w.xz
076664: 062706 000012       	add	#12,r6			; Fe..
076670: 004767 176274       	call	75170			; w.<|
076674: 000167 003326       	jmp	102226			; w.V.
;
076700: 004767 176234       	call	75140			; w..|
076704: 004767 003332       	call	102242			; w.Z.
076710: 103405              	bcs	76724			; ..
076712: 000004              	iot				; ..
076714: 010116              	mov	r1,(r6)			; N.
076716: 103002              	bcc	76724			; ..
076720: 004767 175330       	call	74254			; w.Xz
076724: 004767 176240       	call	75170			; w. |
076730: 000167 003244       	jmp	102200			; w.$.
;
076734: 004767 176200       	call	75140			; w..|
076740: 004767 003276       	call	102242			; w.>.
076744: 103405              	bcs	76760			; ..
076746: 000004              	iot				; ..
076750: 010754              	mov	r7,@-(r4)		; l.
076752: 103002              	bcc	76760			; ..
076754: 004767 175274       	call	74254			; w.<z
076760: 004767 176204       	call	75170			; w..|
076764: 000167 003210       	jmp	102200			; w...
;
076770: 004767 176144       	call	75140			; w.d|
076774: 004767 003242       	call	102242			; w.".
077000: 103405              	bcs	77014			; ..
077002: 000004              	iot				; ..
077004: 007674              	invalid opcode			; <.
077006: 103003              	bcc	77016			; ..
077010: 004767 175240       	call	74254			; w. z
077014: 005000              	clr	r0			; ..
077016: 010066 000012       	mov	r0,12(r6)		; 6...
077022: 004767 176142       	call	75170			; w.b|
077026: 000167 003146       	jmp	102200			; w.f.
;
077032: 004767 176102       	call	75140			; w.B|
077036: 004767 003200       	call	102242			; w...
077042: 103405              	bcs	77056			; ..
077044: 000004              	iot				; ..
077046: 010610              	mov	r6,(r0)			; ..
077050: 103003              	bcc	77060			; ..
077052: 004767 175176       	call	74254			; w.~z
077056: 005000              	clr	r0			; ..
077060: 010066 000012       	mov	r0,12(r6)		; 6...
077064: 004767 176100       	call	75170			; w.@|
077070: 000167 003104       	jmp	102200			; w.D.
;
077074: 004767 176040       	call	75140			; w. |
077100: 004767 003136       	call	102242			; w.^.
077104: 103405              	bcs	77120			; ..
077106: 000004              	iot				; ..
077110: 007150              	invalid opcode			; h.
077112: 103002              	bcc	77120			; ..
077114: 004767 175134       	call	74254			; w.\z
077120: 004767 176044       	call	75170			; w.$|
077124: 000167 003050       	jmp	102200			; w.(.
;
077130: 004767 176004       	call	75140			; w..|
077134: 004767 003102       	call	102242			; w.B.
077140: 103405              	bcs	77154			; ..
077142: 000004              	iot				; ..
077144: 010560 103003       	mov	r5,103003(r0)		; p...
077150: 004767 175100       	call	74254			; w.@z
077154: 005000              	clr	r0			; ..
077156: 010066 000024       	mov	r0,24(r6)		; 6...
077162: 004767 176002       	call	75170			; w..|
077166: 000167 003034       	jmp	102226			; w...
;
077172: 004767 175742       	call	75140			; w.b{
077176: 004767 003164       	call	102366			; w.t.
077202: 103466              	bcs	77360			; 6.
077204: 016666 000012 000024	mov	12(r6),24(r6)		; 6.....
077212: 012760 000003 000002	mov	#3,2(r0)		; p.....
077220: 105766 000014       	tstb	14(r6)			; v...
077224: 001404              	beq	77236			; ..
077226: 012760 000200 000004	mov	#200,4(r0)		; p.....
077234: 000403              	br	77244			; ..
;
077236: 012760 000000 000004	mov	#0,4(r0)		; p.....
077244: 105766 000016       	tstb	16(r6)			; v...
077250: 001404              	beq	77262			; ..
077252: 052760 000100 000004	bis	#100,4(r0)		; pU@...
077260: 000403              	br	77270			; ..
;
077262: 052760 000000 000004	bis	#0,4(r0)		; pU....
077270: 105766 000020       	tstb	20(r6)			; v...
077274: 001404              	beq	77306			; ..
077276: 052760 000000 000004	bis	#0,4(r0)		; pU....
077304: 000403              	br	77314			; ..
;
077306: 052760 000004 000004	bis	#4,4(r0)		; pU....
077314: 105766 000022       	tstb	22(r6)			; v...
077320: 001404              	beq	77332			; ..
077322: 052760 000000 000004	bis	#0,4(r0)		; pU....
077330: 000403              	br	77340			; ..
;
077332: 052760 000002 000004	bis	#2,4(r0)		; pU....
077340: 016660 000024 000006	mov	24(r6),6(r0)		; 0.....
077346: 000004              	iot				; ..
077350: 004504              	jsr	r5,r4			; D.
077352: 103003              	bcc	77362			; ..
077354: 004767 174674       	call	74254			; w.<y
077360: 005000              	clr	r0			; ..
077362: 010066 000024       	mov	r0,24(r6)		; 6...
077366: 004767 175576       	call	75170			; w.~{
077372: 000167 002630       	jmp	102226			; w...
;
077376: 004767 175536       	call	75140			; w.^{
077402: 004767 002634       	call	102242			; w...
077406: 103405              	bcs	77422			; ..
077410: 000004              	iot				; ..
077412: 006264 103002       	asr	103002(r4)		; 4...
077416: 004767 174632       	call	74254			; w..y
077422: 004767 175542       	call	75170			; w.b{
077426: 000167 002560       	jmp	102212			; w.p.
;
077432: 004767 175502       	call	75140			; w.B{
077436: 004767 002600       	call	102242			; w...
077442: 103405              	bcs	77456			; ..
077444: 000004              	iot				; ..
077446: 005614              	sbc	(r4)			; ..
077450: 103002              	bcc	77456			; ..
077452: 004767 174576       	call	74254			; w.~y
077456: 004767 175506       	call	75170			; w.F{
077462: 000167 002524       	jmp	102212			; w.T.
;
077466: 004267 174014       	jsr	r2,73506		; 7..x
077472: 010600              	mov	r6,r0			; ..
077474: 000004              	iot				; ..
077476: 004412              	jsr	r4,(r2)			; ..
077500: 010004              	mov	r0,r4			; ..
077502: 011401              	mov	(r4),r1			; ..
077504: 105261 000007       	incb	7(r1)			; 1...
077510: 005361 000020       	dec	20(r1)			; q...
077514: 100407              	bmi	77534			; ..
077516: 016146 000022       	mov	22(r1),-(r6)		; f...
077522: 010600              	mov	r6,r0			; ..
077524: 000004              	iot				; ..
077526: 010754              	mov	r7,@-(r4)		; l.
077530: 005226              	inc	(r6)+			; ..
077532: 000766              	br	77510			; v.
;
077534: 016100 000012       	mov	12(r1),r0		; @...
077540: 001403              	beq	77550			; ..
077542: 016105 000014       	mov	14(r1),r5		; E...
077546: 004710              	call	(r0)			; H.
077550: 012746 000377       	mov	#377,-(r6)		; f...
077554: 005046              	clr	-(r6)			; &.
077556: 010600              	mov	r6,r0			; ..
077560: 000004              	iot				; ..
077562: 004430              	jsr	r4,@(r0)+		; ..
077564: 012626              	mov	(r6)+,(r6)+		; ..
077566: 005046              	clr	-(r6)			; &.
077570: 016100 000002       	mov	2(r1),r0		; @...
077574: 001415              	beq	77630			; ..
077576: 105760 000007       	tstb	7(r0)			; p...
077602: 001407              	beq	77622			; ..
077604: 016046 000022       	mov	22(r0),-(r6)		; &...
077610: 010600              	mov	r6,r0			; ..
077612: 000004              	iot				; ..
077614: 010116              	mov	r1,(r6)			; N.
077616: 005226              	inc	(r6)+			; ..
077620: 000406              	br	77636			; ..
;
077622: 005360 000020       	dec	20(r0)			; p...
077626: 000403              	br	77636			; ..
;
077630: 004767 167662       	call	67516			; w.2o
077634: 010716              	mov	r7,(r6)			; N.
077636: 005761 000024       	tst	24(r1)			; q...
077642: 001406              	beq	77660			; ..
077644: 016146 000022       	mov	22(r1),-(r6)		; f...
077650: 010600              	mov	r6,r0			; ..
077652: 000004              	iot				; ..
077654: 005332              	dec	@(r2)+			; Z.
077656: 005226              	inc	(r6)+			; ..
077660: 016100 000052       	mov	52(r1),r0		; @.*.
077664: 001405              	beq	77700			; ..
077666: 010046              	mov	r0,-(r6)		; &.
077670: 012746 000040       	mov	#40,-(r6)		; f. .
077674: 004767 174104       	call	74004			; w.Dx
077700: 005726              	tst	(r6)+			; V.
077702: 001011              	bne	77726			; ..
077704: 062701 000070       	add	#70,r1			; Ae8.
077710: 016100 177776       	mov	177776(r1),r0		; @.~.
077714: 160001              	sub	r0,r1			; .`
077716: 010146              	mov	r1,-(r6)		; f.
077720: 010046              	mov	r0,-(r6)		; &.
077722: 004767 174056       	call	74004			; w..x
077726: 010600              	mov	r6,r0			; ..
077730: 000004              	iot				; ..
077732: 013172 004767       	mov	@(r1)+,@4767(r2)	; z.w.
077736: 003012              	bgt	77764			; ..
077740: 012503              	mov	(r5)+,r3		; C.
077742: 012502              	mov	(r5)+,r2		; B.
077744: 060203              	add	r2,r3			; .`
077746: 011501              	mov	(r5),r1			; A.
077750: 160201              	sub	r2,r1			; .`
077752: 010300              	mov	r3,r0			; @.
077754: 000241              	clc				; !.
077756: 006001              	ror	r1			; ..
077760: 005020              	clr	(r0)+			; ..
077762: 077102              	sob	r1,77760		; B~
077764: 010304              	mov	r3,r4			; D.
077766: 062704 000070       	add	#70,r4			; De8.
077772: 010314              	mov	r3,(r4)			; L.
077774: 010400              	mov	r4,r0			; ..
077776: 062700 000066       	add	#66,r0			; @e6.
100002: 010403              	mov	r4,r3			; ..
100004: 062703 000026       	add	#26,r3			; Ce..
100010: 010401              	mov	r4,r1			; ..
100012: 062701 000006       	add	#6,r1			; Ae..
100016: 010321              	mov	r3,(r1)+		; Q.
100020: 010023              	mov	r0,(r3)+		; ..
100022: 005020              	clr	(r0)+			; ..
100024: 005402              	neg	r2			; ..
100026: 062502              	add	(r5)+,r2		; Be
100030: 162702 000156       	sub	#156,r2			; Ben.
100034: 010210              	mov	r2,(r0)			; ..
100036: 010321              	mov	r3,(r1)+		; Q.
100040: 005723              	tst	(r3)+			; S.
100042: 010321              	mov	r3,(r1)+		; Q.
100044: 005723              	tst	(r3)+			; S.
100046: 010321              	mov	r3,(r1)+		; Q.
100050: 062703 000006       	add	#6,r3			; Ce..
100054: 010321              	mov	r3,(r1)+		; Q.
100056: 005321              	dec	(r1)+			; Q.
100060: 005321              	dec	(r1)+			; Q.
100062: 062703 000006       	add	#6,r3			; Ce..
100066: 010311              	mov	r3,(r1)			; I.
100070: 016403 000014       	mov	14(r4),r3		; ....
100074: 012701 000002       	mov	#2,r1			; A...
100100: 005046              	clr	-(r6)			; &.
100102: 012746 000200       	mov	#200,-(r6)		; f...
100106: 005046              	clr	-(r6)			; &.
100110: 010346              	mov	r3,-(r6)		; f.
100112: 010600              	mov	r6,r0			; ..
100114: 000004              	iot				; ..
100116: 004504              	jsr	r5,r4			; D.
100120: 012626              	mov	(r6)+,(r6)+		; ..
100122: 012626              	mov	(r6)+,(r6)+		; ..
100124: 103446              	bcs	100242			; &.
100126: 062703 000006       	add	#6,r3			; Ce..
100132: 077116              	sob	r1,100100		; N~
100134: 011401              	mov	(r4),r1			; ..
100136: 062701 000006       	add	#6,r1			; Ae..
100142: 112521              	movb	(r5)+,(r1)+		; Q.
100144: 105021              	clrb	(r1)+			; ..
100146: 105725              	tstb	(r5)+			; U.
100150: 010611              	mov	r6,(r1)			; ..
100152: 062721 000002       	add	#2,(r1)+		; Qe..
100156: 012511              	mov	(r5)+,(r1)		; I.
100160: 062701 000054       	add	#54,r1			; Ae,.
100164: 016511 177770       	mov	177770(r5),(r1)		; I.x.
100170: 062711 000070       	add	#70,(r1)		; Ie8.
100174: 005725              	tst	(r5)+			; U.
100176: 012502              	mov	(r5)+,r2		; B.
100200: 004767 167036       	call	67242			; w..n
100204: 012500              	mov	(r5)+,r0		; @.
100206: 011501              	mov	(r5),r1			; A.
100210: 160001              	sub	r0,r1			; .`
100212: 006201              	asr	r1			; ..
100214: 001402              	beq	100222			; ..
100216: 004730              	call	@(r0)+			; X.
100220: 077102              	sob	r1,100216		; B~
100222: 016546 177766       	mov	177766(r5),-(r6)	; f.v.
100226: 005046              	clr	-(r6)			; &.
100230: 010600              	mov	r6,r0			; ..
100232: 000004              	iot				; ..
100234: 004430              	jsr	r4,@(r0)+		; ..
100236: 012626              	mov	(r6)+,(r6)+		; ..
100240: 000207              	ret				; ..
;
100242: 004767 174006       	call	74254			; w..x
100246: 000167 177214       	jmp	77466			; w..~
;
100252: 004767 001624       	call	102102			; w...
100256: 016603 000014       	mov	14(r6),r3		; ....
100262: 003006              	bgt	100300			; ..
100264: 012746 034005       	mov	#34005,-(r6)		; f..8
100270: 004767 173770       	call	74264			; w.xw
100274: 012703 000006       	mov	#6,r3			; C...
100300: 010346              	mov	r3,-(r6)		; f.
100302: 005216              	inc	(r6)			; ..
100304: 042716 000001       	bic	#1,(r6)			; NE..
100310: 105766 000020       	tstb	20(r6)			; v...
100314: 001406              	beq	100332			; ..
100316: 010700              	mov	r7,r0			; @.
100320: 062700 164474       	add	#164474,r0		; @e<i
100324: 012702 000004       	mov	#4,r2			; B...
100330: 000405              	br	100344			; ..
;
100332: 010700              	mov	r7,r0			; @.
100334: 062700 164452       	add	#164452,r0		; @e*i
100340: 012702 000005       	mov	#5,r2			; B...
100344: 020203              	cmp	r2,r3			; . 
100346: 003002              	bgt	100354			; ..
100350: 010205              	mov	r2,r5			; ..
100352: 000401              	br	100356			; ..
;
100354: 010305              	mov	r3,r5			; E.
100356: 060500              	add	r5,r0			; @a
100360: 010601              	mov	r6,r1			; ..
100362: 011602              	mov	(r6),r2			; ..
100364: 161606              	sub	(r6),r6			; .c
100366: 010246              	mov	r2,-(r6)		; &.
100370: 005002              	clr	r2			; ..
100372: 114041              	movb	-(r0),-(r1)		; !.
100374: 005202              	inc	r2			; ..
100376: 005305              	dec	r5			; E.
100400: 001374              	bne	100372			; |.
100402: 020302              	cmp	r3,r2			; B 
100404: 003404              	ble	100416			; ..
100406: 112741 000040       	movb	#40,-(r1)		; a. .
100412: 005202              	inc	r2			; ..
100414: 000772              	br	100402			; z.
;
100416: 004767 170624       	call	71246			; w..q
100422: 062606              	add	(r6)+,r6		; .e
100424: 005726              	tst	(r6)+			; V.
100426: 004767 001472       	call	102124			; w.:.
100432: 012666 000002       	mov	(r6)+,2(r6)		; 6...
100436: 005726              	tst	(r6)+			; V.
100440: 000207              	ret				; ..
;
100442: 004767 001434       	call	102102			; w...
100446: 010446              	mov	r4,-(r6)		; &.
100450: 016601 000022       	mov	22(r6),r1		; ....
100454: 016602 000024       	mov	24(r6),r2		; ....
100460: 005003              	clr	r3			; ..
100462: 005004              	clr	r4			; ..
100464: 162706 000120       	sub	#120,r6			; FeP.
100470: 010605              	mov	r6,r5			; ..
100472: 010546              	mov	r5,-(r6)		; f.
100474: 016646 000142       	mov	142(r6),-(r6)		; &.b.
100500: 003006              	bgt	100516			; ..
100502: 016604 000124       	mov	124(r6),r4		; ..T.
100506: 012746 034005       	mov	#34005,-(r6)		; f..8
100512: 004767 173546       	call	74264			; w.fw
100516: 016646 000142       	mov	142(r6),-(r6)		; &.b.
100522: 005046              	clr	-(r6)			; &.
100524: 005766 000002       	tst	2(r6)			; v...
100530: 001033              	bne	100620			; ..
100532: 052716 000002       	bis	#2,(r6)			; NU..
100536: 005766 000004       	tst	4(r6)			; v...
100542: 001004              	bne	100554			; ..
100544: 012766 000006 000002	mov	#6,2(r6)		; v.....
100552: 000422              	br	100620			; ..
;
100554: 022766 000007 000004	cmp	#7,4(r6)		; v%....
100562: 002410              	blt	100604			; ..
100564: 012766 000001 000002	mov	#1,2(r6)		; v.....
100572: 005701              	tst	r1			; A.
100574: 100411              	bmi	100620			; ..
100576: 112725 000040       	movb	#40,(r5)+		; U. .
100602: 000406              	br	100620			; ..
;
100604: 016646 000004       	mov	4(r6),-(r6)		; &...
100610: 162716 000006       	sub	#6,(r6)			; Ne..
100614: 012666 000002       	mov	(r6)+,2(r6)		; 6...
100620: 006101              	rol	r1			; A.
100622: 005516              	adc	(r6)			; N.
100624: 005701              	tst	r1			; A.
100626: 001013              	bne	100656			; ..
100630: 042716 000001       	bic	#1,(r6)			; NE..
100634: 012746 000001       	mov	#1,-(r6)		; f...
100640: 016646 000004       	mov	4(r6),-(r6)		; &...
100644: 005216              	inc	(r6)			; ..
100646: 012746 000001       	mov	#1,-(r6)		; f...
100652: 000167 000204       	jmp	101062			; w...
;
100656: 005046              	clr	-(r6)			; &.
100660: 000261              	sec				; 1.
100662: 106001              	rorb	r1			; ..
100664: 010146              	mov	r1,-(r6)		; f.
100666: 105016              	clrb	(r6)			; ..
100670: 041601              	bic	(r6),r1			; .C
100672: 000316              	swab	(r6)			; N.
100674: 004767 002024       	call	102724			; w...
100700: 012600              	mov	(r6)+,r0		; ..
100702: 162700 000200       	sub	#200,r0			; @e..
100706: 003007              	bgt	100726			; ..
100710: 004767 001634       	call	102550			; w...
100714: 004767 002004       	call	102724			; w...
100720: 005316              	dec	(r6)			; N.
100722: 005200              	inc	r0			; ..
100724: 003771              	ble	100710			; y.
100726: 004767 001714       	call	102646			; w.L.
100732: 005216              	inc	(r6)			; ..
100734: 004767 001764       	call	102724			; w.t.
100740: 005700              	tst	r0			; @.
100742: 003371              	bgt	100726			; y.
100744: 001404              	beq	100756			; ..
100746: 004767 001562       	call	102534			; w.r.
100752: 005200              	inc	r0			; ..
100754: 001374              	bne	100746			; |.
100756: 016600 000004       	mov	4(r6),r0		; ....
100762: 032766 000002 000002	bit	#2,2(r6)		; v5....
100770: 001002              	bne	100776			; ..
100772: 061600              	add	(r6),r0			; .c
100774: 000401              	br	101000			; ..
;
100776: 005200              	inc	r0			; ..
101000: 020027 000007       	cmp	r0,#7			; . ..
101004: 003402              	ble	101012			; ..
101006: 012700 000007       	mov	#7,r0			; @...
101012: 010046              	mov	r0,-(r6)		; &.
101014: 005700              	tst	r0			; @.
101016: 100411              	bmi	101042			; ..
101020: 004767 001572       	call	102616			; w.z.
101024: 020127 010000       	cmp	r1,#10000		; W ..
101030: 103404              	bcs	101042			; ..
101032: 004767 001610       	call	102646			; w...
101036: 005266 000002       	inc	2(r6)			; 6...
101042: 016646 000002       	mov	2(r6),-(r6)		; &...
101046: 032766 000002 000006	bit	#2,6(r6)		; v5....
101054: 001402              	beq	101062			; ..
101056: 012716 000001       	mov	#1,(r6)			; N...
101062: 010346              	mov	r3,-(r6)		; f.
101064: 016603 000014       	mov	14(r6),r3		; ....
101070: 005766 000002       	tst	2(r6)			; v...
101074: 003002              	bgt	101102			; ..
101076: 005303              	dec	r3			; C.
101100: 000402              	br	101106			; ..
;
101102: 166603 000002       	sub	2(r6),r3		; .m..
101106: 166603 000012       	sub	12(r6),r3		; .m..
101112: 032766 000001 000010	bit	#1,10(r6)		; v5....
101120: 001401              	beq	101124			; ..
101122: 005303              	dec	r3			; C.
101124: 005303              	dec	r3			; C.
101126: 032766 000002 000010	bit	#2,10(r6)		; v5....
101134: 001402              	beq	101142			; ..
101136: 162703 000004       	sub	#4,r3			; Ce..
101142: 112725 000040       	movb	#40,(r5)+		; U. .
101146: 005703              	tst	r3			; C.
101150: 003404              	ble	101162			; ..
101152: 112725 000040       	movb	#40,(r5)+		; U. .
101156: 005303              	dec	r3			; C.
101160: 000772              	br	101146			; z.
;
101162: 012603              	mov	(r6)+,r3		; ..
101164: 032766 000001 000006	bit	#1,6(r6)		; v5....
101172: 001402              	beq	101200			; ..
101174: 112725 000055       	movb	#55,(r5)+		; U.-.
101200: 005716              	tst	(r6)			; N.
101202: 003467              	ble	101362			; 7.
101204: 004767 001340       	call	102550			; w.`.
101210: 004767 001306       	call	102522			; w.F.
101214: 010100              	mov	r1,r0			; @.
101216: 042700 007777       	bic	#7777,r0		; @E..
101222: 040001              	bic	r0,r1			; .@
101224: 000300              	swab	r0			; @.
101226: 006200              	asr	r0			; ..
101230: 006200              	asr	r0			; ..
101232: 006200              	asr	r0			; ..
101234: 006200              	asr	r0			; ..
101236: 062700 000060       	add	#60,r0			; @e0.
101242: 110025              	movb	r0,(r5)+		; ..
101244: 005366 000002       	dec	2(r6)			; v...
101250: 001004              	bne	101262			; ..
101252: 005001              	clr	r1			; ..
101254: 005002              	clr	r2			; ..
101256: 005003              	clr	r3			; ..
101260: 005004              	clr	r4			; ..
101262: 005316              	dec	(r6)			; N.
101264: 003347              	bgt	101204			; g.
101266: 001437              	beq	101366			; ..
101270: 005366 000010       	dec	10(r6)			; v...
101274: 100343              	bpl	101204			; c.
101276: 005726              	tst	(r6)+			; V.
101300: 005726              	tst	(r6)+			; V.
101302: 012603              	mov	(r6)+,r3		; ..
101304: 032716 000002       	bit	#2,(r6)			; N5..
101310: 001042              	bne	101416			; ".
101312: 005726              	tst	(r6)+			; V.
101314: 005726              	tst	(r6)+			; V.
101316: 005726              	tst	(r6)+			; V.
101320: 012601              	mov	(r6)+,r1		; ..
101322: 010502              	mov	r5,r2			; B.
101324: 160102              	sub	r1,r2			; B`
101326: 016604 000120       	mov	120(r6),r4		; ..P.
101332: 004767 167710       	call	71246			; w.Ho
101336: 062706 000120       	add	#120,r6			; FeP.
101342: 005726              	tst	(r6)+			; V.
101344: 004767 000554       	call	102124			; w.l.
101350: 012666 000006       	mov	(r6)+,6(r6)		; 6...
101354: 062706 000006       	add	#6,r6			; Fe..
101360: 000207              	ret				; ..
;
101362: 112725 000060       	movb	#60,(r5)+		; U.0.
101366: 112725 000056       	movb	#56,(r5)+		; U...
101372: 000405              	br	101406			; ..
;
101374: 005716              	tst	(r6)			; N.
101376: 001702              	beq	101204			; B.
101400: 112725 000060       	movb	#60,(r5)+		; U.0.
101404: 005216              	inc	(r6)			; ..
101406: 005366 000010       	dec	10(r6)			; v...
101412: 100370              	bpl	101374			; x.
101414: 000730              	br	101276			; X.
;
101416: 112725 000105       	movb	#105,(r5)+		; U.E.
101422: 005303              	dec	r3			; C.
101424: 005703              	tst	r3			; C.
101426: 100004              	bpl	101440			; ..
101430: 005403              	neg	r3			; ..
101432: 112725 000055       	movb	#55,(r5)+		; U.-.
101436: 000402              	br	101444			; ..
;
101440: 112725 000053       	movb	#53,(r5)+		; U.+.
101444: 005002              	clr	r2			; ..
101446: 071227 000012       	div	#12,r2			; .r..
101452: 062702 000060       	add	#60,r2			; Be0.
101456: 110225              	movb	r2,(r5)+		; ..
101460: 062703 000060       	add	#60,r3			; Ce0.
101464: 110325              	movb	r3,(r5)+		; U.
101466: 000711              	br	101312			; I.
;
101470: 011646              	mov	(r6),-(r6)		; &.
101472: 012766 000012 000002	mov	#12,2(r6)		; v.....
101500: 004767 000376       	call	102102			; w.~.
101504: 016603 000020       	mov	20(r6),r3		; ....
101510: 016605 000014       	mov	14(r6),r5		; ....
101514: 016600 000016       	mov	16(r6),r0		; ....
101520: 003005              	bgt	101534			; ..
101522: 012746 034005       	mov	#34005,-(r6)		; f..8
101526: 004767 172532       	call	74264			; w.Zu
101532: 005000              	clr	r0			; ..
101534: 010002              	mov	r0,r2			; ..
101536: 020227 000007       	cmp	r2,#7			; . ..
101542: 002002              	bge	101550			; ..
101544: 012702 000007       	mov	#7,r2			; B...
101550: 005202              	inc	r2			; ..
101552: 042702 000001       	bic	#1,r2			; BE..
101556: 010601              	mov	r6,r1			; ..
101560: 160206              	sub	r2,r6			; .`
101562: 010246              	mov	r2,-(r6)		; &.
101564: 005046              	clr	-(r6)			; &.
101566: 005703              	tst	r3			; C.
101570: 100002              	bpl	101576			; ..
101572: 005403              	neg	r3			; ..
101574: 005216              	inc	(r6)			; ..
101576: 005046              	clr	-(r6)			; &.
101600: 005002              	clr	r2			; ..
101602: 071205              	div	r5,r2			; .r
101604: 062703 000060       	add	#60,r3			; Ce0.
101610: 120327 000071       	cmpb	r3,#71			; W 9.
101614: 003402              	ble	101622			; ..
101616: 062703 000007       	add	#7,r3			; Ce..
101622: 110341              	movb	r3,-(r1)		; a.
101624: 005216              	inc	(r6)			; ..
101626: 010203              	mov	r2,r3			; ..
101630: 001363              	bne	101600			; s.
101632: 012602              	mov	(r6)+,r2		; ..
101634: 005726              	tst	(r6)+			; V.
101636: 001403              	beq	101646			; ..
101640: 112741 000055       	movb	#55,-(r1)		; a.-.
101644: 005202              	inc	r2			; ..
101646: 020002              	cmp	r0,r2			; . 
101650: 003404              	ble	101662			; ..
101652: 112741 000040       	movb	#40,-(r1)		; a. .
101656: 005202              	inc	r2			; ..
101660: 000772              	br	101646			; z.
;
101662: 004767 167360       	call	71246			; w.pn
101666: 062606              	add	(r6)+,r6		; .e
101670: 004767 000230       	call	102124			; w...
101674: 012666 000004       	mov	(r6)+,4(r6)		; 6...
101700: 022626              	cmp	(r6)+,(r6)+		; .%
101702: 000207              	ret				; ..
;
101704: 000406              	br	101722			; ..
;
101706: 000405              	br	101722			; ..
;
101710: 000400              	br	101712			; ..
;
101712: 011646              	mov	(r6),-(r6)		; &.
101714: 012766 000012 000002	mov	#12,2(r6)		; v.....
101722: 004767 000154       	call	102102			; w.l.
101726: 016603 000020       	mov	20(r6),r3		; ....
101732: 016605 000014       	mov	14(r6),r5		; ....
101736: 016600 000016       	mov	16(r6),r0		; ....
101742: 003005              	bgt	101756			; ..
101744: 012746 034005       	mov	#34005,-(r6)		; f..8
101750: 004767 172310       	call	74264			; w.Ht
101754: 005000              	clr	r0			; ..
101756: 010002              	mov	r0,r2			; ..
101760: 020227 000020       	cmp	r2,#20			; . ..
101764: 002002              	bge	101772			; ..
101766: 012702 000020       	mov	#20,r2			; B...
101772: 005202              	inc	r2			; ..
101774: 042702 000001       	bic	#1,r2			; BE..
102000: 010601              	mov	r6,r1			; ..
102002: 160206              	sub	r2,r6			; .`
102004: 010246              	mov	r2,-(r6)		; &.
102006: 005046              	clr	-(r6)			; &.
102010: 005002              	clr	r2			; ..
102012: 071205              	div	r5,r2			; .r
102014: 062703 000060       	add	#60,r3			; Ce0.
102020: 120327 000071       	cmpb	r3,#71			; W 9.
102024: 003402              	ble	102032			; ..
102026: 062703 000007       	add	#7,r3			; Ce..
102032: 110341              	movb	r3,-(r1)		; a.
102034: 005216              	inc	(r6)			; ..
102036: 010203              	mov	r2,r3			; ..
102040: 001363              	bne	102010			; s.
102042: 012602              	mov	(r6)+,r2		; ..
102044: 020002              	cmp	r0,r2			; . 
102046: 003404              	ble	102060			; ..
102050: 112741 000040       	movb	#40,-(r1)		; a. .
102054: 005202              	inc	r2			; ..
102056: 000772              	br	102044			; z.
;
102060: 004767 167162       	call	71246			; w.rn
102064: 062606              	add	(r6)+,r6		; .e
102066: 004767 000032       	call	102124			; w...
102072: 012666 000004       	mov	(r6)+,4(r6)		; 6...
102076: 022626              	cmp	(r6)+,(r6)+		; .%
102100: 000207              	ret				; ..
;
102102: 010146              	mov	r1,-(r6)		; f.
102104: 016601 000002       	mov	2(r6),r1		; ....
102110: 010066 000002       	mov	r0,2(r6)		; 6...
102114: 010246              	mov	r2,-(r6)		; &.
102116: 010346              	mov	r3,-(r6)		; f.
102120: 010546              	mov	r5,-(r6)		; f.
102122: 000111              	jmp	(r1)			; I.
;
102124: 012600              	mov	(r6)+,r0		; ..
102126: 012605              	mov	(r6)+,r5		; ..
102130: 012603              	mov	(r6)+,r3		; ..
102132: 012602              	mov	(r6)+,r2		; ..
102134: 012601              	mov	(r6)+,r1		; ..
102136: 000200              	rts	r0			; ..
;
102140: 004767 165432       	call	67576			; w..k
102144: 005000              	clr	r0			; ..
102146: 157500 000000       	bisb	@0(r5),r0		; @_..
102152: 032765 040000 000002	bit	#40000,2(r5)		; u5.@..
102160: 001001              	bne	102164			; ..
102162: 005727 000261       	tst	#261			; W.1.
102166: 000207              	ret				; ..
;
102170: 012600              	mov	(r6)+,r0		; ..
102172: 012616              	mov	(r6)+,(r6)		; ..
102174: 012616              	mov	(r6)+,(r6)		; ..
102176: 000207              	ret				; ..
;
102200: 012600              	mov	(r6)+,r0		; ..
102202: 012666 000004       	mov	(r6)+,4(r6)		; 6...
102206: 022626              	cmp	(r6)+,(r6)+		; .%
102210: 000207              	ret				; ..
;
102212: 012600              	mov	(r6)+,r0		; ..
102214: 012666 000010       	mov	(r6)+,10(r6)		; 6...
102220: 062706 000010       	add	#10,r6			; Fe..
102224: 000207              	ret				; ..
;
102226: 012600              	mov	(r6)+,r0		; ..
102230: 012666 000016       	mov	(r6)+,16(r6)		; 6...
102234: 062706 000016       	add	#16,r6			; Fe..
102240: 000207              	ret				; ..
;
102242: 011646              	mov	(r6),-(r6)		; &.
102244: 010066 000002       	mov	r0,2(r6)		; 6...
102250: 010146              	mov	r1,-(r6)		; f.
102252: 010246              	mov	r2,-(r6)		; &.
102254: 016602 000014       	mov	14(r6),r2		; ....
102260: 010600              	mov	r6,r0			; ..
102262: 062700 000016       	add	#16,r0			; @e..
102266: 005710              	tst	(r0)			; H.
102270: 001024              	bne	102342			; ..
102272: 011410              	mov	(r4),(r0)		; ..
102274: 062710 000032       	add	#32,(r0)		; He..
102300: 011001              	mov	(r0),r1			; ..
102302: 005011              	clr	(r1)			; ..
102304: 005702              	tst	r2			; B.
102306: 001422              	beq	102354			; ..
102310: 062701 000006       	add	#6,r1			; Ae..
102314: 112221              	movb	(r2)+,(r1)+		; ..
102316: 112221              	movb	(r2)+,(r1)+		; ..
102320: 112221              	movb	(r2)+,(r1)+		; ..
102322: 112221              	movb	(r2)+,(r1)+		; ..
102324: 112221              	movb	(r2)+,(r1)+		; ..
102326: 111211              	movb	(r2),(r1)		; ..
102330: 005727 000261       	tst	#261			; W.1.
102334: 012602              	mov	(r6)+,r2		; ..
102336: 012601              	mov	(r6)+,r1		; ..
102340: 000207              	ret				; ..
;
102342: 005702              	tst	r2			; B.
102344: 001771              	beq	102330			; y.
102346: 012700 060003       	mov	#60003,r0		; @..`
102352: 000402              	br	102360			; ..
;
102354: 012700 060002       	mov	#60002,r0		; @..`
102360: 004767 171670       	call	74254			; w.8s
102364: 000762              	br	102332			; r.
;
102366: 011646              	mov	(r6),-(r6)		; &.
102370: 010066 000002       	mov	r0,2(r6)		; 6...
102374: 010146              	mov	r1,-(r6)		; f.
102376: 010246              	mov	r2,-(r6)		; &.
102400: 016602 000014       	mov	14(r6),r2		; ....
102404: 010600              	mov	r6,r0			; ..
102406: 062700 000016       	add	#16,r0			; @e..
102412: 011001              	mov	(r0),r1			; ..
102414: 001006              	bne	102432			; ..
102416: 005702              	tst	r2			; B.
102420: 001426              	beq	102476			; ..
102422: 011410              	mov	(r4),(r0)		; ..
102424: 062710 000032       	add	#32,(r0)		; He..
102430: 011001              	mov	(r0),r1			; ..
102432: 005011              	clr	(r1)			; ..
102434: 005061 000006       	clr	6(r1)			; 1...
102440: 005702              	tst	r2			; B.
102442: 001410              	beq	102464			; ..
102444: 062701 000006       	add	#6,r1			; Ae..
102450: 112221              	movb	(r2)+,(r1)+		; ..
102452: 112221              	movb	(r2)+,(r1)+		; ..
102454: 112221              	movb	(r2)+,(r1)+		; ..
102456: 112221              	movb	(r2)+,(r1)+		; ..
102460: 112221              	movb	(r2)+,(r1)+		; ..
102462: 111211              	movb	(r2),(r1)		; ..
102464: 005727 000261       	tst	#261			; W.1.
102470: 012602              	mov	(r6)+,r2		; ..
102472: 012601              	mov	(r6)+,r1		; ..
102474: 000207              	ret				; ..
;
102476: 012700 060002       	mov	#60002,r0		; @..`
102502: 004767 171546       	call	74254			; w.fs
102506: 000767              	br	102466			; w.
;
102510: 004767 000236       	call	102752			; w...
102514: 012604              	mov	(r6)+,r4		; ..
102516: 012605              	mov	(r6)+,r5		; ..
102520: 000207              	ret				; ..
;
102522: 006304              	asl	r4			; D.
102524: 006103              	rol	r3			; C.
102526: 006102              	rol	r2			; B.
102530: 006101              	rol	r1			; A.
102532: 000207              	ret				; ..
;
102534: 000241              	clc				; !.
102536: 006001              	ror	r1			; ..
102540: 006002              	ror	r2			; ..
102542: 006003              	ror	r3			; ..
102544: 006004              	ror	r4			; ..
102546: 000207              	ret				; ..
;
102550: 010146              	mov	r1,-(r6)		; f.
102552: 010246              	mov	r2,-(r6)		; &.
102554: 010346              	mov	r3,-(r6)		; f.
102556: 010446              	mov	r4,-(r6)		; &.
102560: 004767 177736       	call	102522			; w.^.
102564: 004767 177732       	call	102522			; w.Z.
102570: 062604              	add	(r6)+,r4		; .e
102572: 005503              	adc	r3			; C.
102574: 005502              	adc	r2			; B.
102576: 005501              	adc	r1			; A.
102600: 062603              	add	(r6)+,r3		; .e
102602: 005502              	adc	r2			; B.
102604: 005501              	adc	r1			; A.
102606: 062602              	add	(r6)+,r2		; .e
102610: 005501              	adc	r1			; A.
102612: 062601              	add	(r6)+,r1		; .e
102614: 000207              	ret				; ..
;
102616: 010146              	mov	r1,-(r6)		; f.
102620: 010246              	mov	r2,-(r6)		; &.
102622: 010346              	mov	r3,-(r6)		; f.
102624: 010446              	mov	r4,-(r6)		; &.
102626: 005002              	clr	r2			; ..
102630: 012701 004000       	mov	#4000,r1		; A...
102634: 004767 000006       	call	102646			; w...
102640: 005300              	dec	r0			; @.
102642: 003752              	ble	102570			; j.
102644: 000773              	br	102634			; {.
;
102646: 010546              	mov	r5,-(r6)		; f.
102650: 012705 000074       	mov	#74,r5			; E.<.
102654: 022701 050000       	cmp	#50000,r1		; A%.P
102660: 101002              	bhi	102666			; ..
102662: 062701 130000       	add	#130000,r1		; Ae.0
102666: 006104              	rol	r4			; D.
102670: 006103              	rol	r3			; C.
102672: 006102              	rol	r2			; B.
102674: 006101              	rol	r1			; A.
102676: 005305              	dec	r5			; E.
102700: 001365              	bne	102654			; u.
102702: 010105              	mov	r1,r5			; E.
102704: 042705 007777       	bic	#7777,r5		; EE..
102710: 040501              	bic	r5,r1			; AA
102712: 012605              	mov	(r6)+,r5		; ..
102714: 000207              	ret				; ..
;
102716: 004767 177600       	call	102522			; w...
102722: 005300              	dec	r0			; @.
102724: 022701 004000       	cmp	#4000,r1		; A%..
102730: 101372              	bhi	102716			; z.
102732: 022701 010000       	cmp	#10000,r1		; A%..
102736: 101004              	bhi	102750			; ..
102740: 004767 177570       	call	102534			; w.x.
102744: 005200              	inc	r0			; ..
102746: 000771              	br	102732			; y.
;
102750: 000207              	ret				; ..
;
102752: 170127 007400       	ldfps	#7400			; Wp..
102756: 000207              	ret				; ..
;
102760: 001001              	bne	102764			; ..
102762: 004004              	jsr	r0,r4			; ..
102764: 020020              	cmp	r0,(r0)+		; . 
102766: 100100              	bpl	103170			; @.
102770: 000001              	wait				; ..
102772: 000002              	rti				; ..
;
102774: 000004              	iot				; ..
102776: 000010              	invalid opcode			; ..
103000: 000020              	invalid opcode			; ..
103002: 000040              	invalid opcode			;  .
103004: 000100              	jmp	r0			; @.
;
103006: 000200              	rts	r0			; ..
;
103010: 000400              	br	103012			; ..
;
103012: 001000              	bne	103014			; ..
103014: 002000              	bge	103016			; ..
103016: 004000              	jsr	r0,r0			; ..
103020: 010000              	mov	r0,r0			; ..
103022: 020000              	cmp	r0,r0			; . 
103024: 040000              	bic	r0,r0			; .@
103026: 100000              	bpl	103030			; ..
103030: 000000              	halt				; ..
103032: 000000              	halt				; ..
103034: 000000              	halt				; ..
;
103036: 052103              	bis	(r1)+,r3		; CT
103040: 046122 055040       	bic	55040(r1),(r2)+		; RL Z
103044: 064440              	add	-(r4),-(r0)		;  i
103046: 020163 066151       	cmp	r1,66151(r3)		; s il
103052: 062554              	add	(r5)+,@-(r4)		; le
103054: 060547              	add	r5,-(r7)		; ga
103056: 035554              	bit	@-(r5),@-(r4)		; l;
103060: 052040              	bis	(r0)+,-(r0)		;  T
103062: 074562 060440       	xor	60440(r2),r5		; ry a
103066: 060547              	add	r5,-(r7)		; ga
103070: 067151 027056       	add	@27056(r1),@-(r1)	; in..
103074: 035456              	bit	@-(r4),@-(r6)		; .;
103076: 064502              	add	-(r5),r2		; Bi
103100: 071156              	div	@-(r6),r1		; nr
103102: 031171 064502       	bit	(r1),@64502(r1)		; y2Bi
103106: 071156              	div	@-(r6),r1		; nr
103110: 031571 064502       	bit	(r5),@64502(r1)		; y3Bi
103114: 071156              	div	@-(r6),r1		; nr
103116: 032171 060504       	bit	(r1)+,@60504(r1)	; y4Da
103122: 060564 020161       	add	r5,20161(r4)		; taq 
103126: 067520 072162       	add	@72162(r5),(r0)+	; Port
103132: 041537 067520       	bic	(r5),@#67520		; _CPo
103136: 072162 042137       	ash	42137(r2),r1		; rt_D
103142: 000000              	halt				; ..
103144: 000000              	halt				; ..
103146: 000000              	halt				; ..
;
103150: 001750              	beq	103072			; h.
103152: 000000              	halt				; ..
;
103154: 000764              	br	103126			; t.
;
103156: 000000              	halt				; ..
;
103160: 000021              	invalid opcode			; ..
103162: 000000              	halt				; ..
;
103164: 001750              	beq	103106			; h.
103166: 000000              	halt				; ..
;
103170: 034013              	bit	-(r0),(r3)		; .8
103172: 140424              	bicb	r4,(r4)+		; .A
103174: 000600              	br	102576			; ..
;
103176: 000604              	br	102610			; ..
;
103200: 000612              	br	102626			; ..
;
103202: 000620              	br	102644			; ..
;
103204: 000626              	br	102662			; ..
;
103206: 000634              	br	102700			; ..
;
103210: 000642              	br	102716			; ".
;
103212: 000650              	br	102734			; (.
;
103214: 000656              	br	102752			; ..
;
103216: 000664              	br	102770			; 4.
;
103220: 000672              	br	103006			; :.
;
103222: 000700              	br	103024			; @.
;
103224: 000706              	br	103042			; F.
;
103226: 000714              	br	103060			; L.
;
103230: 000722              	br	103076			; R.
;
103232: 000730              	br	103114			; X.
;
103234: 001052              	bne	103362			; *.
103236: 001060              	bne	103400			; 0.
103240: 001066              	bne	103416			; 6.
103242: 001074              	bne	103434			; <.
103244: 001102              	bne	103452			; B.
103246: 001110              	bne	103470			; H.
103250: 001116              	bne	103506			; N.
103252: 001124              	bne	103524			; T.
103254: 001132              	bne	103542			; Z.
103256: 001140              	bne	103560			; `.
103260: 001146              	bne	103576			; f.
103262: 001154              	bne	103614			; l.
103264: 001162              	bne	103632			; r.
103266: 001170              	bne	103650			; x.
103270: 001176              	bne	103666			; ~.
103272: 001204              	bne	102704			; ..
103274: 001332              	bne	103162			; Z.
103276: 001362              	bne	103244			; r.
103300: 001414              	beq	103332			; ..
103302: 001446              	beq	103420			; &.
103304: 001500              	beq	103506			; @.
103306: 001532              	beq	103574			; Z.
103310: 001562              	beq	103656			; r.
103312: 001612              	beq	102740			; ..
103314: 001642              	beq	103022			; ".
103316: 001672              	beq	103104			; :.
103320: 001722              	beq	103166			; R.
103322: 001752              	beq	103250			; j.
103324: 002002              	bge	103332			; ..
103326: 002032              	bge	103414			; ..
103330: 002062              	bge	103476			; 2.
103332: 002112              	bge	103560			; J.
103334: 036243 153412       	bit	153412(r2),-(r3)	; #<.W
103340: 002260              	bge	103102			; 0.
103342: 002260              	bge	103104			; 0.
103344: 002260              	bge	103106			; 0.
103346: 002260              	bge	103110			; 0.
103350: 002260              	bge	103112			; 0.
103352: 043434              	bic	@(r4)+,@(r4)+		; .G
103354: 040000              	bic	r0,r0			; .@
103356: 000000              	halt				; ..
103360: 000000              	halt				; ..
103362: 000000              	halt				; ..
;
103364: 044440              	bic	-(r4),-(r0)		;  I
103366: 073156              	ashc	@-(r6),r1		; nv
103370: 066141 062151       	add	62151(r1),-(r1)		; alid
103374: 067440 072160       	add	@72160(r4),-(r0)	;  opt
103400: 067551 020156       	add	@20156(r5),@-(r1)	; ion 
103404: 067105 062564       	add	@62564(r1),r5		; Ente
103410: 020162 064164       	cmp	r1,64164(r2)		; r th
103414: 020145              	cmp	r1,-(r5)		; e 
103416: 062556              	add	(r5)+,@-(r6)		; ne
103420: 020167 060566       	cmp	r1,164212		; w va
103424: 072554              	ash	@-(r4),r5		; lu
103426: 035145              	bit	@-(r1),-(r5)		; e:
103430: 035440              	bit	@-(r4),-(r0)		;  ;
103432: 064124              	add	-(r1),(r4)+		; Th
103434: 020145              	cmp	r1,-(r5)		; e 
103436: 062556              	add	(r5)+,@-(r6)		; ne
103440: 020167 060566       	cmp	r1,164232		; w va
103444: 072554              	ash	@-(r4),r5		; lu
103446: 020145              	cmp	r1,-(r5)		; e 
103450: 071551              	div	@-(r1),r5		; is
103452: 035440              	bit	@-(r4),-(r0)		;  ;
103454: 071511              	div	(r1),r5			; Is
103456: 072040              	ash	-(r0),r0		;  t
103460: 064550              	add	-(r5),@-(r0)		; hi
103462: 020163 067543       	cmp	r1,67543(r3)		; s co
103466: 071162 061545       	div	61545(r2),r1		; rrec
103472: 037564 035440 064103	bit	@35440(r5),64103(r4)	; t? ;Ch
103500: 067141 062547       	add	@62547(r1),-(r1)	; ange
103504: 067440 062560       	add	@62560(r4),-(r0)	;  ope
103510: 060562 064564       	add	r5,64564(r2)		; rati
103514: 067157 063040       	add	@63040(r1),@-(r7)	; on f
103520: 064541              	add	-(r5),-(r1)		; ai
103522: 062554              	add	(r5)+,@-(r4)		; le
103524: 035544              	bit	@-(r5),-(r4)		; d;
103526: 062440              	add	(r4)+,-(r0)		;  e
103530: 071162 071157       	div	71157(r2),r1		; rror
103534: 061440              	add	(r4),-(r0)		;  c
103536: 062157              	add	(r1)+,@-(r7)		; od
103540: 020145              	cmp	r1,-(r5)		; e 
103542: 030455              	bit	r4,@-(r5)		; -1
103544: 024040              	cmp	-(r0),-(r0)		;  (
103546: 060502              	add	r5,r2			; Ba
103550: 020144              	cmp	r1,-(r4)		; d 
103552: 067151 062564       	add	@62564(r1),@-(r1)	; inte
103556: 062547              	add	(r5)+,-(r7)		; ge
103560: 020162 060566       	cmp	r1,60566(r2)		; r va
103564: 072554              	ash	@-(r4),r5		; lu
103566: 024545              	cmp	-(r5),-(r5)		; e)
103570: 064103              	add	-(r1),r3		; Ch
103572: 067141 062547       	add	@62547(r1),-(r1)	; ange
103576: 067440 062560       	add	@62560(r4),-(r0)	;  ope
103602: 060562 064564       	add	r5,64564(r2)		; rati
103606: 067157 063040       	add	@63040(r1),@-(r7)	; on f
103612: 064541              	add	-(r5),-(r1)		; ai
103614: 062554              	add	(r5)+,@-(r4)		; le
103616: 035544              	bit	@-(r5),-(r4)		; d;
103620: 062440              	add	(r4)+,-(r0)		;  e
103622: 071162 071157       	div	71157(r2),r1		; rror
103626: 061440              	add	(r4),-(r0)		;  c
103630: 062157              	add	(r1)+,@-(r7)		; od
103632: 020145              	cmp	r1,-(r5)		; e 
103634: 031055              	bit	(r0),@-(r5)		; -2
103636: 024040              	cmp	-(r0),-(r0)		;  (
103640: 060502              	add	r5,r2			; Ba
103642: 020144              	cmp	r1,-(r4)		; d 
103644: 062562 066141       	add	(r5)+,66141(r2)		; real
103650: 067040 066565       	add	@66565(r0),-(r0)	;  num
103654: 062542              	add	(r5)+,-(r2)		; be
103656: 020162 060566       	cmp	r1,60566(r2)		; r va
103662: 072554              	ash	@-(r4),r5		; lu
103664: 024545              	cmp	-(r5),-(r5)		; e)
103666: 064103              	add	-(r1),r3		; Ch
103670: 067141 062547       	add	@62547(r1),-(r1)	; ange
103674: 067440 062560       	add	@62560(r4),-(r0)	;  ope
103700: 060562 064564       	add	r5,64564(r2)		; rati
103704: 067157 063040       	add	@63040(r1),@-(r7)	; on f
103710: 064541              	add	-(r5),-(r1)		; ai
103712: 062554              	add	(r5)+,@-(r4)		; le
103714: 035544              	bit	@-(r5),-(r4)		; d;
103716: 062440              	add	(r4)+,-(r0)		;  e
103720: 071162 071157       	div	71157(r2),r1		; rror
103724: 061440              	add	(r4),-(r0)		;  c
103726: 062157              	add	(r1)+,@-(r7)		; od
103730: 020145              	cmp	r1,-(r5)		; e 
103732: 031455              	bit	(r4),@-(r5)		; -3
103734: 024040              	cmp	-(r0),-(r0)		;  (
103736: 067111 060566       	add	@60566(r1),(r1)		; Inva
103742: 064554              	add	-(r5),@-(r4)		; li
103744: 020144              	cmp	r1,-(r4)		; d 
103746: 062571 027563       	add	(r5)+,@27563(r1)	; yes/
103752: 067556 060440       	add	@60440(r5),@-(r6)	; no a
103756: 071556              	div	@-(r6),r5		; ns
103760: 062567 024562       	add	(r5)+,130546		; wer)
103764: 064103              	add	-(r1),r3		; Ch
103766: 067141 062547       	add	@62547(r1),-(r1)	; ange
103772: 067440 062560       	add	@62560(r4),-(r0)	;  ope
103776: 060562 064564       	add	r5,64564(r2)		; rati
104002: 067157 063040       	add	@63040(r1),@-(r7)	; on f
104006: 064541              	add	-(r5),-(r1)		; ai
104010: 062554              	add	(r5)+,@-(r4)		; le
104012: 035544              	bit	@-(r5),-(r4)		; d;
104014: 062440              	add	(r4)+,-(r0)		;  e
104016: 071162 071157       	div	71157(r2),r1		; rror
104022: 061440              	add	(r4),-(r0)		;  c
104024: 062157              	add	(r1)+,@-(r7)		; od
104026: 020145              	cmp	r1,-(r5)		; e 
104030: 032055              	bit	(r0)+,@-(r5)		; -4
104032: 024040              	cmp	-(r0),-(r0)		;  (
104034: 060502              	add	r5,r2			; Ba
104036: 020144              	cmp	r1,-(r4)		; d 
104040: 062550              	add	(r5)+,@-(r0)		; he
104042: 060570 062544       	add	r5,@62544(r0)		; xade
104046: 064543              	add	-(r5),-(r3)		; ci
104050: 060555              	add	r5,@-(r5)		; ma
104052: 020154              	cmp	r1,@-(r4)		; l 
104054: 067151 062564       	add	@62564(r1),@-(r1)	; inte
104060: 062547              	add	(r5)+,-(r7)		; ge
104062: 024562 064103       	cmp	-(r5),64103(r2)		; r)Ch
104066: 067141 062547       	add	@62547(r1),-(r1)	; ange
104072: 067440 062560       	add	@62560(r4),-(r0)	;  ope
104076: 060562 064564       	add	r5,64564(r2)		; rati
104102: 067157 063040       	add	@63040(r1),@-(r7)	; on f
104106: 064541              	add	-(r5),-(r1)		; ai
104110: 062554              	add	(r5)+,@-(r4)		; le
104112: 035544              	bit	@-(r5),-(r4)		; d;
104114: 062440              	add	(r4)+,-(r0)		;  e
104116: 071162 071157       	div	71157(r2),r1		; rror
104122: 061440              	add	(r4),-(r0)		;  c
104124: 062157              	add	(r1)+,@-(r7)		; od
104126: 020145              	cmp	r1,-(r5)		; e 
104130: 032455              	bit	(r4)+,@-(r5)		; -5
104132: 024040              	cmp	-(r0),-(r0)		;  (
104134: 060502              	add	r5,r2			; Ba
104136: 020144              	cmp	r1,-(r4)		; d 
104140: 062550              	add	(r5)+,@-(r0)		; he
104142: 060570 062544       	add	r5,@62544(r0)		; xade
104146: 064543              	add	-(r5),-(r3)		; ci
104150: 060555              	add	r5,@-(r5)		; ma
104152: 020154              	cmp	r1,@-(r4)		; l 
104154: 062562 066141       	add	(r5)+,66141(r2)		; real
104160: 067040 027157       	add	@27157(r0),-(r0)	;  no.
104164: 035451              	bit	@-(r4),@-(r1)		; );
104166: 020040              	cmp	r0,-(r0)		;   
104170: 053040              	bis	@(r0)+,-(r0)		;  V
104172: 066141 062565       	add	62565(r1),-(r1)		; alue
104176: 036440 035440       	bit	35440(r4),-(r0)		;  = ;
104202: 064103              	add	-(r1),r3		; Ch
104204: 067141 062547       	add	@62547(r1),-(r1)	; ange
104210: 067440 062560       	add	@62560(r4),-(r0)	;  ope
104214: 060562 064564       	add	r5,64564(r2)		; rati
104220: 067157 063040       	add	@63040(r1),@-(r7)	; on f
104224: 064541              	add	-(r5),-(r1)		; ai
104226: 062554              	add	(r5)+,@-(r4)		; le
104230: 035544              	bit	@-(r5),-(r4)		; d;
104232: 062440              	add	(r4)+,-(r0)		;  e
104234: 071162 071157       	div	71157(r2),r1		; rror
104240: 061440              	add	(r4),-(r0)		;  c
104242: 062157              	add	(r1)+,@-(r7)		; od
104244: 020145              	cmp	r1,-(r5)		; e 
104246: 033055              	bit	@(r0)+,@-(r5)		; -6
104250: 024040              	cmp	-(r0),-(r0)		;  (
104252: 067111 062544       	add	@62544(r1),(r1)		; Inde
104256: 062564 066562       	add	(r5)+,66562(r4)		; term
104262: 067151 072141       	add	@72141(r1),@-(r1)	; inat
104266: 020145              	cmp	r1,-(r5)		; e 
104270: 071160 061157       	div	61157(r0),r1		; prob
104274: 062554              	add	(r5)+,@-(r4)		; le
104276: 035555              	bit	@-(r5),@-(r5)		; m;
104300: 061440              	add	(r4),-(r0)		;  c
104302: 066141 020154       	add	20154(r1),-(r1)		; all 
104306: 050103              	bis	r1,r3			; CP
104310: 024503              	cmp	-(r5),r3		; C)
104312: 064103              	add	-(r1),r3		; Ch
104314: 067141 062547       	add	@62547(r1),-(r1)	; ange
104320: 067440 062560       	add	@62560(r4),-(r0)	;  ope
104324: 060562 064564       	add	r5,64564(r2)		; rati
104330: 067157 071440       	add	@71440(r1),@-(r7)	; on s
104334: 061565 062543       	add	(r5),62543(r5)		; ucce
104340: 062145              	add	(r1)+,-(r5)		; ed
104342: 062145              	add	(r1)+,-(r5)		; ed
104344: 064103              	add	-(r1),r3		; Ch
104346: 067141 062547       	add	@62547(r1),-(r1)	; ange
104352: 067440 062560       	add	@62560(r4),-(r0)	;  ope
104356: 060562 064564       	add	r5,64564(r2)		; rati
104362: 067157 063040       	add	@63040(r1),@-(r7)	; on f
104366: 064541              	add	-(r5),-(r1)		; ai
104370: 062554              	add	(r5)+,@-(r4)		; le
104372: 035544              	bit	@-(r5),-(r4)		; d;
104374: 062440              	add	(r4)+,-(r0)		;  e
104376: 071162 071157       	div	71157(r2),r1		; rror
104402: 061440              	add	(r4),-(r0)		;  c
104404: 062157              	add	(r1)+,@-(r7)		; od
104406: 020145              	cmp	r1,-(r5)		; e 
104410: 034055              	bit	-(r0),@-(r5)		; -8
104412: 024040              	cmp	-(r0),-(r0)		;  (
104414: 070125              	mul	(r5)+,r1		; Up
104416: 060544              	add	r5,-(r4)		; da
104420: 062564 071040       	add	(r5)+,71040(r4)		; te r
104424: 072141              	ash	-(r1),r1		; at
104426: 020145              	cmp	r1,-(r5)		; e 
104430: 067564 020157 060554	add	@20157(r5),60554(r4)	; too la
104436: 063562 024545       	add	@(r5)+,24545(r2)	; rge)
104442: 064103              	add	-(r1),r3		; Ch
104444: 067141 062547       	add	@62547(r1),-(r1)	; ange
104450: 067440 062560       	add	@62560(r4),-(r0)	;  ope
104454: 060562 064564       	add	r5,64564(r2)		; rati
104460: 067157 060440       	add	@60440(r1),@-(r7)	; on a
104464: 067542 072162       	add	@72162(r5),-(r2)	; bort
104470: 062145              	add	(r1)+,-(r5)		; ed
104472: 061040              	add	(r0),-(r0)		;  b
104474: 020171 052103       	cmp	r1,@52103(r1)		; y CT
104500: 046122 055040       	bic	55040(r1),(r2)+		; RL Z
104504: 020073 067556       	cmp	r0,@67556(r3)		; ; no
104510: 061440              	add	(r4),-(r0)		;  c
104512: 060550              	add	r5,@-(r0)		; ha
104514: 063556              	add	@(r5)+,@-(r6)		; ng
104516: 020145              	cmp	r1,-(r5)		; e 
104520: 060555              	add	r5,@-(r5)		; ma
104522: 062544              	add	(r5)+,-(r4)		; de
104524: 067105 062564       	add	@62564(r1),r5		; Ente
104530: 020162 064164       	cmp	r1,64164(r2)		; r th
104534: 020145              	cmp	r1,-(r5)		; e 
104536: 062556              	add	(r5)+,@-(r6)		; ne
104540: 020167 060566       	cmp	r1,165332		; w va
104544: 072554              	ash	@-(r4),r5		; lu
104546: 020145              	cmp	r1,-(r5)		; e 
104550: 064450              	add	-(r4),@-(r0)		; (i
104552: 020156              	cmp	r1,@-(r6)		; n 
104554: 062550              	add	(r5)+,@-(r0)		; he
104556: 060570 062544       	add	r5,@62544(r0)		; xade
104562: 064543              	add	-(r5),-(r3)		; ci
104564: 060555              	add	r5,@-(r5)		; ma
104566: 024554              	cmp	-(r5),@-(r4)		; l)
104570: 020072 064124       	cmp	r0,@64124(r2)		; : Th
104574: 020145              	cmp	r1,-(r5)		; e 
104576: 062556              	add	(r5)+,@-(r6)		; ne
104600: 020167 060566       	cmp	r1,165372		; w va
104604: 072554              	ash	@-(r4),r5		; lu
104606: 020145              	cmp	r1,-(r5)		; e 
104610: 071551              	div	@-(r1),r5		; is
104612: 035440              	bit	@-(r4),-(r0)		;  ;
104614: 071511              	div	(r1),r5			; Is
104616: 072040              	ash	-(r0),r0		;  t
104620: 064550              	add	-(r5),@-(r0)		; hi
104622: 020163 067543       	cmp	r1,67543(r3)		; s co
104626: 071162 061545       	div	61545(r2),r1		; rrec
104632: 037564 035440 062510	bit	@35440(r5),62510(r4)	; t? ;He
104640: 060570 062544       	add	r5,@62544(r0)		; xade
104644: 064543              	add	-(r5),-(r3)		; ci
104646: 060555              	add	r5,@-(r5)		; ma
104650: 020154              	cmp	r1,@-(r4)		; l 
104652: 067564 062040 061545	add	@62040(r5),61545(r4)	; to dec
104660: 066551 066141       	add	66141(r5),@-(r1)	; imal
104664: 061440              	add	(r4),-(r0)		;  c
104666: 067157 062566       	add	@62566(r1),@-(r7)	; onve
104672: 071562 067551       	div	67551(r2),r5		; rsio
104676: 020156              	cmp	r1,@-(r6)		; n 
104700: 071145              	div	-(r5),r1		; er
104702: 067562 035562 047040	add	@35562(r5),47040(r2)	; ror; N
104710: 066565 062542 020162	add	62542(r5),20162(r5)	; umber 
104716: 020075 067105       	cmp	r0,@67105(r5)		; = En
104722: 062564 020162       	add	(r5)+,20162(r4)		; ter 
104726: 064164 020145       	add	-(r1),20145(r4)		; the 
104732: 062556              	add	(r5)+,@-(r6)		; ne
104734: 020167 060566       	cmp	r1,165526		; w va
104740: 072554              	ash	@-(r4),r5		; lu
104742: 035145              	bit	@-(r1),-(r5)		; e:
104744: 035440              	bit	@-(r4),-(r0)		;  ;
104746: 064124              	add	-(r1),(r4)+		; Th
104750: 020145              	cmp	r1,-(r5)		; e 
104752: 062556              	add	(r5)+,@-(r6)		; ne
104754: 020167 060566       	cmp	r1,165546		; w va
104760: 072554              	ash	@-(r4),r5		; lu
104762: 020145              	cmp	r1,-(r5)		; e 
104764: 071551              	div	@-(r1),r5		; is
104766: 035440              	bit	@-(r4),-(r0)		;  ;
104770: 071511              	div	(r1),r5			; Is
104772: 072040              	ash	-(r0),r0		;  t
104774: 064550              	add	-(r5),@-(r0)		; hi
104776: 020163 067543       	cmp	r1,67543(r3)		; s co
105002: 071162 061545       	div	61545(r2),r1		; rrec
105006: 037564 035440 066111	bit	@35440(r5),66111(r4)	; t? ;Il
105014: 062554              	add	(r5)+,@-(r4)		; le
105016: 060547              	add	r5,-(r7)		; ga
105020: 020154              	cmp	r1,@-(r4)		; l 
105022: 066141 064160       	add	64160(r1),-(r1)		; alph
105026: 067141 066565       	add	@66565(r1),-(r1)	; anum
105032: 071145              	div	-(r5),r1		; er
105034: 061551              	add	(r5),@-(r1)		; ic
105036: 061440              	add	(r4),-(r0)		;  c
105040: 060550              	add	r5,@-(r0)		; ha
105042: 060562 072143       	add	r5,72143(r2)		; ract
105046: 071145              	div	-(r5),r1		; er
105050: 062040              	add	(r0)+,-(r0)		;  d
105052: 072145              	ash	-(r5),r1		; et
105054: 061545              	add	(r5),-(r5)		; ec
105056: 062564 035544       	add	(r5)+,35544(r4)		; ted;
105062: 072040              	ash	-(r0),r0		;  t
105064: 074562 060440       	xor	60440(r2),r5		; ry a
105070: 060547              	add	r5,-(r7)		; ga
105072: 067151 027056       	add	@27056(r1),@-(r1)	; in..
105076: 035456              	bit	@-(r4),@-(r6)		; .;
105100: 067105 062564       	add	@62564(r1),r5		; Ente
105104: 020162 064164       	cmp	r1,64164(r2)		; r th
105110: 020145              	cmp	r1,-(r5)		; e 
105112: 062556              	add	(r5)+,@-(r6)		; ne
105114: 020167 060566       	cmp	r1,165706		; w va
105120: 072554              	ash	@-(r4),r5		; lu
105122: 020145              	cmp	r1,-(r5)		; e 
105124: 044450              	bic	-(r4),@-(r0)		; (I
105126: 041516              	bic	(r5),(r6)		; NC
105130: 052514              	bis	(r5)+,(r4)		; LU
105132: 042504              	bic	(r5)+,r4		; DE
105134: 052040              	bis	(r0)+,-(r0)		;  T
105136: 042510              	bic	(r5)+,(r0)		; HE
105140: 042040              	bic	(r0)+,-(r0)		;  D
105142: 041505              	bic	(r5),r5			; EC
105144: 046511 046101       	bic	46101(r5),(r1)		; IMAL
105150: 050040              	bis	r0,-(r0)		;  P
105152: 044517              	bic	-(r5),(r7)		; OI
105154: 052116              	bis	(r1)+,(r6)		; NT
105156: 035051              	bit	@-(r0),@-(r1)		; ):
105160: 035440              	bit	@-(r4),-(r0)		;  ;
105162: 064124              	add	-(r1),(r4)+		; Th
105164: 020145              	cmp	r1,-(r5)		; e 
105166: 062556              	add	(r5)+,@-(r6)		; ne
105170: 020167 060566       	cmp	r1,165762		; w va
105174: 072554              	ash	@-(r4),r5		; lu
105176: 020145              	cmp	r1,-(r5)		; e 
105200: 071551              	div	@-(r1),r5		; is
105202: 035440              	bit	@-(r4),-(r0)		;  ;
105204: 071511              	div	(r1),r5			; Is
105206: 072040              	ash	-(r0),r0		;  t
105210: 064550              	add	-(r5),@-(r0)		; hi
105212: 020163 067543       	cmp	r1,67543(r3)		; s co
105216: 071162 061545       	div	61545(r2),r1		; rrec
105222: 037564 035440 066111	bit	@35440(r5),66111(r4)	; t? ;Il
105230: 062554              	add	(r5)+,@-(r4)		; le
105232: 060547              	add	r5,-(r7)		; ga
105234: 020154              	cmp	r1,@-(r4)		; l 
105236: 066141 064160       	add	64160(r1),-(r1)		; alph
105242: 067141 066565       	add	@66565(r1),-(r1)	; anum
105246: 071145              	div	-(r5),r1		; er
105250: 061551              	add	(r5),@-(r1)		; ic
105252: 061440              	add	(r4),-(r0)		;  c
105254: 060550              	add	r5,@-(r0)		; ha
105256: 060562 072143       	add	r5,72143(r2)		; ract
105262: 071145              	div	-(r5),r1		; er
105264: 062040              	add	(r0)+,-(r0)		;  d
105266: 072145              	ash	-(r5),r1		; et
105270: 061545              	add	(r5),-(r5)		; ec
105272: 062564 035544       	add	(r5)+,35544(r4)		; ted;
105276: 072040              	ash	-(r0),r0		;  t
105300: 074562 060440       	xor	60440(r2),r5		; ry a
105304: 060547              	add	r5,-(r7)		; ga
105306: 067151 027056       	add	@27056(r1),@-(r1)	; in..
105312: 035456              	bit	@-(r4),@-(r6)		; .;
105314: 072516              	ash	(r6),r5			; Nu
105316: 061155              	add	(r1),@-(r5)		; mb
105320: 071145              	div	-(r5),r1		; er
105322: 064440              	add	-(r4),-(r0)		;  i
105324: 020163 067564       	cmp	r1,67564(r3)		; s to
105330: 020157              	cmp	r1,@-(r7)		; o 
105332: 060554              	add	r5,@-(r4)		; la
105334: 063562 027145       	add	@(r5)+,27145(r2)	; rge.
105340: 027056 071040       	cmp	@71040(r0),@-(r6)	; .. r
105344: 026545 067145       	cmp	67145(r5),-(r5)		; e-en
105350: 062564 035562       	add	(r5)+,35562(r4)		; ter;
105354: 042522              	bic	(r5)+,(r2)+		; RE
105356: 044524              	bic	-(r5),(r4)+		; TI
105360: 047503 020116       	bic	@20116(r5),r3		; CON 
105364: 044527 052104       	bic	-(r5),#52104		; WIDT
105370: 020110              	cmp	r1,(r0)			; H 
105372: 040507              	bic	r5,r7			; GA
105374: 043525              	bic	@(r5)+,(r5)+		; UG
105376: 035505              	bit	@-(r5),r5		; E;
105400: 040503              	bic	r5,r3			; CA
105402: 044514              	bic	-(r5),(r4)		; LI
105404: 051102              	bis	(r1),r2			; BR
105406: 052101              	bis	(r1)+,r1		; AT
105410: 047511 020116       	bic	@20116(r5),(r1)		; ION 
105414: 040520              	bic	r5,(r0)+		; PA
105416: 040522              	bic	r5,(r2)+		; RA
105420: 042515              	bic	(r5)+,(r5)		; ME
105422: 042524              	bic	(r5)+,(r4)+		; TE
105424: 051522              	bis	(r5),(r2)+		; RS
105426: 026440 051440       	cmp	51440(r4),-(r0)		;  - S
105432: 052105              	bis	(r1)+,r5		; ET
105434: 050125              	bis	r1,(r5)+		; UP
105436: 042057              	bic	(r0)+,@-(r7)		; /D
105440: 051511              	bis	(r5),(r1)		; IS
105442: 046120 054501       	bic	54501(r1),(r0)+		; PLAY
105446: 047105 042524       	bic	@42524(r1),r5		; ENTE
105452: 035122              	bit	@-(r1),(r2)+		; R:
105454: 020040              	cmp	r0,-(r0)		;   
105456: 020040              	cmp	r0,-(r0)		;   
105460: 047524 035472       	bic	@35472(r5),(r4)+	; TO:;
105464: 026455 026455       	cmp	26455(r4),@-(r5)	; ----
105470: 026455 026455       	cmp	26455(r4),@-(r5)	; ----
105474: 026455 026455       	cmp	26455(r4),@-(r5)	; ----
105500: 026455 026455       	cmp	26455(r4),@-(r5)	; ----
105504: 026455 026455       	cmp	26455(r4),@-(r5)	; ----
105510: 026455 026455       	cmp	26455(r4),@-(r5)	; ----
105514: 026455 026455       	cmp	26455(r4),@-(r5)	; ----
105520: 026455 026455       	cmp	26455(r4),@-(r5)	; ----
105524: 026455 026455       	cmp	26455(r4),@-(r5)	; ----
105530: 026455 026455       	cmp	26455(r4),@-(r5)	; ----
105534: 026455 026455       	cmp	26455(r4),@-(r5)	; ----
105540: 026455 026455       	cmp	26455(r4),@-(r5)	; ----
105544: 020060 020040       	cmp	r0,20040(r0)		; 0   
105550: 020040              	cmp	r0,-(r0)		;   
105552: 020040              	cmp	r0,-(r0)		;   
105554: 054105              	bis	-(r1),r5		; EX
105556: 052111              	bis	(r1)+,(r1)		; IT
105560: 052040              	bis	(r0)+,-(r0)		;  T
105562: 042510              	bic	(r5)+,(r0)		; HE
105564: 050040              	bis	r0,-(r0)		;  P
105566: 047522 051107       	bic	@51107(r5),(r2)+	; ROGR
105572: 046501 020061       	bic	20061(r5),r1		; AM1 
105576: 020040              	cmp	r0,-(r0)		;   
105600: 020040              	cmp	r0,-(r0)		;   
105602: 020040              	cmp	r0,-(r0)		;   
105604: 064504              	add	-(r5),r4		; Di
105606: 070163 060554       	mul	60554(r3),r1		; spla
105612: 020171 066101       	cmp	r1,@66101(r1)		; y Al
105616: 020154              	cmp	r1,@-(r4)		; l 
105620: 072503              	ash	r3,r5			; Cu
105622: 071162 067145       	div	67145(r2),r1		; rren
105626: 020164 060520       	cmp	r1,60520(r4)		; t Pa
105632: 060562 062555       	add	r5,62555(r2)		; rame
105636: 062564 020162       	add	(r5)+,20162(r4)		; ter 
105642: 060526              	add	r5,(r6)+		; Va
105644: 072554              	ash	@-(r4),r5		; lu
105646: 071545              	div	-(r5),r5		; es
105650: 020062 020040       	cmp	r0,20040(r2)		; 2   
105654: 020040              	cmp	r0,-(r0)		;   
105656: 020040              	cmp	r0,-(r0)		;   
105660: 064504              	add	-(r5),r4		; Di
105662: 070163 060554       	mul	60554(r3),r1		; spla
105666: 020171 060522       	cmp	r1,@60522(r1)		; y Ra
105672: 020167 060503       	cmp	r1,166401		; w Ca
105676: 062555              	add	(r5)+,@-(r5)		; me
105700: 060562 041440       	add	r5,41440(r2)		; ra C
105704: 072557              	ash	@-(r7),r5		; ou
105706: 072156              	ash	@-(r6),r1		; nt
105710: 035563 020063       	bit	@-(r5),20063(r3)	; s;3 
105714: 020040              	cmp	r0,-(r0)		;   
105716: 020040              	cmp	r0,-(r0)		;   
105720: 020040              	cmp	r0,-(r0)		;   
105722: 064103              	add	-(r1),r3		; Ch
105724: 067141 062547       	add	@62547(r1),-(r1)	; ange
105730: 062040              	add	(r0)+,-(r0)		;  d
105732: 067551 062544       	add	@62544(r5),@-(r1)	; iode
105736: 061440              	add	(r4),-(r0)		;  c
105740: 072557              	ash	@-(r7),r5		; ou
105742: 072156              	ash	@-(r6),r1		; nt
105744: 020163 062560       	cmp	r1,62560(r3)		; s pe
105750: 020162 060543       	cmp	r1,60543(r2)		; r ca
105754: 062555              	add	(r5)+,@-(r5)		; me
105756: 060562 020064       	add	r5,20064(r2)		; ra4 
105762: 020040              	cmp	r0,-(r0)		;   
105764: 020040              	cmp	r0,-(r0)		;   
105766: 020040              	cmp	r0,-(r0)		;   
105770: 064103              	add	-(r1),r3		; Ch
105772: 067141 062547       	add	@62547(r1),-(r1)	; ange
105776: 067440 063146       	add	@63146(r4),-(r0)	;  off
106002: 062563 035564       	add	(r5)+,35564(r3)		; set;
106006: 020065 020040       	cmp	r0,20040(r5)		; 5   
106012: 020040              	cmp	r0,-(r0)		;   
106014: 020040              	cmp	r0,-(r0)		;   
106016: 064103              	add	-(r1),r3		; Ch
106020: 067141 062547       	add	@62547(r1),-(r1)	; ange
106024: 071040              	div	-(r0),r0		;  r
106026: 071545              	div	-(r5),r5		; es
106030: 066157 072165       	add	72165(r1),@-(r7)	; olut
106034: 067551 035556       	add	@35556(r5),@-(r1)	; ion;
106040: 020066 020040       	cmp	r0,20040(r6)		; 6   
106044: 020040              	cmp	r0,-(r0)		;   
106046: 020040              	cmp	r0,-(r0)		;   
106050: 064103              	add	-(r1),r3		; Ch
106052: 067141 062547       	add	@62547(r1),-(r1)	; ange
106056: 061440              	add	(r4),-(r0)		;  c
106060: 066141 061151       	add	61151(r1),-(r1)		; alib
106064: 060562 064564       	add	r5,64564(r2)		; rati
106070: 067157 066440       	add	@66440(r1),@-(r7)	; on m
106074: 071141              	div	-(r1),r1		; ar
106076: 020153              	cmp	r1,@-(r3)		; k 
106100: 067564 062554 060562	add	@62554(r5),60562(r4)	; tolera
106106: 061556              	add	(r5),@-(r6)		; nc
106110: 035545              	bit	@-(r5),-(r5)		; e;
106112: 020067 020040       	cmp	r0,126156		; 7   
106116: 020040              	cmp	r0,-(r0)		;   
106120: 020040              	cmp	r0,-(r0)		;   
106122: 064103              	add	-(r1),r3		; Ch
106124: 067141 062547       	add	@62547(r1),-(r1)	; ange
106130: 071040              	div	-(r0),r0		;  r
106132: 060545              	add	r5,-(r5)		; ea
106134: 064544              	add	-(r5),-(r4)		; di
106136: 063556              	add	@(r5)+,@-(r6)		; ng
106140: 020163 062560       	cmp	r1,62560(r3)		; s pe
106144: 020162 064544       	cmp	r1,64544(r2)		; r di
106150: 070163 060554       	mul	60554(r3),r1		; spla
106154: 062571 020144       	add	(r5)+,@20144(r1)	; yed 
106160: 064567 072144       	add	-(r5),330		; widt
106164: 035550              	bit	@-(r5),@-(r0)		; h;
106166: 020070 020040       	cmp	r0,@20040(r0)		; 8   
106172: 020040              	cmp	r0,-(r0)		;   
106174: 020040              	cmp	r0,-(r0)		;   
106176: 064103              	add	-(r1),r3		; Ch
106200: 067141 062547       	add	@62547(r1),-(r1)	; ange
106204: 066440 074141       	add	74141(r4),-(r0)		;  max
106210: 066551 066565       	add	66565(r5),@-(r1)	; imum
106214: 066457 067151       	add	67151(r4),@-(r7)	; /min
106220: 066551 066565       	add	66565(r5),@-(r1)	; imum
106224: 073440              	ashc	-(r0),r4		;  w
106226: 062151              	add	(r1)+,@-(r1)		; id
106230: 064164 035563       	add	-(r1),35563(r4)		; ths;
106234: 020071 020040       	cmp	r0,@20040(r1)		; 9   
106240: 020040              	cmp	r0,-(r0)		;   
106242: 020040              	cmp	r0,-(r0)		;   
106244: 064103              	add	-(r1),r3		; Ch
106246: 067141 062547       	add	@62547(r1),-(r1)	; ange
106252: 071040              	div	-(r0),r0		;  r
106254: 066545 072157       	add	72157(r5),-(r5)		; emot
106260: 020145              	cmp	r1,-(r5)		; e 
106262: 064544              	add	-(r5),-(r4)		; di
106264: 070163 060554       	mul	60554(r3),r1		; spla
106270: 020171 067165       	cmp	r1,@67165(r1)		; y un
106274: 072151              	ash	@-(r1),r1		; it
106276: 072440              	ash	-(r0),r4		;  u
106300: 062160 072141       	add	(r1)+,72141(r0)		; pdat
106304: 020145              	cmp	r1,-(r5)		; e 
106306: 060562 062564       	add	r5,62564(r2)		; rate
106312: 030061 020040       	bit	r0,20040(r1)		; 10  
106316: 020040              	cmp	r0,-(r0)		;   
106320: 020040              	cmp	r0,-(r0)		;   
106322: 051440              	bis	(r4),-(r0)		;  S
106324: 066145 061545       	add	61545(r1),-(r5)		; elec
106330: 027564 062544 062563	cmp	@62544(r5),62563(r4)	; t/dese
106336: 062554              	add	(r5)+,@-(r4)		; le
106340: 072143              	ash	-(r3),r1		; ct
106342: 064040              	add	-(r0),-(r0)		;  h
106344: 072157              	ash	@-(r7),r1		; ot
106346: 072040              	ash	-(r0),r0		;  t
106350: 020157              	cmp	r1,@-(r7)		; o 
106352: 067543 062154       	add	@62154(r5),-(r3)	; cold
106356: 073440              	ashc	-(r0),r4		;  w
106360: 062151              	add	(r1)+,@-(r1)		; id
106362: 064164 061440       	add	-(r1),61440(r4)		; th c
106366: 067157 062566       	add	@62566(r1),@-(r7)	; onve
106372: 071562 067551       	div	67551(r2),r5		; rsio
106376: 035556              	bit	@-(r5),@-(r6)		; n;
106400: 030461 020040       	bit	r4,20040(r1)		; 11  
106404: 020040              	cmp	r0,-(r0)		;   
106406: 020040              	cmp	r0,-(r0)		;   
106410: 041440              	bic	(r4),-(r0)		;  C
106412: 060550              	add	r5,@-(r0)		; ha
106414: 063556              	add	@(r5)+,@-(r6)		; ng
106416: 020145              	cmp	r1,-(r5)		; e 
106420: 064567 072144       	add	-(r5),570		; widt
106424: 020150              	cmp	r1,@-(r0)		; h 
106426: 064163 064562       	add	-(r1),64562(r3)		; shri
106432: 065556              	add	@-(r5),@-(r6)		; nk
106434: 063541              	add	@(r5)+,-(r1)		; ag
106436: 020145              	cmp	r1,-(r5)		; e 
106440: 060546              	add	r5,-(r6)		; fa
106442: 072143              	ash	-(r3),r1		; ct
106444: 071157              	div	@-(r7),r1		; or
106446: 031061 020040       	bit	(r0),20040(r1)		; 12  
106452: 020040              	cmp	r0,-(r0)		;   
106454: 020040              	cmp	r0,-(r0)		;   
106456: 041440              	bic	(r4),-(r0)		;  C
106460: 060550              	add	r5,@-(r0)		; ha
106462: 063556              	add	@(r5)+,@-(r6)		; ng
106464: 020145              	cmp	r1,-(r5)		; e 
106466: 073141              	ashc	-(r1),r1		; av
106470: 071145              	div	-(r5),r1		; er
106472: 063541              	add	@(r5)+,-(r1)		; ag
106474: 020145              	cmp	r1,-(r5)		; e 
106476: 062564 070155       	add	(r5)+,70155(r4)		; temp
106502: 071145              	div	-(r5),r1		; er
106504: 072141              	ash	-(r1),r1		; at
106506: 071165 020145       	div	20145(r5),r1		; ure 
106512: 067546 020162       	add	@20162(r5),-(r6)	; for 
106516: 064163 064562       	add	-(r1),64562(r3)		; shri
106522: 065556              	add	@-(r5),@-(r6)		; nk
106524: 063541              	add	@(r5)+,-(r1)		; ag
106526: 035545              	bit	@-(r5),-(r5)		; e;
106530: 031461 020040       	bit	(r4),20040(r1)		; 13  
106534: 020040              	cmp	r0,-(r0)		;   
106536: 020040              	cmp	r0,-(r0)		;   
106540: 041440              	bic	(r4),-(r0)		;  C
106542: 060550              	add	r5,@-(r0)		; ha
106544: 063556              	add	@(r5)+,@-(r6)		; ng
106546: 020145              	cmp	r1,-(r5)		; e 
106550: 064567 072144       	add	-(r5),720		; widt
106554: 020150              	cmp	r1,@-(r0)		; h 
106556: 072557              	ash	@-(r7),r5		; ou
106560: 070164 072165       	mul	72165(r4),r1		; tput
106564: 063040              	add	@(r0)+,-(r0)		;  f
106566: 071157              	div	@-(r7),r1		; or
106570: 060555              	add	r5,@-(r5)		; ma
106572: 035564 044527       	bit	@-(r5),44527(r4)	; t;WI
106576: 052104              	bis	(r1)+,r4		; DT
106600: 020110              	cmp	r1,(r0)			; H 
106602: 040507              	bic	r5,r7			; GA
106604: 043525              	bic	@(r5)+,(r5)+		; UG
106606: 035505              	bit	@-(r5),r5		; E;
106610: 040503              	bic	r5,r3			; CA
106612: 044514              	bic	-(r5),(r4)		; LI
106614: 051102              	bis	(r1),r2			; BR
106616: 052101              	bis	(r1)+,r1		; AT
106620: 047511 020116       	bic	@20116(r5),(r1)		; ION 
106624: 040520              	bic	r5,(r0)+		; PA
106626: 040522              	bic	r5,(r2)+		; RA
106630: 042515              	bic	(r5)+,(r5)		; ME
106632: 042524              	bic	(r5)+,(r4)+		; TE
106634: 051522              	bis	(r5),(r2)+		; RS
106636: 026440 041440       	cmp	41440(r4),-(r0)		;  - C
106642: 051125              	bis	(r1),(r5)+		; UR
106644: 042522              	bic	(r5)+,(r2)+		; RE
106646: 052116              	bis	(r1)+,(r6)		; NT
106650: 053040              	bis	@(r0)+,-(r0)		;  V
106652: 046101 042525       	bic	42525(r1),r1		; ALUE
106656: 035523              	bit	@-(r5),(r3)+		; S;
106660: 040503              	bic	r5,r3			; CA
106662: 044514              	bic	-(r5),(r4)		; LI
106664: 051102              	bis	(r1),r2			; BR
106666: 052101              	bis	(r1)+,r1		; AT
106670: 047511 035116       	bic	@35116(r5),(r1)		; ION:
106674: 060515              	add	r5,(r5)			; Ma
106676: 064570 072555       	add	-(r5),@72555(r0)	; ximu
106702: 020155              	cmp	r1,@-(r5)		; m 
106704: 072556              	ash	@-(r6),r5		; nu
106706: 061155              	add	(r1),@-(r5)		; mb
106710: 071145              	div	-(r5),r1		; er
106712: 067440 020146       	add	@20146(r4),-(r0)	;  of 
106716: 062550              	add	(r5)+,@-(r0)		; he
106720: 060570 062544       	add	r5,@62544(r0)		; xade
106724: 064543              	add	-(r5),-(r3)		; ci
106726: 060555              	add	r5,@-(r5)		; ma
106730: 020154              	cmp	r1,@-(r4)		; l 
106732: 064544              	add	-(r5),-(r4)		; di
106734: 062157              	add	(r1)+,@-(r7)		; od
106736: 020145              	cmp	r1,-(r5)		; e 
106740: 067543 067165       	add	@67165(r5),-(r3)	; coun
106744: 071564 070040       	div	70040(r4),r5		; ts p
106750: 071145              	div	-(r5),r1		; er
106752: 061440              	add	(r4),-(r0)		;  c
106754: 066541 071145       	add	71145(r5),-(r1)		; amer
106760: 035541              	bit	@-(r5),-(r1)		; a;
106762: 063117              	add	@(r1)+,(r7)		; Of
106764: 071546              	div	-(r6),r5		; fs
106766: 072145              	ash	-(r5),r1		; et
106770: 024040              	cmp	-(r0),-(r0)		;  (
106772: 067151 064143       	add	@64143(r1),@-(r1)	; inch
106776: 071545              	div	-(r5),r5		; es
107000: 035451              	bit	@-(r4),@-(r1)		; );
107002: 062522              	add	(r5)+,(r2)+		; Re
107004: 067563 072554 064564	add	@72554(r5),64564(r3)	; soluti
107012: 067157 026440       	add	@26440(r1),@-(r7)	; on -
107016: 041440              	bic	(r4),-(r0)		;  C
107020: 066541 071145       	add	71145(r5),-(r1)		; amer
107024: 020141              	cmp	r1,-(r1)		; a 
107026: 020061 064050       	cmp	r0,64050(r1)		; 1 (h
107032: 074145              	xor	-(r5),r1		; ex
107034: 062141              	add	(r1)+,-(r1)		; ad
107036: 061545              	add	(r5),-(r5)		; ec
107040: 066551 066141       	add	66141(r5),@-(r1)	; imal
107044: 061440              	add	(r4),-(r0)		;  c
107046: 072557              	ash	@-(r7),r5		; ou
107050: 072156              	ash	@-(r6),r1		; nt
107052: 020163 062560       	cmp	r1,62560(r3)		; s pe
107056: 020162 030061       	cmp	r1,30061(r2)		; r 10
107062: 064440              	add	-(r4),-(r0)		;  i
107064: 061556              	add	(r5),@-(r6)		; nc
107066: 062550              	add	(r5)+,@-(r0)		; he
107070: 024563 020040       	cmp	-(r5),20040(r3)		; s)  
107074: 020040              	cmp	r0,-(r0)		;   
107076: 020040              	cmp	r0,-(r0)		;   
107100: 020040              	cmp	r0,-(r0)		;   
107102: 020040              	cmp	r0,-(r0)		;   
107104: 026440 041440       	cmp	41440(r4),-(r0)		;  - C
107110: 066541 071145       	add	71145(r5),-(r1)		; amer
107114: 020141              	cmp	r1,-(r1)		; a 
107116: 020062 064050       	cmp	r0,64050(r2)		; 2 (h
107122: 074145              	xor	-(r5),r1		; ex
107124: 062141              	add	(r1)+,-(r1)		; ad
107126: 061545              	add	(r5),-(r5)		; ec
107130: 066551 066141       	add	66141(r5),@-(r1)	; imal
107134: 061440              	add	(r4),-(r0)		;  c
107136: 072557              	ash	@-(r7),r5		; ou
107140: 072156              	ash	@-(r6),r1		; nt
107142: 020163 062560       	cmp	r1,62560(r3)		; s pe
107146: 020162 030061       	cmp	r1,30061(r2)		; r 10
107152: 064440              	add	-(r4),-(r0)		;  i
107154: 061556              	add	(r5),@-(r6)		; nc
107156: 062550              	add	(r5)+,@-(r0)		; he
107160: 024563 070125       	cmp	-(r5),70125(r3)		; s)Up
107164: 062560 020162       	add	(r5)+,20162(r0)		; per 
107170: 067564 062554 060562	add	@62554(r5),60562(r4)	; tolera
107176: 061556              	add	(r5),@-(r6)		; nc
107200: 020145              	cmp	r1,-(r5)		; e 
107202: 067546 020162       	add	@20162(r5),-(r6)	; for 
107206: 064544              	add	-(r5),-(r4)		; di
107210: 072163 067141       	ash	67141(r3),r1		; stan
107214: 062543              	add	(r5)+,-(r3)		; ce
107216: 061040              	add	(r0),-(r0)		;  b
107220: 072145              	ash	-(r5),r1		; et
107222: 062567 067145       	add	(r5)+,176373		; ween
107226: 066440 071141       	add	71141(r4),-(r0)		;  mar
107232: 071553              	div	@-(r3),r5		; ks
107234: 024040              	cmp	-(r0),-(r0)		;  (
107236: 067151 064143       	add	@64143(r1),@-(r1)	; inch
107242: 071545              	div	-(r5),r5		; es
107244: 035451              	bit	@-(r4),@-(r1)		; );
107246: 067514 062567       	add	@62567(r5),(r4)		; Lowe
107252: 020162 067564       	cmp	r1,67564(r2)		; r to
107256: 062554              	add	(r5)+,@-(r4)		; le
107260: 060562 061556       	add	r5,61556(r2)		; ranc
107264: 020145              	cmp	r1,-(r5)		; e 
107266: 067546 020162       	add	@20162(r5),-(r6)	; for 
107272: 064544              	add	-(r5),-(r4)		; di
107274: 072163 067141       	ash	67141(r3),r1		; stan
107300: 062543              	add	(r5)+,-(r3)		; ce
107302: 061040              	add	(r0),-(r0)		;  b
107304: 072145              	ash	-(r5),r1		; et
107306: 062567 067145       	add	(r5)+,176457		; ween
107312: 066440 071141       	add	71141(r4),-(r0)		;  mar
107316: 071553              	div	@-(r3),r5		; ks
107320: 024040              	cmp	-(r0),-(r0)		;  (
107322: 067151 064143       	add	@64143(r1),@-(r1)	; inch
107326: 071545              	div	-(r5),r5		; es
107330: 035451              	bit	@-(r4),@-(r1)		; );
107332: 072516              	ash	(r6),r5			; Nu
107334: 061155              	add	(r1),@-(r5)		; mb
107336: 071145              	div	-(r5),r1		; er
107340: 067440 020146       	add	@20146(r4),-(r0)	;  of 
107344: 062562 062141       	add	(r5)+,62141(r2)		; read
107350: 067151 071547       	add	@71547(r1),@-(r1)	; ings
107354: 070040              	mul	-(r0),r0		;  p
107356: 071145              	div	-(r5),r1		; er
107360: 062040              	add	(r0)+,-(r0)		;  d
107362: 071551              	div	@-(r1),r5		; is
107364: 066160 074541 062145	add	74541(r1),62145(r0)	; played
107372: 073440              	ashc	-(r0),r4		;  w
107374: 062151              	add	(r1)+,@-(r1)		; id
107376: 064164 060515       	add	-(r1),60515(r4)		; thMa
107402: 064570 072555       	add	-(r5),@72555(r0)	; ximu
107406: 020155              	cmp	r1,@-(r5)		; m 
107410: 062554              	add	(r5)+,@-(r4)		; le
107412: 064547              	add	-(r5),-(r7)		; gi
107414: 064564 060555       	add	-(r5),60555(r4)		; tima
107420: 062564 073440       	add	(r5)+,73440(r4)		; te w
107424: 062151              	add	(r1)+,@-(r1)		; id
107426: 064164 024040       	add	-(r1),24040(r4)		; th (
107432: 067151 064143       	add	@64143(r1),@-(r1)	; inch
107436: 071545              	div	-(r5),r5		; es
107440: 035451              	bit	@-(r4),@-(r1)		; );
107442: 064515              	add	-(r5),(r5)		; Mi
107444: 064556              	add	-(r5),@-(r6)		; ni
107446: 072555              	ash	@-(r5),r5		; mu
107450: 020155              	cmp	r1,@-(r5)		; m 
107452: 062554              	add	(r5)+,@-(r4)		; le
107454: 064547              	add	-(r5),-(r7)		; gi
107456: 064564 060555       	add	-(r5),60555(r4)		; tima
107462: 062564 073440       	add	(r5)+,73440(r4)		; te w
107466: 062151              	add	(r1)+,@-(r1)		; id
107470: 064164 024040       	add	-(r1),24040(r4)		; th (
107474: 067151 064143       	add	@64143(r1),@-(r1)	; inch
107500: 071545              	div	-(r5),r5		; es
107502: 035451              	bit	@-(r4),@-(r1)		; );
107504: 062522              	add	(r5)+,(r2)+		; Re
107506: 067555 062564       	add	@62564(r5),@-(r5)	; mote
107512: 062040              	add	(r0)+,-(r0)		;  d
107514: 071551              	div	@-(r1),r5		; is
107516: 066160 074541 072440	add	74541(r1),72440(r0)	; play u
107524: 064556              	add	-(r5),@-(r6)		; ni
107526: 020164 070165       	cmp	r1,70165(r4)		; t up
107532: 060544              	add	r5,-(r4)		; da
107534: 062564 071040       	add	(r5)+,71040(r4)		; te r
107540: 072141              	ash	-(r1),r1		; at
107542: 020145              	cmp	r1,-(r5)		; e 
107544: 066450 066151       	add	66151(r4),@-(r0)	; (mil
107550: 064554              	add	-(r5),@-(r4)		; li
107552: 062563 067543       	add	(r5)+,67543(r3)		; seco
107556: 062156              	add	(r1)+,@-(r6)		; nd
107560: 024563 047510       	cmp	-(r5),47510(r3)		; s)HO
107564: 020124              	cmp	r1,(r4)+		; T 
107566: 047524 041440       	bic	@41440(r5),(r4)+	; TO C
107572: 046117 020104       	bic	20104(r1),(r7)		; OLD 
107576: 044527 052104       	bic	-(r5),#52104		; WIDT
107602: 020110              	cmp	r1,(r0)			; H 
107604: 047503 053116       	bic	@53116(r5),r3		; CONV
107610: 051105              	bis	(r1),r5			; ER
107612: 044523              	bic	-(r5),(r3)+		; SI
107614: 047117 035472       	bic	@35472(r1),(r7)		; ON:;
107620: 062523              	add	(r5)+,(r3)+		; Se
107622: 062554              	add	(r5)+,@-(r4)		; le
107624: 072143              	ash	-(r3),r1		; ct
107626: 062057              	add	(r0)+,@-(r7)		; /d
107630: 071545              	div	-(r5),r5		; es
107632: 066145 061545       	add	61545(r1),-(r5)		; elec
107636: 020164 067543       	cmp	r1,67543(r4)		; t co
107642: 073156              	ashc	@-(r6),r1		; nv
107644: 071145              	div	-(r5),r1		; er
107646: 064563 067157       	add	-(r5),67157(r3)		; sion
107652: 024040              	cmp	-(r0),-(r0)		;  (
107654: 062571 027563       	add	(r5)+,@27563(r1)	; yes/
107660: 067556 035451       	add	@35451(r5),@-(r6)	; no);
107664: 067503 073156       	add	@73156(r5),r3		; Conv
107670: 071145              	div	-(r5),r1		; er
107672: 064563 067157       	add	-(r5),67157(r3)		; sion
107676: 063040              	add	@(r0)+,-(r0)		;  f
107700: 061541              	add	(r5),-(r1)		; ac
107702: 067564 035562 073101	add	@35562(r5),73101(r4)	; tor;Av
107710: 071145              	div	-(r5),r1		; er
107712: 063541              	add	@(r5)+,-(r1)		; ag
107714: 020145              	cmp	r1,-(r5)		; e 
107716: 062564 070155       	add	(r5)+,70155(r4)		; temp
107722: 071145              	div	-(r5),r1		; er
107724: 072141              	ash	-(r1),r1		; at
107726: 071165 020145       	div	20145(r5),r1		; ure 
107732: 067546 020162       	add	@20162(r5),-(r6)	; for 
107736: 067543 073156       	add	@73156(r5),-(r3)	; conv
107742: 071145              	div	-(r5),r1		; er
107744: 064563 067157       	add	-(r5),67157(r3)		; sion
107750: 024040              	cmp	-(r0),-(r0)		;  (
107752: 062544              	add	(r5)+,-(r4)		; de
107754: 071147              	div	-(r7),r1		; gr
107756: 062545              	add	(r5)+,-(r5)		; ee
107760: 020163 027106       	cmp	r1,27106(r3)		; s F.
107764: 035451              	bit	@-(r4),@-(r1)		; );
107766: 047516 042531       	bic	@42531(r5),(r6)		; NOYE
107772: 035523              	bit	@-(r5),(r3)+		; S;
107774: 044504              	bic	-(r5),r4		; DI
107776: 050123              	bis	r1,(r3)+		; SP
110000: 040514              	bic	r5,(r4)			; LA
110002: 020131              	cmp	r1,@(r1)+		; Y 
110004: 040522              	bic	r5,(r2)+		; RA
110006: 020127 040503       	cmp	r1,#40503		; W CA
110012: 042515              	bic	(r5)+,(r5)		; ME
110014: 040522              	bic	r5,(r2)+		; RA
110016: 041440              	bic	(r4),-(r0)		;  C
110020: 052517              	bis	(r5)+,(r7)		; OU
110022: 052116              	bis	(r1)+,(r6)		; NT
110024: 035523              	bit	@-(r5),(r3)+		; S;
110026: 060503              	add	r5,r3			; Ca
110030: 062555              	add	(r5)+,@-(r5)		; me
110032: 060562 030440       	add	r5,30440(r2)		; ra 1
110036: 064040              	add	-(r0),-(r0)		;  h
110040: 074145              	xor	-(r5),r1		; ex
110042: 062141              	add	(r1)+,-(r1)		; ad
110044: 061545              	add	(r5),-(r5)		; ec
110046: 066551 066141       	add	66141(r5),@-(r1)	; imal
110052: 062040              	add	(r0)+,-(r0)		;  d
110054: 067551 062544       	add	@62544(r5),@-(r1)	; iode
110060: 061440              	add	(r4),-(r0)		;  c
110062: 072557              	ash	@-(r7),r5		; ou
110064: 072156              	ash	@-(r6),r1		; nt
110066: 035163 035440       	bit	@-(r1),35440(r3)	; s: ;
110072: 060503              	add	r5,r3			; Ca
110074: 062555              	add	(r5)+,@-(r5)		; me
110076: 060562 031040       	add	r5,31040(r2)		; ra 2
110102: 064040              	add	-(r0),-(r0)		;  h
110104: 074145              	xor	-(r5),r1		; ex
110106: 062141              	add	(r1)+,-(r1)		; ad
110110: 061545              	add	(r5),-(r5)		; ec
110112: 066551 066141       	add	66141(r5),@-(r1)	; imal
110116: 062040              	add	(r0)+,-(r0)		;  d
110120: 067551 062544       	add	@62544(r5),@-(r1)	; iode
110124: 061440              	add	(r4),-(r0)		;  c
110126: 072557              	ash	@-(r7),r5		; ou
110130: 072156              	ash	@-(r6),r1		; nt
110132: 035163 035440       	bit	@-(r1),35440(r3)	; s: ;
110136: 067503 073156       	add	@73156(r5),r3		; Conv
110142: 071145              	div	-(r5),r1		; er
110144: 062564 020144       	add	(r5)+,20144(r4)		; ted 
110150: 067550 020164       	add	@20164(r5),@-(r0)	; hot 
110154: 064567 072144       	add	-(r5),2324		; widt
110160: 035150              	bit	@-(r1),@-(r0)		; h:
110162: 035440              	bit	@-(r4),-(r0)		;  ;
110164: 027440 026040       	cmp	@26040(r4),-(r0)	;  / ,
110170: 027440 026040       	cmp	@26040(r4),-(r0)	;  / ,
110174: 025052              	cmp	@-(r0),@-(r2)		; **
110176: 047440 052120       	bic	@52120(r4),-(r0)	;  OPT
110202: 047511 020116       	bic	@20116(r5),(r1)		; ION 
110206: 020066 020055       	cmp	r0,20055(r6)		; 6 - 
110212: 044103              	bic	-(r1),r3		; CH
110214: 047101 042507       	bic	@42507(r1),r1		; ANGE
110220: 041440              	bic	(r4),-(r0)		;  C
110222: 046101 041111       	bic	41111(r1),r1		; ALIB
110226: 040522              	bic	r5,(r2)+		; RA
110230: 044524              	bic	-(r5),(r4)+		; TI
110232: 047117 046440       	bic	@46440(r1),(r7)		; ON M
110236: 051101              	bis	(r1),r1			; AR
110240: 020113              	cmp	r1,(r3)			; K 
110242: 047524 042514       	bic	@42514(r5),(r4)+	; TOLE
110246: 040522              	bic	r5,(r2)+		; RA
110250: 041516              	bic	(r5),(r6)		; NC
110252: 051505              	bis	(r5),r5			; ES
110254: 025040              	cmp	@-(r0),-(r0)		;  *
110256: 035452              	bit	@-(r4),@-(r2)		; *;
110260: 070125              	mul	(r5)+,r1		; Up
110262: 062560 020162       	add	(r5)+,20162(r0)		; per 
110266: 060566 072554       	add	r5,72554(r6)		; valu
110272: 035145              	bit	@-(r1),-(r5)		; e:
110274: 035440              	bit	@-(r4),-(r0)		;  ;
110276: 020040              	cmp	r0,-(r0)		;   
110300: 020040              	cmp	r0,-(r0)		;   
110302: 020040              	cmp	r0,-(r0)		;   
110304: 020040              	cmp	r0,-(r0)		;   
110306: 046040 073557       	bic	73557(r0),-(r0)		;  Low
110312: 071145              	div	-(r5),r1		; er
110314: 073040              	ashc	-(r0),r0		;  v
110316: 066141 062565       	add	62565(r1),-(r1)		; alue
110322: 020072 042440       	cmp	r0,@42440(r2)		; :  E
110326: 072156              	ash	@-(r6),r1		; nt
110330: 071145              	div	-(r5),r1		; er
110332: 030040              	bit	r0,-(r0)		;  0
110334: 072040              	ash	-(r0),r0		;  t
110336: 020157              	cmp	r1,@-(r7)		; o 
110340: 062554              	add	(r5)+,@-(r4)		; le
110342: 073141              	ashc	-(r1),r1		; av
110344: 020145              	cmp	r1,-(r5)		; e 
110346: 067542 064164       	add	@64164(r5),-(r2)	; both
110352: 073040              	ashc	-(r0),r0		;  v
110354: 066141 062565       	add	62565(r1),-(r1)		; alue
110360: 020163 071541       	cmp	r1,71541(r3)		; s as
110364: 072040              	ash	-(r0),r0		;  t
110366: 062550              	add	(r5)+,@-(r0)		; he
110370: 020171 071141       	cmp	r1,@71141(r1)		; y ar
110374: 035545              	bit	@-(r5),-(r5)		; e;
110376: 035440              	bit	@-(r4),-(r0)		;  ;
110400: 020040              	cmp	r0,-(r0)		;   
110402: 020040              	cmp	r0,-(r0)		;   
110404: 020040              	cmp	r0,-(r0)		;   
110406: 020040              	cmp	r0,-(r0)		;   
110410: 020040              	cmp	r0,-(r0)		;   
110412: 020040              	cmp	r0,-(r0)		;   
110414: 020040              	cmp	r0,-(r0)		;   
110416: 020040              	cmp	r0,-(r0)		;   
110420: 020061 067564       	cmp	r0,67564(r1)		; 1 to
110424: 061440              	add	(r4),-(r0)		;  c
110426: 060550              	add	r5,@-(r0)		; ha
110430: 063556              	add	@(r5)+,@-(r6)		; ng
110432: 020145              	cmp	r1,-(r5)		; e 
110434: 070165 062560       	mul	62560(r5),r1		; uppe
110440: 020162 060543       	cmp	r1,60543(r2)		; r ca
110444: 064554              	add	-(r5),@-(r4)		; li
110446: 071142              	div	-(r2),r1		; br
110450: 072141              	ash	-(r1),r1		; at
110452: 067551 020156       	add	@20156(r5),@-(r1)	; ion 
110456: 067564 062554 060562	add	@62554(r5),60562(r4)	; tolera
110464: 061556              	add	(r5),@-(r6)		; nc
110466: 035545              	bit	@-(r5),-(r5)		; e;
110470: 035440              	bit	@-(r4),-(r0)		;  ;
110472: 020040              	cmp	r0,-(r0)		;   
110474: 020040              	cmp	r0,-(r0)		;   
110476: 020040              	cmp	r0,-(r0)		;   
110500: 020040              	cmp	r0,-(r0)		;   
110502: 020040              	cmp	r0,-(r0)		;   
110504: 020040              	cmp	r0,-(r0)		;   
110506: 020040              	cmp	r0,-(r0)		;   
110510: 020040              	cmp	r0,-(r0)		;   
110512: 020062 067564       	cmp	r0,67564(r2)		; 2 to
110516: 061440              	add	(r4),-(r0)		;  c
110520: 060550              	add	r5,@-(r0)		; ha
110522: 063556              	add	@(r5)+,@-(r6)		; ng
110524: 020145              	cmp	r1,-(r5)		; e 
110526: 067554 062567       	add	@62567(r5),@-(r4)	; lowe
110532: 020162 060543       	cmp	r1,60543(r2)		; r ca
110536: 064554              	add	-(r5),@-(r4)		; li
110540: 071142              	div	-(r2),r1		; br
110542: 072141              	ash	-(r1),r1		; at
110544: 067551 020156       	add	@20156(r5),@-(r1)	; ion 
110550: 067564 062554 060562	add	@62554(r5),60562(r4)	; tolera
110556: 061556              	add	(r5),@-(r6)		; nc
110560: 035545              	bit	@-(r5),-(r5)		; e;
110562: 035440              	bit	@-(r4),-(r0)		;  ;
110564: 020040              	cmp	r0,-(r0)		;   
110566: 020040              	cmp	r0,-(r0)		;   
110570: 020040              	cmp	r0,-(r0)		;   
110572: 020040              	cmp	r0,-(r0)		;   
110574: 020040              	cmp	r0,-(r0)		;   
110576: 020040              	cmp	r0,-(r0)		;   
110600: 020040              	cmp	r0,-(r0)		;   
110602: 020040              	cmp	r0,-(r0)		;   
110604: 020063 067564       	cmp	r0,67564(r3)		; 3 to
110610: 061440              	add	(r4),-(r0)		;  c
110612: 060550              	add	r5,@-(r0)		; ha
110614: 063556              	add	@(r5)+,@-(r6)		; ng
110616: 020145              	cmp	r1,-(r5)		; e 
110620: 047502 044124       	bic	@44124(r5),r2		; BOTH
110624: 061440              	add	(r4),-(r0)		;  c
110626: 066141 061151       	add	61151(r1),-(r1)		; alib
110632: 060562 064564       	add	r5,64564(r2)		; rati
110636: 067157 072040       	add	@72040(r1),@-(r7)	; on t
110642: 066157 071145       	add	71145(r1),@-(r7)	; oler
110646: 067141 062543       	add	@62543(r1),-(r1)	; ance
110652: 035163 035440       	bit	@-(r1),35440(r3)	; s: ;
110656: 044440              	bic	-(r4),-(r0)		;  I
110660: 073156              	ashc	@-(r6),r1		; nv
110662: 066141 062151       	add	62151(r1),-(r1)		; alid
110666: 061440              	add	(r4),-(r0)		;  c
110670: 067550 061551       	add	@61551(r5),@-(r0)	; hoic
110674: 035545              	bit	@-(r5),-(r5)		; e;
110676: 072040              	ash	-(r0),r0		;  t
110700: 074562 060440       	xor	60440(r2),r5		; ry a
110704: 060547              	add	r5,-(r7)		; ga
110706: 067151 027056       	add	@27056(r1),@-(r1)	; in..
110712: 024456              	cmp	-(r4),@-(r6)		; .)
110714: 025052              	cmp	@-(r0),@-(r2)		; **
110716: 047440 052120       	bic	@52120(r4),-(r0)	;  OPT
110722: 047511 020116       	bic	@20116(r5),(r1)		; ION 
110726: 030461 026440       	bit	r4,26440(r1)		; 11 -
110732: 041440              	bic	(r4),-(r0)		;  C
110734: 040510              	bic	r5,(r0)			; HA
110736: 043516              	bic	@(r5)+,(r6)		; NG
110740: 020105              	cmp	r1,r5			; E 
110742: 047510 026524       	bic	@26524(r5),(r0)		; HOT-
110746: 047503 042114       	bic	@42114(r5),r3		; COLD
110752: 053440              	bis	@(r4)+,-(r0)		;  W
110754: 042111              	bic	(r1)+,(r1)		; ID
110756: 044124              	bic	-(r1),(r4)+		; TH
110760: 041440              	bic	(r4),-(r0)		;  C
110762: 047117 042526       	bic	@42526(r1),(r7)		; ONVE
110766: 051522              	bis	(r5),(r2)+		; RS
110770: 047511 020116       	bic	@20116(r5),(r1)		; ION 
110774: 040506              	bic	r5,r6			; FA
110776: 052103              	bis	(r1)+,r3		; CT
111000: 051117              	bis	(r1),(r7)		; OR
111002: 025040              	cmp	@-(r0),-(r0)		;  *
111004: 035452              	bit	@-(r4),@-(r2)		; *;
111006: 064124              	add	-(r1),(r4)+		; Th
111010: 020145              	cmp	r1,-(r5)		; e 
111012: 072543              	ash	-(r3),r5		; cu
111014: 071162 067145       	div	67145(r2),r1		; rren
111020: 020164 067543       	cmp	r1,67543(r4)		; t co
111024: 073156              	ashc	@-(r6),r1		; nv
111026: 071145              	div	-(r5),r1		; er
111030: 064563 067157       	add	-(r5),67157(r3)		; sion
111034: 063040              	add	@(r0)+,-(r0)		;  f
111036: 061541              	add	(r5),-(r1)		; ac
111040: 067564 020162 071551	add	@20162(r5),71551(r4)	; tor is
111046: 035440              	bit	@-(r4),-(r0)		;  ;
111050: 020040              	cmp	r0,-(r0)		;   
111052: 020040              	cmp	r0,-(r0)		;   
111054: 020040              	cmp	r0,-(r0)		;   
111056: 020040              	cmp	r0,-(r0)		;   
111060: 042040              	bic	(r0)+,-(r0)		;  D
111062: 020157              	cmp	r1,@-(r7)		; o 
111064: 067571 020165 064567	add	@20165(r5),@64567(r1)	; you wi
111072: 064163 072040       	add	-(r1),72040(r3)		; sh t
111076: 020157              	cmp	r1,@-(r7)		; o 
111100: 064143              	add	-(r1),-(r3)		; ch
111102: 067141 062547       	add	@62547(r1),-(r1)	; ange
111106: 064440              	add	-(r4),-(r0)		;  i
111110: 020164 054450       	cmp	r1,54450(r4)		; t (Y
111114: 067440 020162       	add	@20162(r4),-(r0)	;  or 
111120: 024516              	cmp	-(r5),(r6)		; N)
111122: 020077 025052       	cmp	r0,@136200		; ? **
111126: 047440 052120       	bic	@52120(r4),-(r0)	;  OPT
111132: 047511 020116       	bic	@20116(r5),(r1)		; ION 
111136: 020067 020055       	cmp	r0,131217		; 7 - 
111142: 044103              	bic	-(r1),r3		; CH
111144: 047101 042507       	bic	@42507(r1),r1		; ANGE
111150: 047040 046525       	bic	@46525(r0),-(r0)	;  NUM
111154: 042502              	bic	(r5)+,r2		; BE
111156: 020122              	cmp	r1,(r2)+		; R 
111160: 043117              	bic	@(r1)+,(r7)		; OF
111162: 051040              	bis	(r0),-(r0)		;  R
111164: 040505              	bic	r5,r5			; EA
111166: 044504              	bic	-(r5),r4		; DI
111170: 043516              	bic	@(r5)+,(r6)		; NG
111172: 020123              	cmp	r1,(r3)+		; S 
111174: 042520              	bic	(r5)+,(r0)+		; PE
111176: 020122              	cmp	r1,(r2)+		; R 
111200: 053101              	bis	@(r1)+,r1		; AV
111202: 051105              	bis	(r1),r5			; ER
111204: 043501              	bic	@(r5)+,r1		; AG
111206: 020105              	cmp	r1,r5			; E 
111210: 025052              	cmp	@-(r0),@-(r2)		; **
111212: 064124              	add	-(r1),(r4)+		; Th
111214: 020145              	cmp	r1,-(r5)		; e 
111216: 072543              	ash	-(r3),r5		; cu
111220: 071162 067145       	div	67145(r2),r1		; rren
111224: 020164 072556       	cmp	r1,72556(r4)		; t nu
111230: 061155              	add	(r1),@-(r5)		; mb
111232: 071145              	div	-(r5),r1		; er
111234: 067440 020146       	add	@20146(r4),-(r0)	;  of 
111240: 062562 062141       	add	(r5)+,62141(r2)		; read
111244: 067151 071547       	add	@71547(r1),@-(r1)	; ings
111250: 070040              	mul	-(r0),r0		;  p
111252: 071145              	div	-(r5),r1		; er
111254: 060440              	add	r4,-(r0)		;  a
111256: 062566 060562       	add	(r5)+,60562(r6)		; vera
111262: 062547              	add	(r5)+,-(r7)		; ge
111264: 064440              	add	-(r4),-(r0)		;  i
111266: 020163 020040       	cmp	r1,20040(r3)		; s   
111272: 020040              	cmp	r0,-(r0)		;   
111274: 020040              	cmp	r0,-(r0)		;   
111276: 020040              	cmp	r0,-(r0)		;   
111300: 042040              	bic	(r0)+,-(r0)		;  D
111302: 020157              	cmp	r1,@-(r7)		; o 
111304: 067571 020165 064567	add	@20165(r5),@64567(r1)	; you wi
111312: 064163 072040       	add	-(r1),72040(r3)		; sh t
111316: 020157              	cmp	r1,@-(r7)		; o 
111320: 064143              	add	-(r1),-(r3)		; ch
111322: 067141 062547       	add	@62547(r1),-(r1)	; ange
111326: 064440              	add	-(r4),-(r0)		;  i
111330: 020164 054450       	cmp	r1,54450(r4)		; t (Y
111334: 067440 020162       	add	@20162(r4),-(r0)	;  or 
111340: 024516              	cmp	-(r5),(r6)		; N)
111342: 020077 067524       	cmp	r0,@1072		; ? To
111346: 020157              	cmp	r1,@-(r7)		; o 
111350: 060555              	add	r5,@-(r5)		; ma
111352: 074556              	xor	@-(r6),r5		; ny
111354: 060440              	add	r4,-(r0)		;  a
111356: 062566 060562       	add	(r5)+,60562(r6)		; vera
111362: 062547              	add	(r5)+,-(r7)		; ge
111364: 020163 062560       	cmp	r1,62560(r3)		; s pe
111370: 020162 062562       	cmp	r1,62562(r2)		; r re
111374: 062141              	add	(r1)+,-(r1)		; ad
111376: 067151 035547       	add	@35547(r1),@-(r1)	; ing;
111402: 070040              	mul	-(r0),r0		;  p
111404: 062554              	add	(r5)+,@-(r4)		; le
111406: 071541              	div	-(r1),r5		; as
111410: 020145              	cmp	r1,-(r5)		; e 
111412: 062562 062455       	add	(r5)+,62455(r2)		; re-e
111416: 072156              	ash	@-(r6),r1		; nt
111420: 071145              	div	-(r5),r1		; er
111422: 027056 035456       	cmp	@35456(r0),@-(r6)	; ...;
111426: 025052              	cmp	@-(r0),@-(r2)		; **
111430: 047440 052120       	bic	@52120(r4),-(r0)	;  OPT
111434: 047511 020116       	bic	@20116(r5),(r1)		; ION 
111440: 020065 020055       	cmp	r0,20055(r5)		; 5 - 
111444: 044103              	bic	-(r1),r3		; CH
111446: 047101 042507       	bic	@42507(r1),r1		; ANGE
111452: 051040              	bis	(r0),-(r0)		;  R
111454: 051505              	bis	(r5),r5			; ES
111456: 046117 052125       	bic	52125(r1),(r7)		; OLUT
111462: 047511 020116       	bic	@20116(r5),(r1)		; ION 
111466: 025052              	cmp	@-(r0),@-(r2)		; **
111470: 060503              	add	r5,r3			; Ca
111472: 062555              	add	(r5)+,@-(r5)		; me
111474: 060562 030440       	add	r5,30440(r2)		; ra 1
111500: 024040              	cmp	-(r0),-(r0)		;  (
111502: 064504              	add	-(r5),r4		; Di
111504: 062157              	add	(r1)+,@-(r7)		; od
111506: 071545              	div	-(r5),r5		; es
111510: 027440 030440       	cmp	@30440(r4),-(r0)	;  / 1
111514: 020060 067151       	cmp	r0,67151(r0)		; 0 in
111520: 064143              	add	-(r1),-(r3)		; ch
111522: 071545              	div	-(r5),r5		; es
111524: 035051              	bit	@-(r0),@-(r1)		; ):
111526: 035440              	bit	@-(r4),-(r0)		;  ;
111530: 020040              	cmp	r0,-(r0)		;   
111532: 020040              	cmp	r0,-(r0)		;   
111534: 020040              	cmp	r0,-(r0)		;   
111536: 020040              	cmp	r0,-(r0)		;   
111540: 041440              	bic	(r4),-(r0)		;  C
111542: 066541 071145       	add	71145(r5),-(r1)		; amer
111546: 020141              	cmp	r1,-(r1)		; a 
111550: 020062 042050       	cmp	r0,42050(r2)		; 2 (D
111554: 067551 062544       	add	@62544(r5),@-(r1)	; iode
111560: 020163 020057       	cmp	r1,20057(r3)		; s / 
111564: 030061 064440       	bit	r0,64440(r1)		; 10 i
111570: 061556              	add	(r5),@-(r6)		; nc
111572: 062550              	add	(r5)+,@-(r0)		; he
111574: 024563 020072       	cmp	-(r5),20072(r3)		; s): 
111600: 067105 062564       	add	@62564(r1),r5		; Ente
111604: 020162 020060       	cmp	r1,20060(r2)		; r 0 
111610: 067564 066040 060545	add	@66040(r5),60545(r4)	; to lea
111616: 062566 061040       	add	(r5)+,61040(r6)		; ve b
111622: 072157              	ash	@-(r7),r1		; ot
111624: 020150              	cmp	r1,@-(r0)		; h 
111626: 060566 072554       	add	r5,72554(r6)		; valu
111632: 071545              	div	-(r5),r5		; es
111634: 060440              	add	r4,-(r0)		;  a
111636: 020163 064164       	cmp	r1,64164(r3)		; s th
111642: 074545              	xor	-(r5),r5		; ey
111644: 060440              	add	r4,-(r0)		;  a
111646: 062562 020073       	add	(r5)+,20073(r2)		; re; 
111652: 020040              	cmp	r0,-(r0)		;   
111654: 020040              	cmp	r0,-(r0)		;   
111656: 020040              	cmp	r0,-(r0)		;   
111660: 020040              	cmp	r0,-(r0)		;   
111662: 020040              	cmp	r0,-(r0)		;   
111664: 020040              	cmp	r0,-(r0)		;   
111666: 020040              	cmp	r0,-(r0)		;   
111670: 030440              	bit	r4,-(r0)		;  1
111672: 072040              	ash	-(r0),r0		;  t
111674: 020157              	cmp	r1,@-(r7)		; o 
111676: 064143              	add	-(r1),-(r3)		; ch
111700: 067141 062547       	add	@62547(r1),-(r1)	; ange
111704: 041440              	bic	(r4),-(r0)		;  C
111706: 066541 071145       	add	71145(r5),-(r1)		; amer
111712: 020141              	cmp	r1,-(r1)		; a 
111714: 023461 020163       	cmp	@(r4)+,20163(r1)	; 1's 
111720: 060566 072554       	add	r5,72554(r6)		; valu
111724: 035545              	bit	@-(r5),-(r5)		; e;
111726: 035440              	bit	@-(r4),-(r0)		;  ;
111730: 020040              	cmp	r0,-(r0)		;   
111732: 020040              	cmp	r0,-(r0)		;   
111734: 020040              	cmp	r0,-(r0)		;   
111736: 020040              	cmp	r0,-(r0)		;   
111740: 020040              	cmp	r0,-(r0)		;   
111742: 020040              	cmp	r0,-(r0)		;   
111744: 020040              	cmp	r0,-(r0)		;   
111746: 031040              	bit	(r0),-(r0)		;  2
111750: 072040              	ash	-(r0),r0		;  t
111752: 020157              	cmp	r1,@-(r7)		; o 
111754: 064143              	add	-(r1),-(r3)		; ch
111756: 067141 062547       	add	@62547(r1),-(r1)	; ange
111762: 041440              	bic	(r4),-(r0)		;  C
111764: 066541 071145       	add	71145(r5),-(r1)		; amer
111770: 020141              	cmp	r1,-(r1)		; a 
111772: 023462 020163       	cmp	@(r4)+,20163(r2)	; 2's 
111776: 060566 072554       	add	r5,72554(r6)		; valu
112002: 035545              	bit	@-(r5),-(r5)		; e;
112004: 035440              	bit	@-(r4),-(r0)		;  ;
112006: 020040              	cmp	r0,-(r0)		;   
112010: 020040              	cmp	r0,-(r0)		;   
112012: 020040              	cmp	r0,-(r0)		;   
112014: 020040              	cmp	r0,-(r0)		;   
112016: 020040              	cmp	r0,-(r0)		;   
112020: 020040              	cmp	r0,-(r0)		;   
112022: 020040              	cmp	r0,-(r0)		;   
112024: 031440              	bit	(r4),-(r0)		;  3
112026: 072040              	ash	-(r0),r0		;  t
112030: 020157              	cmp	r1,@-(r7)		; o 
112032: 064143              	add	-(r1),-(r3)		; ch
112034: 067141 062547       	add	@62547(r1),-(r1)	; ange
112040: 041040              	bic	(r0),-(r0)		;  B
112042: 052117              	bis	(r1)+,(r7)		; OT
112044: 020110              	cmp	r1,(r0)			; H 
112046: 060503              	add	r5,r3			; Ca
112050: 062555              	add	(r5)+,@-(r5)		; me
112052: 060562 020163       	add	r5,20163(r2)		; ras 
112056: 060566 072554       	add	r5,72554(r6)		; valu
112062: 071545              	div	-(r5),r5		; es
112064: 020072 044440       	cmp	r0,@44440(r2)		; :  I
112070: 073156              	ashc	@-(r6),r1		; nv
112072: 066141 062151       	add	62151(r1),-(r1)		; alid
112076: 061440              	add	(r4),-(r0)		;  c
112100: 067550 061551       	add	@61551(r5),@-(r0)	; hoic
112104: 035545              	bit	@-(r5),-(r5)		; e;
112106: 072040              	ash	-(r0),r0		;  t
112110: 074562 060440       	xor	60440(r2),r5		; ry a
112114: 060547              	add	r5,-(r7)		; ga
112116: 067151 027056       	add	@27056(r1),@-(r1)	; in..
112122: 024456              	cmp	-(r4),@-(r6)		; .)
112124: 025052              	cmp	@-(r0),@-(r2)		; **
112126: 047440 052120       	bic	@52120(r4),-(r0)	;  OPT
112132: 047511 020116       	bic	@20116(r5),(r1)		; ION 
112136: 020071 020055       	cmp	r0,@20055(r1)		; 9 - 
112142: 044103              	bic	-(r1),r3		; CH
112144: 047101 042507       	bic	@42507(r1),r1		; ANGE
112150: 051040              	bis	(r0),-(r0)		;  R
112152: 046505 052117       	bic	52117(r5),r5		; EMOT
112156: 020105              	cmp	r1,r5			; E 
112160: 047125 052111       	bic	@52111(r1),(r5)+	; UNIT
112164: 052440              	bis	(r4)+,-(r0)		;  U
112166: 042120              	bic	(r1)+,(r0)+		; PD
112170: 052101              	bis	(r1)+,r1		; AT
112172: 020105              	cmp	r1,r5			; E 
112174: 040522              	bic	r5,(r2)+		; RA
112176: 042524              	bic	(r5)+,(r4)+		; TE
112200: 025040              	cmp	@-(r0),-(r0)		;  *
112202: 035452              	bit	@-(r4),@-(r2)		; *;
112204: 064124              	add	-(r1),(r4)+		; Th
112206: 020145              	cmp	r1,-(r5)		; e 
112210: 072543              	ash	-(r3),r5		; cu
112212: 071162 067145       	div	67145(r2),r1		; rren
112216: 020164 070165       	cmp	r1,70165(r4)		; t up
112222: 060544              	add	r5,-(r4)		; da
112224: 062564 071040       	add	(r5)+,71040(r4)		; te r
112230: 072141              	ash	-(r1),r1		; at
112232: 020145              	cmp	r1,-(r5)		; e 
112234: 071551              	div	@-(r1),r5		; is
112236: 035440              	bit	@-(r4),-(r0)		;  ;
112240: 066440 066151       	add	66151(r4),-(r0)		;  mil
112244: 064554              	add	-(r5),@-(r4)		; li
112246: 062563 067543       	add	(r5)+,67543(r3)		; seco
112252: 062156              	add	(r1)+,@-(r6)		; nd
112254: 035563 020040       	bit	@-(r5),20040(r3)	; s;  
112260: 020040              	cmp	r0,-(r0)		;   
112262: 020040              	cmp	r0,-(r0)		;   
112264: 020040              	cmp	r0,-(r0)		;   
112266: 042040              	bic	(r0)+,-(r0)		;  D
112270: 020157              	cmp	r1,@-(r7)		; o 
112272: 067571 020165 064567	add	@20165(r5),@64567(r1)	; you wi
112300: 064163 072040       	add	-(r1),72040(r3)		; sh t
112304: 020157              	cmp	r1,@-(r7)		; o 
112306: 064143              	add	-(r1),-(r3)		; ch
112310: 067141 062547       	add	@62547(r1),-(r1)	; ange
112314: 064440              	add	-(r4),-(r0)		;  i
112316: 020164 054450       	cmp	r1,54450(r4)		; t (Y
112322: 067440 020162       	add	@20162(r4),-(r0)	;  or 
112326: 024516              	cmp	-(r5),(r6)		; N)
112330: 020077 025052       	cmp	r0,@137406		; ? **
112334: 047440 052120       	bic	@52120(r4),-(r0)	;  OPT
112340: 047511 020116       	bic	@20116(r5),(r1)		; ION 
112344: 020063 020055       	cmp	r0,20055(r3)		; 3 - 
112350: 044103              	bic	-(r1),r3		; CH
112352: 047101 042507       	bic	@42507(r1),r1		; ANGE
112356: 042040              	bic	(r0)+,-(r0)		;  D
112360: 047511 042504       	bic	@42504(r5),(r1)		; IODE
112364: 041440              	bic	(r4),-(r0)		;  C
112366: 052517              	bis	(r5)+,(r7)		; OU
112370: 052116              	bis	(r1)+,(r6)		; NT
112372: 020123              	cmp	r1,(r3)+		; S 
112374: 042520              	bic	(r5)+,(r0)+		; PE
112376: 020122              	cmp	r1,(r2)+		; R 
112400: 040503              	bic	r5,r3			; CA
112402: 042515              	bic	(r5)+,(r5)		; ME
112404: 040522              	bic	r5,(r2)+		; RA
112406: 025040              	cmp	@-(r0),-(r0)		;  *
112410: 035452              	bit	@-(r4),@-(r2)		; *;
112412: 064124              	add	-(r1),(r4)+		; Th
112414: 020145              	cmp	r1,-(r5)		; e 
112416: 072543              	ash	-(r3),r5		; cu
112420: 071162 067145       	div	67145(r2),r1		; rren
112424: 020164 072556       	cmp	r1,72556(r4)		; t nu
112430: 061155              	add	(r1),@-(r5)		; mb
112432: 071145              	div	-(r5),r1		; er
112434: 067440 020146       	add	@20146(r4),-(r0)	;  of 
112440: 067543 067165       	add	@67165(r5),-(r3)	; coun
112444: 071564 070040       	div	70040(r4),r5		; ts p
112450: 071145              	div	-(r5),r1		; er
112452: 061440              	add	(r4),-(r0)		;  c
112454: 066541 071145       	add	71145(r5),-(r1)		; amer
112460: 020141              	cmp	r1,-(r1)		; a 
112462: 071551              	div	@-(r1),r5		; is
112464: 035440              	bit	@-(r4),-(r0)		;  ;
112466: 067504 074440       	add	@74440(r5),r4		; Do y
112472: 072557              	ash	@-(r7),r5		; ou
112474: 073440              	ashc	-(r0),r4		;  w
112476: 071551              	div	@-(r1),r5		; is
112500: 020150              	cmp	r1,@-(r0)		; h 
112502: 067564 061440 060550	add	@61440(r5),60550(r4)	; to cha
112510: 063556              	add	@(r5)+,@-(r6)		; ng
112512: 020145              	cmp	r1,-(r5)		; e 
112514: 072151              	ash	@-(r1),r1		; it
112516: 024040              	cmp	-(r0),-(r0)		;  (
112520: 020131              	cmp	r1,@(r1)+		; Y 
112522: 071157              	div	@-(r7),r1		; or
112524: 047040 037451       	bic	@37451(r0),-(r0)	;  N)?
112530: 035440              	bit	@-(r4),-(r0)		;  ;
112532: 025052              	cmp	@-(r0),@-(r2)		; **
112534: 047440 052120       	bic	@52120(r4),-(r0)	;  OPT
112540: 047511 020116       	bic	@20116(r5),(r1)		; ION 
112544: 020064 020055       	cmp	r0,20055(r4)		; 4 - 
112550: 044103              	bic	-(r1),r3		; CH
112552: 047101 042507       	bic	@42507(r1),r1		; ANGE
112556: 047440 043106       	bic	@43106(r4),-(r0)	;  OFF
112562: 042523              	bic	(r5)+,(r3)+		; SE
112564: 020124              	cmp	r1,(r4)+		; T 
112566: 025052              	cmp	@-(r0),@-(r2)		; **
112570: 064124              	add	-(r1),(r4)+		; Th
112572: 020145              	cmp	r1,-(r5)		; e 
112574: 063157              	add	@(r1)+,@-(r7)		; of
112576: 071546              	div	-(r6),r5		; fs
112600: 072145              	ash	-(r5),r1		; et
112602: 064440              	add	-(r4),-(r0)		;  i
112604: 020163 067504       	cmp	r1,67504(r3)		; s Do
112610: 074440              	xor	-(r0),r4		;  y
112612: 072557              	ash	@-(r7),r5		; ou
112614: 073440              	ashc	-(r0),r4		;  w
112616: 071551              	div	@-(r1),r5		; is
112620: 020150              	cmp	r1,@-(r0)		; h 
112622: 067564 061440 060550	add	@61440(r5),60550(r4)	; to cha
112630: 063556              	add	@(r5)+,@-(r6)		; ng
112632: 020145              	cmp	r1,-(r5)		; e 
112634: 072151              	ash	@-(r1),r1		; it
112636: 024040              	cmp	-(r0),-(r0)		;  (
112640: 020131              	cmp	r1,@(r1)+		; Y 
112642: 071157              	div	@-(r7),r1		; or
112644: 047040 037451       	bic	@37451(r0),-(r0)	;  N)?
112650: 035440              	bit	@-(r4),-(r0)		;  ;
112652: 025052              	cmp	@-(r0),@-(r2)		; **
112654: 047440 052120       	bic	@52120(r4),-(r0)	;  OPT
112660: 047511 020116       	bic	@20116(r5),(r1)		; ION 
112664: 031461 026440       	bit	(r4),26440(r1)		; 13 -
112670: 051440              	bis	(r4),-(r0)		;  S
112672: 046105 041505       	bic	41505(r1),r5		; ELEC
112676: 020124              	cmp	r1,(r4)+		; T 
112700: 044527 052104       	bic	-(r5),#52104		; WIDT
112704: 020110              	cmp	r1,(r0)			; H 
112706: 052517              	bis	(r5)+,(r7)		; OU
112710: 050124              	bis	r1,(r4)+		; TP
112712: 052125              	bis	(r1)+,(r5)+		; UT
112714: 043040              	bic	@(r0)+,-(r0)		;  F
112716: 051117              	bis	(r1),(r7)		; OR
112720: 040515              	bic	r5,(r5)			; MA
112722: 020124              	cmp	r1,(r4)+		; T 
112724: 025052              	cmp	@-(r0),@-(r2)		; **
112726: 064124              	add	-(r1),(r4)+		; Th
112730: 020145              	cmp	r1,-(r5)		; e 
112732: 072543              	ash	-(r3),r5		; cu
112734: 071162 067145       	div	67145(r2),r1		; rren
112740: 020164 072163       	cmp	r1,72163(r4)		; t st
112744: 072141              	ash	-(r1),r1		; at
112746: 071565 064440       	div	64440(r5),r5		; us i
112752: 020163 052050       	cmp	r1,52050(r3)		; s (T
112756: 052522              	bis	(r5)+,(r2)+		; RU
112760: 036505 062563       	bit	62563(r5),r5		; E=se
112764: 062554              	add	(r5)+,@-(r4)		; le
112766: 072143              	ash	-(r3),r1		; ct
112770: 062145              	add	(r1)+,-(r5)		; ed
112772: 020073 040506       	cmp	r0,@40506(r3)		; ; FA
112776: 051514              	bis	(r5),(r4)		; LS
113000: 036505 067556       	bit	67556(r5),r5		; E=no
113004: 020164 062563       	cmp	r1,62563(r4)		; t se
113010: 062554              	add	(r5)+,@-(r4)		; le
113012: 072143              	ash	-(r3),r1		; ct
113014: 062145              	add	(r1)+,-(r5)		; ed
113016: 035051              	bit	@-(r0),@-(r1)		; ):
113020: 020040              	cmp	r0,-(r0)		;   
113022: 020040              	cmp	r0,-(r0)		;   
113024: 020040              	cmp	r0,-(r0)		;   
113026: 020040              	cmp	r0,-(r0)		;   
113030: 042040              	bic	(r0)+,-(r0)		;  D
113032: 020157              	cmp	r1,@-(r7)		; o 
113034: 067571 020165 064567	add	@20165(r5),@64567(r1)	; you wi
113042: 064163 072040       	add	-(r1),72040(r3)		; sh t
113046: 020157              	cmp	r1,@-(r7)		; o 
113050: 064143              	add	-(r1),-(r3)		; ch
113052: 067141 062547       	add	@62547(r1),-(r1)	; ange
113056: 064440              	add	-(r4),-(r0)		;  i
113060: 020164 054450       	cmp	r1,54450(r4)		; t (Y
113064: 067440 020162       	add	@20162(r4),-(r0)	;  or 
113070: 024516              	cmp	-(r5),(r6)		; N)
113072: 020077 025052       	cmp	r0,@140150		; ? **
113076: 047440 052120       	bic	@52120(r4),-(r0)	;  OPT
113102: 047511 020116       	bic	@20116(r5),(r1)		; ION 
113106: 031061 026440       	bit	(r0),26440(r1)		; 12 -
113112: 041440              	bic	(r4),-(r0)		;  C
113114: 040510              	bic	r5,(r0)			; HA
113116: 043516              	bic	@(r5)+,(r6)		; NG
113120: 020105              	cmp	r1,r5			; E 
113122: 047510 020124       	bic	@20124(r5),(r0)		; HOT 
113126: 044527 052104       	bic	-(r5),#52104		; WIDT
113132: 020110              	cmp	r1,(r0)			; H 
113134: 053101              	bis	@(r1)+,r1		; AV
113136: 051105              	bis	(r1),r5			; ER
113140: 043501              	bic	@(r5)+,r1		; AG
113142: 020105              	cmp	r1,r5			; E 
113144: 042524              	bic	(r5)+,(r4)+		; TE
113146: 050115              	bis	r1,(r5)			; MP
113150: 051105              	bis	(r1),r5			; ER
113152: 052101              	bis	(r1)+,r1		; AT
113154: 051125              	bis	(r1),(r5)+		; UR
113156: 020105              	cmp	r1,r5			; E 
113160: 025052              	cmp	@-(r0),@-(r2)		; **
113162: 064124              	add	-(r1),(r4)+		; Th
113164: 020145              	cmp	r1,-(r5)		; e 
113166: 073141              	ashc	-(r1),r1		; av
113170: 071145              	div	-(r5),r1		; er
113172: 063541              	add	@(r5)+,-(r1)		; ag
113174: 020145              	cmp	r1,-(r5)		; e 
113176: 062564 070155       	add	(r5)+,70155(r4)		; temp
113202: 071145              	div	-(r5),r1		; er
113204: 072141              	ash	-(r1),r1		; at
113206: 071165 020145       	div	20145(r5),r1		; ure 
113212: 062542              	add	(r5)+,-(r2)		; be
113214: 067151 020147       	add	@20147(r1),@-(r1)	; ing 
113220: 071565 062145       	div	62145(r5),r5		; used
113224: 064440              	add	-(r4),-(r0)		;  i
113226: 020163 020040       	cmp	r1,20040(r3)		; s   
113232: 020040              	cmp	r0,-(r0)		;   
113234: 020040              	cmp	r0,-(r0)		;   
113236: 020040              	cmp	r0,-(r0)		;   
113240: 042040              	bic	(r0)+,-(r0)		;  D
113242: 020157              	cmp	r1,@-(r7)		; o 
113244: 067571 020165 064567	add	@20165(r5),@64567(r1)	; you wi
113252: 064163 072040       	add	-(r1),72040(r3)		; sh t
113256: 020157              	cmp	r1,@-(r7)		; o 
113260: 064143              	add	-(r1),-(r3)		; ch
113262: 067141 062547       	add	@62547(r1),-(r1)	; ange
113266: 064440              	add	-(r4),-(r0)		;  i
113270: 020164 054450       	cmp	r1,54450(r4)		; t (Y
113274: 067440 020162       	add	@20162(r4),-(r0)	;  or 
113300: 024516              	cmp	-(r5),(r6)		; N)
113302: 020077 025052       	cmp	r0,@140360		; ? **
113306: 047440 052120       	bic	@52120(r4),-(r0)	;  OPT
113312: 047511 020116       	bic	@20116(r5),(r1)		; ION 
113316: 020070 020055       	cmp	r0,@20055(r0)		; 8 - 
113322: 044103              	bic	-(r1),r3		; CH
113324: 047101 042507       	bic	@42507(r1),r1		; ANGE
113330: 046440 054101       	bic	54101(r4),-(r0)		;  MAX
113334: 046511 046525       	bic	46525(r5),(r1)		; IMUM
113340: 046457 047111       	bic	47111(r4),@-(r7)	; /MIN
113344: 046511 046525       	bic	46525(r5),(r1)		; IMUM
113350: 046040 043505       	bic	43505(r0),-(r0)		;  LEG
113354: 052111              	bis	(r1)+,(r1)		; IT
113356: 046511 052101       	bic	52101(r5),(r1)		; IMAT
113362: 020105              	cmp	r1,r5			; E 
113364: 044527 052104       	bic	-(r5),#52104		; WIDT
113370: 051510              	bis	(r5),(r0)		; HS
113372: 025040              	cmp	@-(r0),-(r0)		;  *
113374: 035452              	bit	@-(r4),@-(r2)		; *;
113376: 060515              	add	r5,(r5)			; Ma
113400: 064570 072555       	add	-(r5),@72555(r0)	; ximu
113404: 020155              	cmp	r1,@-(r5)		; m 
113406: 060566 072554       	add	r5,72554(r6)		; valu
113412: 035145              	bit	@-(r1),-(r5)		; e:
113414: 035440              	bit	@-(r4),-(r0)		;  ;
113416: 020040              	cmp	r0,-(r0)		;   
113420: 020040              	cmp	r0,-(r0)		;   
113422: 020040              	cmp	r0,-(r0)		;   
113424: 020040              	cmp	r0,-(r0)		;   
113426: 046440 067151       	bic	67151(r4),-(r0)		;  Min
113432: 066551 066565       	add	66565(r5),@-(r1)	; imum
113436: 073040              	ashc	-(r0),r0		;  v
113440: 066141 062565       	add	62565(r1),-(r1)		; alue
113444: 020072 067105       	cmp	r0,@67105(r2)		; : En
113450: 062564 020162       	add	(r5)+,20162(r4)		; ter 
113454: 020060 067564       	cmp	r0,67564(r0)		; 0 to
113460: 066040 060545       	add	60545(r0),-(r0)		;  lea
113464: 062566 061040       	add	(r5)+,61040(r6)		; ve b
113470: 072157              	ash	@-(r7),r1		; ot
113472: 020150              	cmp	r1,@-(r0)		; h 
113474: 060566 072554       	add	r5,72554(r6)		; valu
113500: 071545              	div	-(r5),r5		; es
113502: 060440              	add	r4,-(r0)		;  a
113504: 020163 064164       	cmp	r1,64164(r3)		; s th
113510: 074545              	xor	-(r5),r5		; ey
113512: 060440              	add	r4,-(r0)		;  a
113514: 062562 020073       	add	(r5)+,20073(r2)		; re; 
113520: 020040              	cmp	r0,-(r0)		;   
113522: 020040              	cmp	r0,-(r0)		;   
113524: 020040              	cmp	r0,-(r0)		;   
113526: 020040              	cmp	r0,-(r0)		;   
113530: 020040              	cmp	r0,-(r0)		;   
113532: 020040              	cmp	r0,-(r0)		;   
113534: 020040              	cmp	r0,-(r0)		;   
113536: 030440              	bit	r4,-(r0)		;  1
113540: 072040              	ash	-(r0),r0		;  t
113542: 020157              	cmp	r1,@-(r7)		; o 
113544: 064143              	add	-(r1),-(r3)		; ch
113546: 067141 062547       	add	@62547(r1),-(r1)	; ange
113552: 066440 074141       	add	74141(r4),-(r0)		;  max
113556: 066551 066565       	add	66565(r5),@-(r1)	; imum
113562: 060440              	add	r4,-(r0)		;  a
113564: 066154 073557       	add	73557(r1),@-(r4)	; llow
113570: 061141              	add	(r1),-(r1)		; ab
113572: 062554              	add	(r5)+,@-(r4)		; le
113574: 073440              	ashc	-(r0),r4		;  w
113576: 062151              	add	(r1)+,@-(r1)		; id
113600: 064164 020073       	add	-(r1),20073(r4)		; th; 
113604: 020040              	cmp	r0,-(r0)		;   
113606: 020040              	cmp	r0,-(r0)		;   
113610: 020040              	cmp	r0,-(r0)		;   
113612: 020040              	cmp	r0,-(r0)		;   
113614: 020040              	cmp	r0,-(r0)		;   
113616: 020040              	cmp	r0,-(r0)		;   
113620: 020040              	cmp	r0,-(r0)		;   
113622: 031040              	bit	(r0),-(r0)		;  2
113624: 072040              	ash	-(r0),r0		;  t
113626: 020157              	cmp	r1,@-(r7)		; o 
113630: 064143              	add	-(r1),-(r3)		; ch
113632: 067141 062547       	add	@62547(r1),-(r1)	; ange
113636: 066440 067151       	add	67151(r4),-(r0)		;  min
113642: 066551 066565       	add	66565(r5),@-(r1)	; imum
113646: 060440              	add	r4,-(r0)		;  a
113650: 066154 073557       	add	73557(r1),@-(r4)	; llow
113654: 061141              	add	(r1),-(r1)		; ab
113656: 062554              	add	(r5)+,@-(r4)		; le
113660: 073440              	ashc	-(r0),r4		;  w
113662: 062151              	add	(r1)+,@-(r1)		; id
113664: 064164 020073       	add	-(r1),20073(r4)		; th; 
113670: 020040              	cmp	r0,-(r0)		;   
113672: 020040              	cmp	r0,-(r0)		;   
113674: 020040              	cmp	r0,-(r0)		;   
113676: 020040              	cmp	r0,-(r0)		;   
113700: 020040              	cmp	r0,-(r0)		;   
113702: 020040              	cmp	r0,-(r0)		;   
113704: 020040              	cmp	r0,-(r0)		;   
113706: 031440              	bit	(r4),-(r0)		;  3
113710: 072040              	ash	-(r0),r0		;  t
113712: 020157              	cmp	r1,@-(r7)		; o 
113714: 064143              	add	-(r1),-(r3)		; ch
113716: 067141 062547       	add	@62547(r1),-(r1)	; ange
113722: 041040              	bic	(r0),-(r0)		;  B
113724: 052117              	bis	(r1)+,(r7)		; OT
113726: 020110              	cmp	r1,(r0)			; H 
113730: 064567 072144       	add	-(r5),6100		; widt
113734: 020150              	cmp	r1,@-(r0)		; h 
113736: 060566 072554       	add	r5,72554(r6)		; valu
113742: 071545              	div	-(r5),r5		; es
113744: 020072 044440       	cmp	r0,@44440(r2)		; :  I
113750: 073156              	ashc	@-(r6),r1		; nv
113752: 066141 062151       	add	62151(r1),-(r1)		; alid
113756: 061440              	add	(r4),-(r0)		;  c
113760: 067550 061551       	add	@61551(r5),@-(r0)	; hoic
113764: 035545              	bit	@-(r5),-(r5)		; e;
113766: 072040              	ash	-(r0),r0		;  t
113770: 074562 060440       	xor	60440(r2),r5		; ry a
113774: 060547              	add	r5,-(r7)		; ga
113776: 067151 027056       	add	@27056(r1),@-(r1)	; in..
114002: 024456              	cmp	-(r4),@-(r6)		; .)
114004: 025052              	cmp	@-(r0),@-(r2)		; **
114006: 047440 052120       	bic	@52120(r4),-(r0)	;  OPT
114012: 047511 020116       	bic	@20116(r5),(r1)		; ION 
114016: 030061 026440       	bit	r0,26440(r1)		; 10 -
114022: 051440              	bis	(r4),-(r0)		;  S
114024: 046105 041505       	bic	41505(r1),r5		; ELEC
114030: 027524 042504       	cmp	@42504(r5),(r4)+	; T/DE
114034: 042523              	bic	(r5)+,(r3)+		; SE
114036: 042514              	bic	(r5)+,(r4)		; LE
114040: 052103              	bis	(r1)+,r3		; CT
114042: 044040              	bic	-(r0),-(r0)		;  H
114044: 052117              	bis	(r1)+,(r7)		; OT
114046: 052040              	bis	(r0)+,-(r0)		;  T
114050: 020117              	cmp	r1,(r7)			; O 
114052: 047503 042114       	bic	@42114(r5),r3		; COLD
114056: 053440              	bis	@(r4)+,-(r0)		;  W
114060: 042111              	bic	(r1)+,(r1)		; ID
114062: 044124              	bic	-(r1),(r4)+		; TH
114064: 041440              	bic	(r4),-(r0)		;  C
114066: 047117 042526       	bic	@42526(r1),(r7)		; ONVE
114072: 051522              	bis	(r5),(r2)+		; RS
114074: 047511 020116       	bic	@20116(r5),(r1)		; ION 
114100: 025052              	cmp	@-(r0),@-(r2)		; **
114102: 064124              	add	-(r1),(r4)+		; Th
114104: 020145              	cmp	r1,-(r5)		; e 
114106: 072543              	ash	-(r3),r5		; cu
114110: 071162 067145       	div	67145(r2),r1		; rren
114114: 020164 072163       	cmp	r1,72163(r4)		; t st
114120: 072141              	ash	-(r1),r1		; at
114122: 071565 064440       	div	64440(r5),r5		; us i
114126: 020163 052050       	cmp	r1,52050(r3)		; s (T
114132: 052522              	bis	(r5)+,(r2)+		; RU
114134: 036505 062563       	bit	62563(r5),r5		; E=se
114140: 062554              	add	(r5)+,@-(r4)		; le
114142: 072143              	ash	-(r3),r1		; ct
114144: 062145              	add	(r1)+,-(r5)		; ed
114146: 020073 040506       	cmp	r0,@40506(r3)		; ; FA
114152: 051514              	bis	(r5),(r4)		; LS
114154: 036505 067556       	bit	67556(r5),r5		; E=no
114160: 020164 062563       	cmp	r1,62563(r4)		; t se
114164: 062554              	add	(r5)+,@-(r4)		; le
114166: 072143              	ash	-(r3),r1		; ct
114170: 062145              	add	(r1)+,-(r5)		; ed
114172: 035051              	bit	@-(r0),@-(r1)		; ):
114174: 020040              	cmp	r0,-(r0)		;   
114176: 020040              	cmp	r0,-(r0)		;   
114200: 020040              	cmp	r0,-(r0)		;   
114202: 020040              	cmp	r0,-(r0)		;   
114204: 042040              	bic	(r0)+,-(r0)		;  D
114206: 020157              	cmp	r1,@-(r7)		; o 
114210: 067571 020165 064567	add	@20165(r5),@64567(r1)	; you wi
114216: 064163 072040       	add	-(r1),72040(r3)		; sh t
114222: 020157              	cmp	r1,@-(r7)		; o 
114224: 064143              	add	-(r1),-(r3)		; ch
114226: 067141 062547       	add	@62547(r1),-(r1)	; ange
114232: 064440              	add	-(r4),-(r0)		;  i
114234: 020164 054450       	cmp	r1,54450(r4)		; t (Y
114240: 067440 020162       	add	@20162(r4),-(r0)	;  or 
114244: 024516              	cmp	-(r5),(r6)		; N)
114246: 020077 000000       	cmp	r0,@114252		; ? ..
114252: 000000              	halt				; ..
114254: 000000              	halt				; ..
;
114256: 001750              	beq	114200			; h.
114260: 000000              	halt				; ..
;
114262: 001750              	beq	114204			; h.
114264: 000000              	halt				; ..
;
114266: 001750              	beq	114210			; h.
114270: 000000              	halt				; ..
;
114272: 001750              	beq	114214			; h.
114274: 000000              	halt				; ..
;
114276: 003720              	ble	114140			; P.
114300: 000000              	halt				; ..
;
114302: 001750              	beq	114224			; h.
114304: 000000              	halt				; ..
;
114306: 001750              	beq	114230			; h.
114310: 000000              	halt				; ..
;
114312: 001750              	beq	114234			; h.
114314: 000000              	halt				; ..
;
114316: 001750              	beq	114240			; h.
114320: 000000              	halt				; ..
;
114322: 001750              	beq	114244			; h.
114324: 000000              	halt				; ..
;
114326: 001750              	beq	114250			; h.
114330: 000000              	halt				; ..
;
114332: 005620              	sbc	(r0)+			; ..
114334: 005634              	sbc	@(r4)+			; ..
114336: 005646              	sbc	-(r6)			; &.
114340: 005660 005672       	sbc	5672(r0)		; 0.:.
114344: 005704              	tst	r4			; D.
114346: 005716              	tst	(r6)			; N.
114350: 005762 005774       	tst	5774(r2)		; r.|.
114354: 006006              	ror	r6			; ..
114356: 006016              	ror	(r6)			; ..
114360: 006026              	ror	(r6)+			; ..
114362: 006040              	ror	-(r0)			;  .
114364: 006050              	ror	@-(r0)			; (.
114366: 006744              	sxt	-(r4)			; d.
114370: 006754              	sxt	@-(r4)			; l.
114372: 006764 007022       	sxt	7022(r4)		; t...
114376: 007102              	invalid opcode			; B.
114400: 007102              	invalid opcode			; B.
114402: 007102              	invalid opcode			; B.
114404: 007102              	invalid opcode			; B.
114406: 007102              	invalid opcode			; B.
114410: 007102              	invalid opcode			; B.
114412: 007102              	invalid opcode			; B.
114414: 007102              	invalid opcode			; B.
114416: 007102              	invalid opcode			; B.
114420: 007102              	invalid opcode			; B.
114422: 007102              	invalid opcode			; B.
114424: 007102              	invalid opcode			; B.
114426: 007102              	invalid opcode			; B.
114430: 007102              	invalid opcode			; B.
114432: 007102              	invalid opcode			; B.
114434: 007030              	invalid opcode			; ..
114436: 007030              	invalid opcode			; ..
114440: 007030              	invalid opcode			; ..
114442: 007030              	invalid opcode			; ..
114444: 007030              	invalid opcode			; ..
114446: 007030              	invalid opcode			; ..
114450: 007030              	invalid opcode			; ..
114452: 007030              	invalid opcode			; ..
114454: 007030              	invalid opcode			; ..
114456: 007030              	invalid opcode			; ..
114460: 007102              	invalid opcode			; B.
114462: 007102              	invalid opcode			; B.
114464: 007102              	invalid opcode			; B.
114466: 007102              	invalid opcode			; B.
114470: 007102              	invalid opcode			; B.
114472: 007102              	invalid opcode			; B.
114474: 007102              	invalid opcode			; B.
114476: 007046              	invalid opcode			; &.
114500: 007046              	invalid opcode			; &.
114502: 007046              	invalid opcode			; &.
114504: 007046              	invalid opcode			; &.
114506: 007046              	invalid opcode			; &.
114510: 007046              	invalid opcode			; &.
114512: 007102              	invalid opcode			; B.
114514: 007102              	invalid opcode			; B.
114516: 007102              	invalid opcode			; B.
114520: 007102              	invalid opcode			; B.
114522: 007102              	invalid opcode			; B.
114524: 007102              	invalid opcode			; B.
114526: 007102              	invalid opcode			; B.
114530: 007102              	invalid opcode			; B.
114532: 007102              	invalid opcode			; B.
114534: 007102              	invalid opcode			; B.
114536: 007102              	invalid opcode			; B.
114540: 007102              	invalid opcode			; B.
114542: 007102              	invalid opcode			; B.
114544: 007102              	invalid opcode			; B.
114546: 007102              	invalid opcode			; B.
114550: 007102              	invalid opcode			; B.
114552: 007102              	invalid opcode			; B.
114554: 007102              	invalid opcode			; B.
114556: 007102              	invalid opcode			; B.
114560: 007102              	invalid opcode			; B.
114562: 007102              	invalid opcode			; B.
114564: 007102              	invalid opcode			; B.
114566: 007102              	invalid opcode			; B.
114570: 007102              	invalid opcode			; B.
114572: 007102              	invalid opcode			; B.
114574: 007102              	invalid opcode			; B.
114576: 007064              	invalid opcode			; 4.
114600: 007064              	invalid opcode			; 4.
114602: 007064              	invalid opcode			; 4.
114604: 007064              	invalid opcode			; 4.
114606: 007064              	invalid opcode			; 4.
114610: 007064              	invalid opcode			; 4.
114612: 007132              	invalid opcode			; Z.
114614: 007150              	invalid opcode			; h.
114616: 007162              	invalid opcode			; r.
114620: 007240              	invalid opcode			;  .
114622: 007254              	invalid opcode			; ,.
114624: 010650              	mov	r6,@-(r0)		; (.
114626: 010660 010670       	mov	r6,10670(r0)		; 0.8.
114632: 010700              	mov	r7,r0			; @.
114634: 010710              	mov	r7,(r0)			; H.
114636: 010744              	mov	r7,-(r4)		; d.
114640: 010766 010766       	mov	r7,10766(r6)		; v.v.
114644: 010766 010766       	mov	r7,10766(r6)		; v.v.
114650: 010766 010766       	mov	r7,10766(r6)		; v.v.
114654: 010766 010766       	mov	r7,10766(r6)		; v.v.
114660: 010766 010766       	mov	r7,10766(r6)		; v.v.
114664: 010766 010766       	mov	r7,10766(r6)		; v.v.
114670: 010766 010766       	mov	r7,10766(r6)		; v.v.
114674: 010766 010752       	mov	r7,10752(r6)		; v.j.
114700: 010752              	mov	r7,@-(r2)		; j.
114702: 010752              	mov	r7,@-(r2)		; j.
114704: 010752              	mov	r7,@-(r2)		; j.
114706: 010752              	mov	r7,@-(r2)		; j.
114710: 010752              	mov	r7,@-(r2)		; j.
114712: 010752              	mov	r7,@-(r2)		; j.
114714: 010752              	mov	r7,@-(r2)		; j.
114716: 010752              	mov	r7,@-(r2)		; j.
114720: 010752              	mov	r7,@-(r2)		; j.
114722: 011024              	mov	(r0),(r4)+		; ..
114724: 011040              	mov	(r0),-(r0)		;  .
114726: 011052              	mov	(r0),@-(r2)		; *.
114730: 011064 011076       	mov	(r0),11076(r4)		; 4.>.
114734: 043434              	bic	@(r4)+,@(r4)+		; .G
114736: 040000              	bic	r0,r0			; .@
114740: 050425              	bis	r4,(r5)+		; .Q
114742: 001371              	bne	114726			; y.
114744: 027733 163377       	cmp	@100347,@(r3)+		; [/.f
114750: 030611              	bit	r6,(r1)			; .1
114752: 070137 044303       	mul	@#44303,r1		; _pCH
114756: 050000              	bis	r0,r0			; .P
114760: 031453              	bit	(r4),@-(r3)		; +3
114762: 146167 046676 136040	bicb	46676(r1),53030		; wL>M <
114770: 046030 113200       	bic	113200(r0),@(r0)+	; .L..
114774: 032326              	bit	(r3)+,(r6)+		; V4
114776: 137625 047556       	bitb	@47556(r6),(r5)+	; .?nO
115002: 065450              	add	@-(r4),@-(r0)		; (k
115004: 027057 165777       	cmp	@165777(r0),@-(r7)	; /..k
115010: 045164 022000       	bic	@-(r1),22000(r4)	; tJ.$
115014: 012302              	mov	(r3)+,r2		; B.
115016: 012322              	mov	(r3)+,(r2)+		; R.
115020: 012322              	mov	(r3)+,(r2)+		; R.
115022: 012322              	mov	(r3)+,(r2)+		; R.
115024: 012322              	mov	(r3)+,(r2)+		; R.
115026: 012322              	mov	(r3)+,(r2)+		; R.
115030: 012322              	mov	(r3)+,(r2)+		; R.
115032: 012322              	mov	(r3)+,(r2)+		; R.
115034: 012322              	mov	(r3)+,(r2)+		; R.
115036: 012322              	mov	(r3)+,(r2)+		; R.
115040: 012322              	mov	(r3)+,(r2)+		; R.
115042: 012322              	mov	(r3)+,(r2)+		; R.
115044: 012322              	mov	(r3)+,(r2)+		; R.
115046: 012322              	mov	(r3)+,(r2)+		; R.
115050: 012322              	mov	(r3)+,(r2)+		; R.
115052: 012322              	mov	(r3)+,(r2)+		; R.
115054: 012310              	mov	(r3)+,(r0)		; H.
115056: 012310              	mov	(r3)+,(r0)		; H.
115060: 012310              	mov	(r3)+,(r0)		; H.
115062: 012310              	mov	(r3)+,(r0)		; H.
115064: 012310              	mov	(r3)+,(r0)		; H.
115066: 012310              	mov	(r3)+,(r0)		; H.
115070: 012310              	mov	(r3)+,(r0)		; H.
115072: 012310              	mov	(r3)+,(r0)		; H.
115074: 012310              	mov	(r3)+,(r0)		; H.
115076: 012310              	mov	(r3)+,(r0)		; H.
115100: 012442              	mov	(r4)+,-(r2)		; ".
115102: 012450              	mov	(r4)+,@-(r0)		; (.
115104: 012456              	mov	(r4)+,@-(r6)		; ..
115106: 012464 012472       	mov	(r4)+,12472(r4)		; 4.:.
115112: 012500              	mov	(r5)+,r0		; @.
115114: 012506              	mov	(r5)+,r6		; F.
115116: 012514              	mov	(r5)+,(r4)		; L.
115120: 012522              	mov	(r5)+,(r2)+		; R.
115122: 012530              	mov	(r5)+,@(r0)+		; X.
115124: 012536              	mov	(r5)+,@(r6)+		; ^.
115126: 012640              	mov	(r6)+,-(r0)		;  .
115130: 012646              	mov	(r6)+,-(r6)		; &.
115132: 012654              	mov	(r6)+,@-(r4)		; ,.
115134: 012662 012670       	mov	(r6)+,12670(r2)		; 2.8.
115140: 012676 013532       	mov	(r6)+,@13532(r6)	; >.Z.
115144: 013716 014070       	mov	@#14070,(r6)		; N.8.
115150: 014302              	mov	-(r3),r2		; B.
115152: 014514              	mov	-(r5),(r4)		; L.
115154: 013674 013704       	mov	@(r6)+,@13704(r4)	; <.D.
115160: 013704 013704       	mov	@#13704,r4		; D.D.
115164: 013704 013704       	mov	@#13704,r4		; D.D.
115170: 013664 013654       	mov	@(r6)+,13654(r4)	; 4.,.
115174: 013636              	mov	@(r6)+,@(r6)+		; ..
115176: 013646              	mov	@(r6)+,-(r6)		; &.
115200: 014046              	mov	-(r0),-(r6)		; &.
115202: 014040              	mov	-(r0),-(r0)		;  .
115204: 014022              	mov	-(r0),(r2)+		; ..
115206: 014032              	mov	-(r0),@(r2)+		; ..
115210: 014114              	mov	-(r1),(r4)		; L.
115212: 014156              	mov	-(r1),@-(r6)		; n.
115214: 014156              	mov	-(r1),@-(r6)		; n.
115216: 014136              	mov	-(r1),@(r6)+		; ^.
115220: 014250              	mov	-(r2),@-(r0)		; (.
115222: 014260 014232       	mov	-(r2),14232(r0)		; 0...
115226: 014242              	mov	-(r2),-(r2)		; ".
115230: 014474 014464       	mov	-(r4),@14464(r4)	; <.4.
115234: 014446              	mov	-(r4),-(r6)		; &.
115236: 014456              	mov	-(r4),@-(r6)		; ..
115240: 014700              	mov	-(r7),r0		; @.
115242: 014670 014652       	mov	-(r6),@14652(r0)	; 8.*.
115246: 014662 015262       	mov	-(r6),15262(r2)		; 2.2.
115252: 015230              	mov	@-(r2),@(r0)+		; ..
115254: 015210              	mov	@-(r2),(r0)		; ..
115256: 015076 015056       	mov	@-(r0),@15056(r6)	; >...
115262: 015042              	mov	@-(r0),-(r2)		; ".
115264: 015022              	mov	@-(r0),(r2)+		; ..
115266: 015002              	mov	@-(r0),r2		; ..
115270: 015276 015276       	mov	@-(r2),@15276(r6)	; >.>.
115274: 014772 023060       	mov	-(r7),@23060(r2)	; z.0&
115300: 023062 023112       	cmp	@(r0)+,23112(r2)	; 2&J&
115304: 023122              	cmp	@(r1)+,(r2)+		; R&
115306: 025310              	cmp	@-(r3),(r0)		; H*
115310: 025312              	cmp	@-(r3),(r2)		; J*
115312: 025342              	cmp	@-(r3),-(r2)		; b*
115314: 025352              	cmp	@-(r3),@-(r2)		; j*
115316: 031176 031200       	bit	(r1),@31200(r6)		; ~2.2
115322: 031230              	bit	(r2),@(r0)+		; .2
115324: 031240              	bit	(r2),-(r0)		;  2
115326: 032672 032700       	bit	(r6)+,@32700(r2)	; :5@5
115332: 032712 032724       	bit	#32724,(r2)		; J5T5
115336: 032736 032750       	bit	#32750,@(r6)+		; ^5h5
115342: 032762 032774 033006	bit	#32774,33006(r2)	; r5|5.6
115350: 033020              	bit	@(r0)+,(r0)+		; .6
115352: 033032              	bit	@(r0)+,@(r2)+		; .6
115354: 033044              	bit	@(r0)+,-(r4)		; $6
115356: 033056              	bit	@(r0)+,@-(r6)		; .6
115360: 033070 000000       	bit	@(r0)+,@0(r0)		; 86..
115364: 000000              	halt				; ..
115366: 000000              	halt				; ..
;
115370: 033133              	bit	@(r1)+,@(r3)+		; [6
115372: 024556              	cmp	-(r5),@-(r6)		; n)
115374: 031443              	bit	(r4),-(r3)		; #3
115376: 032043              	bit	(r0)+,-(r3)		; #4
115400: 032443              	bit	(r4)+,-(r3)		; #5
115402: 033043              	bit	@(r0)+,-(r3)		; #6
115404: 030133              	bit	r1,@(r3)+		; [0
115406: 024555              	cmp	-(r5),@-(r5)		; m)
115410: 030533              	bit	r5,@(r3)+		; [1
115412: 024555              	cmp	-(r5),@-(r5)		; m)
115414: 032133              	bit	(r1)+,@(r3)+		; [4
115416: 024555              	cmp	-(r5),@-(r5)		; m)
115420: 032533              	bit	(r5)+,@(r3)+		; [5
115422: 024555              	cmp	-(r5),@-(r5)		; m)
115424: 033533              	bit	@(r5)+,@(r3)+		; [7
115426: 024555              	cmp	-(r5),@-(r5)		; m)
115430: 045533              	bic	@-(r5),@(r3)+		; [K
115432: 030533              	bit	r5,@(r3)+		; [1
115434: 024513              	cmp	-(r5),(r3)		; K)
115436: 031133              	bit	(r1),@(r3)+		; [2
115440: 024513              	cmp	-(r5),(r3)		; K)
115442: 045133              	bic	@-(r1),@(r3)+		; [J
115444: 030533              	bit	r5,@(r3)+		; [1
115446: 024512              	cmp	-(r5),(r2)		; J)
115450: 031133              	bit	(r1),@(r3)+		; [2
115452: 024512              	cmp	-(r5),(r2)		; J)
115454: 030050              	bit	r0,@-(r0)		; (0
115456: 041050              	bic	(r0),@-(r0)		; (B
115460: 000000              	halt				; ..
115462: 000000              	halt				; ..
115464: 000000              	halt				; ..
115466: 000000              	halt				; ..
115470: 000000              	halt				; ..
115472: 000000              	halt				; ..
115474: 000000              	halt				; ..
115476: 000000              	halt				; ..
;
115500: 177777 177777       	ldcdf	f3,@115503		; ....
115504: 177777 177777       	ldcdf	f3,@115507		; ....
115510: 177777 177777       	ldcdf	f3,@115513		; ....
115514: 177777 177777       	ldcdf	f3,@115517		; ....
115520: 177777 177777       	ldcdf	f3,@115523		; ....
115524: 177777 177777       	ldcdf	f3,@115527		; ....
115530: 177777 177777       	ldcdf	f3,@115533		; ....
115534: 177777 177777       	ldcdf	f3,@115537		; ....
115540: 177777 177777       	ldcdf	f3,@115543		; ....
115544: 177777 177777       	ldcdf	f3,@115547		; ....
115550: 177777 177777       	ldcdf	f3,@115553		; ....
115554: 177777 177777       	ldcdf	f3,@115557		; ....
115560: 177777 177777       	ldcdf	f3,@115563		; ....
115564: 177777 177777       	ldcdf	f3,@115567		; ....
115570: 177777 177777       	ldcdf	f3,@115573		; ....
115574: 177777 177777       	ldcdf	f3,@115577		; ....
115600: 177777 177777       	ldcdf	f3,@115603		; ....
115604: 177777 177777       	ldcdf	f3,@115607		; ....
115610: 177777 177777       	ldcdf	f3,@115613		; ....
115614: 177777 177777       	ldcdf	f3,@115617		; ....
115620: 177777 177777       	ldcdf	f3,@115623		; ....
115624: 177777 177777       	ldcdf	f3,@115627		; ....
115630: 177777 177777       	ldcdf	f3,@115633		; ....
115634: 177777 177777       	ldcdf	f3,@115637		; ....
115640: 177777 177777       	ldcdf	f3,@115643		; ....
115644: 177777 177777       	ldcdf	f3,@115647		; ....
115650: 177777 177777       	ldcdf	f3,@115653		; ....
115654: 177777 177777       	ldcdf	f3,@115657		; ....
115660: 177777 177777       	ldcdf	f3,@115663		; ....
115664: 177777 177777       	ldcdf	f3,@115667		; ....
115670: 177777 177777       	ldcdf	f3,@115673		; ....
115674: 177777 177777       	ldcdf	f3,@115677		; ....
115700: 177777 177777       	ldcdf	f3,@115703		; ....
115704: 177777 177777       	ldcdf	f3,@115707		; ....
115710: 177777 177777       	ldcdf	f3,@115713		; ....
115714: 177777 177777       	ldcdf	f3,@115717		; ....
115720: 177777 177777       	ldcdf	f3,@115723		; ....
115724: 177777 177777       	ldcdf	f3,@115727		; ....
115730: 177777 177777       	ldcdf	f3,@115733		; ....
115734: 177777 177777       	ldcdf	f3,@115737		; ....
115740: 177777 177777       	ldcdf	f3,@115743		; ....
115744: 177777 177777       	ldcdf	f3,@115747		; ....
115750: 177777 177777       	ldcdf	f3,@115753		; ....
115754: 177777 177777       	ldcdf	f3,@115757		; ....
115760: 177777 177777       	ldcdf	f3,@115763		; ....
115764: 177777 177777       	ldcdf	f3,@115767		; ....
115770: 177777 177777       	ldcdf	f3,@115773		; ....
115774: 177777 177777       	ldcdf	f3,@115777		; ....
116000: 177777 177777       	ldcdf	f3,@116003		; ....
116004: 177777 177777       	ldcdf	f3,@116007		; ....
116010: 177777 177777       	ldcdf	f3,@116013		; ....
116014: 177777 177777       	ldcdf	f3,@116017		; ....
116020: 177777 177777       	ldcdf	f3,@116023		; ....
116024: 177777 177777       	ldcdf	f3,@116027		; ....
116030: 177777 177777       	ldcdf	f3,@116033		; ....
116034: 177777 177777       	ldcdf	f3,@116037		; ....
116040: 177777 177777       	ldcdf	f3,@116043		; ....
116044: 177777 177777       	ldcdf	f3,@116047		; ....
116050: 177777 177777       	ldcdf	f3,@116053		; ....
116054: 177777 177777       	ldcdf	f3,@116057		; ....
116060: 177777 177777       	ldcdf	f3,@116063		; ....
116064: 177777 177777       	ldcdf	f3,@116067		; ....
116070: 177777 177777       	ldcdf	f3,@116073		; ....
116074: 177777 177777       	ldcdf	f3,@116077		; ....
116100: 177777 177777       	ldcdf	f3,@116103		; ....
116104: 177777 177777       	ldcdf	f3,@116107		; ....
116110: 177777 177777       	ldcdf	f3,@116113		; ....
116114: 177777 177777       	ldcdf	f3,@116117		; ....
116120: 177777 177777       	ldcdf	f3,@116123		; ....
116124: 177777 177777       	ldcdf	f3,@116127		; ....
116130: 177777 177777       	ldcdf	f3,@116133		; ....
116134: 177777 177777       	ldcdf	f3,@116137		; ....
116140: 177777 177777       	ldcdf	f3,@116143		; ....
116144: 177777 177777       	ldcdf	f3,@116147		; ....
116150: 177777 177777       	ldcdf	f3,@116153		; ....
116154: 177777 177777       	ldcdf	f3,@116157		; ....
116160: 177777 177777       	ldcdf	f3,@116163		; ....
116164: 177777 177777       	ldcdf	f3,@116167		; ....
116170: 177777 177777       	ldcdf	f3,@116173		; ....
116174: 177777 177777       	ldcdf	f3,@116177		; ....
116200: 177777 177777       	ldcdf	f3,@116203		; ....
116204: 177777 177777       	ldcdf	f3,@116207		; ....
116210: 177777 177777       	ldcdf	f3,@116213		; ....
116214: 177777 177777       	ldcdf	f3,@116217		; ....
116220: 177777 177777       	ldcdf	f3,@116223		; ....
116224: 177777 177777       	ldcdf	f3,@116227		; ....
116230: 177777 177777       	ldcdf	f3,@116233		; ....
116234: 177777 177777       	ldcdf	f3,@116237		; ....
116240: 177777 177777       	ldcdf	f3,@116243		; ....
116244: 177777 177777       	ldcdf	f3,@116247		; ....
116250: 177777 177777       	ldcdf	f3,@116253		; ....
116254: 177777 177777       	ldcdf	f3,@116257		; ....
116260: 177777 177777       	ldcdf	f3,@116263		; ....
116264: 177777 177777       	ldcdf	f3,@116267		; ....
116270: 177777 177777       	ldcdf	f3,@116273		; ....
116274: 177777 177777       	ldcdf	f3,@116277		; ....
116300: 177777 177777       	ldcdf	f3,@116303		; ....
116304: 177777 177777       	ldcdf	f3,@116307		; ....
116310: 177777 177777       	ldcdf	f3,@116313		; ....
116314: 177777 177777       	ldcdf	f3,@116317		; ....
116320: 177777 177777       	ldcdf	f3,@116323		; ....
116324: 177777 177777       	ldcdf	f3,@116327		; ....
116330: 177777 177777       	ldcdf	f3,@116333		; ....
116334: 177777 177777       	ldcdf	f3,@116337		; ....
116340: 177777 177777       	ldcdf	f3,@116343		; ....
116344: 177777 177777       	ldcdf	f3,@116347		; ....
116350: 177777 177777       	ldcdf	f3,@116353		; ....
116354: 177777 177777       	ldcdf	f3,@116357		; ....
116360: 177777 177777       	ldcdf	f3,@116363		; ....
116364: 177777 177777       	ldcdf	f3,@116367		; ....
116370: 177777 177777       	ldcdf	f3,@116373		; ....
116374: 177777 177777       	ldcdf	f3,@116377		; ....
116400: 177777 177777       	ldcdf	f3,@116403		; ....
116404: 177777 177777       	ldcdf	f3,@116407		; ....
116410: 177777 177777       	ldcdf	f3,@116413		; ....
116414: 177777 177777       	ldcdf	f3,@116417		; ....
116420: 177777 177777       	ldcdf	f3,@116423		; ....
116424: 177777 177777       	ldcdf	f3,@116427		; ....
116430: 177777 177777       	ldcdf	f3,@116433		; ....
116434: 177777 177777       	ldcdf	f3,@116437		; ....
116440: 177777 177777       	ldcdf	f3,@116443		; ....
116444: 177777 177777       	ldcdf	f3,@116447		; ....
116450: 177777 177777       	ldcdf	f3,@116453		; ....
116454: 177777 177777       	ldcdf	f3,@116457		; ....
116460: 177777 177777       	ldcdf	f3,@116463		; ....
116464: 177777 177777       	ldcdf	f3,@116467		; ....
116470: 177777 177777       	ldcdf	f3,@116473		; ....
116474: 177777 177777       	ldcdf	f3,@116477		; ....
116500: 177777 177777       	ldcdf	f3,@116503		; ....
116504: 177777 177777       	ldcdf	f3,@116507		; ....
116510: 177777 177777       	ldcdf	f3,@116513		; ....
116514: 177777 177777       	ldcdf	f3,@116517		; ....
116520: 177777 177777       	ldcdf	f3,@116523		; ....
116524: 177777 177777       	ldcdf	f3,@116527		; ....
116530: 177777 177777       	ldcdf	f3,@116533		; ....
116534: 177777 177777       	ldcdf	f3,@116537		; ....
116540: 177777 177777       	ldcdf	f3,@116543		; ....
116544: 177777 177777       	ldcdf	f3,@116547		; ....
116550: 177777 177777       	ldcdf	f3,@116553		; ....
116554: 177777 177777       	ldcdf	f3,@116557		; ....
116560: 177777 177777       	ldcdf	f3,@116563		; ....
116564: 177777 177777       	ldcdf	f3,@116567		; ....
116570: 177777 177777       	ldcdf	f3,@116573		; ....
116574: 177777 177777       	ldcdf	f3,@116577		; ....
116600: 177777 177777       	ldcdf	f3,@116603		; ....
116604: 177777 177777       	ldcdf	f3,@116607		; ....
116610: 177777 177777       	ldcdf	f3,@116613		; ....
116614: 177777 177777       	ldcdf	f3,@116617		; ....
116620: 177777 177777       	ldcdf	f3,@116623		; ....
116624: 177777 177777       	ldcdf	f3,@116627		; ....
116630: 177777 177777       	ldcdf	f3,@116633		; ....
116634: 177777 177777       	ldcdf	f3,@116637		; ....
116640: 177777 177777       	ldcdf	f3,@116643		; ....
116644: 177777 177777       	ldcdf	f3,@116647		; ....
116650: 177777 177777       	ldcdf	f3,@116653		; ....
116654: 177777 177777       	ldcdf	f3,@116657		; ....
116660: 177777 177777       	ldcdf	f3,@116663		; ....
116664: 177777 177777       	ldcdf	f3,@116667		; ....
116670: 177777 177777       	ldcdf	f3,@116673		; ....
116674: 177777 177777       	ldcdf	f3,@116677		; ....
116700: 177777 177777       	ldcdf	f3,@116703		; ....
116704: 177777 177777       	ldcdf	f3,@116707		; ....
116710: 177777 177777       	ldcdf	f3,@116713		; ....
116714: 177777 177777       	ldcdf	f3,@116717		; ....
116720: 177777 177777       	ldcdf	f3,@116723		; ....
116724: 177777 177777       	ldcdf	f3,@116727		; ....
116730: 177777 177777       	ldcdf	f3,@116733		; ....
116734: 177777 177777       	ldcdf	f3,@116737		; ....
116740: 177777 177777       	ldcdf	f3,@116743		; ....
116744: 177777 177777       	ldcdf	f3,@116747		; ....
116750: 177777 177777       	ldcdf	f3,@116753		; ....
116754: 177777 177777       	ldcdf	f3,@116757		; ....
116760: 177777 177777       	ldcdf	f3,@116763		; ....
116764: 177777 177777       	ldcdf	f3,@116767		; ....
116770: 177777 177777       	ldcdf	f3,@116773		; ....
116774: 177777 177777       	ldcdf	f3,@116777		; ....
117000: 177777 177777       	ldcdf	f3,@117003		; ....
117004: 177777 177777       	ldcdf	f3,@117007		; ....
117010: 177777 177777       	ldcdf	f3,@117013		; ....
117014: 177777 177777       	ldcdf	f3,@117017		; ....
117020: 177777 177777       	ldcdf	f3,@117023		; ....
117024: 177777 177777       	ldcdf	f3,@117027		; ....
117030: 177777 177777       	ldcdf	f3,@117033		; ....
117034: 177777 177777       	ldcdf	f3,@117037		; ....
117040: 177777 177777       	ldcdf	f3,@117043		; ....
117044: 177777 177777       	ldcdf	f3,@117047		; ....
117050: 177777 177777       	ldcdf	f3,@117053		; ....
117054: 177777 177777       	ldcdf	f3,@117057		; ....
117060: 177777 177777       	ldcdf	f3,@117063		; ....
117064: 177777 177777       	ldcdf	f3,@117067		; ....
117070: 177777 177777       	ldcdf	f3,@117073		; ....
117074: 177777 177777       	ldcdf	f3,@117077		; ....
117100: 177777 177777       	ldcdf	f3,@117103		; ....
117104: 177777 177777       	ldcdf	f3,@117107		; ....
117110: 177777 177777       	ldcdf	f3,@117113		; ....
117114: 177777 177777       	ldcdf	f3,@117117		; ....
117120: 177777 177777       	ldcdf	f3,@117123		; ....
117124: 177777 177777       	ldcdf	f3,@117127		; ....
117130: 177777 177777       	ldcdf	f3,@117133		; ....
117134: 177777 177777       	ldcdf	f3,@117137		; ....
117140: 177777 177777       	ldcdf	f3,@117143		; ....
117144: 177777 177777       	ldcdf	f3,@117147		; ....
117150: 177777 177777       	ldcdf	f3,@117153		; ....
117154: 177777 177777       	ldcdf	f3,@117157		; ....
117160: 177777 177777       	ldcdf	f3,@117163		; ....
117164: 177777 177777       	ldcdf	f3,@117167		; ....
117170: 177777 177777       	ldcdf	f3,@117173		; ....
117174: 177777 177777       	ldcdf	f3,@117177		; ....
117200: 177777 177777       	ldcdf	f3,@117203		; ....
117204: 177777 177777       	ldcdf	f3,@117207		; ....
117210: 177777 177777       	ldcdf	f3,@117213		; ....
117214: 177777 177777       	ldcdf	f3,@117217		; ....
117220: 177777 177777       	ldcdf	f3,@117223		; ....
117224: 177777 177777       	ldcdf	f3,@117227		; ....
117230: 177777 177777       	ldcdf	f3,@117233		; ....
117234: 177777 177777       	ldcdf	f3,@117237		; ....
117240: 177777 177777       	ldcdf	f3,@117243		; ....
117244: 177777 177777       	ldcdf	f3,@117247		; ....
117250: 177777 177777       	ldcdf	f3,@117253		; ....
117254: 177777 177777       	ldcdf	f3,@117257		; ....
117260: 177777 177777       	ldcdf	f3,@117263		; ....
117264: 177777 177777       	ldcdf	f3,@117267		; ....
117270: 177777 177777       	ldcdf	f3,@117273		; ....
117274: 177777 177777       	ldcdf	f3,@117277		; ....
117300: 177777 177777       	ldcdf	f3,@117303		; ....
117304: 177777 177777       	ldcdf	f3,@117307		; ....
117310: 177777 177777       	ldcdf	f3,@117313		; ....
117314: 177777 177777       	ldcdf	f3,@117317		; ....
117320: 177777 177777       	ldcdf	f3,@117323		; ....
117324: 177777 177777       	ldcdf	f3,@117327		; ....
117330: 177777 177777       	ldcdf	f3,@117333		; ....
117334: 177777 177777       	ldcdf	f3,@117337		; ....
117340: 177777 177777       	ldcdf	f3,@117343		; ....
117344: 177777 177777       	ldcdf	f3,@117347		; ....
117350: 177777 177777       	ldcdf	f3,@117353		; ....
117354: 177777 177777       	ldcdf	f3,@117357		; ....
117360: 177777 177777       	ldcdf	f3,@117363		; ....
117364: 177777 177777       	ldcdf	f3,@117367		; ....
117370: 177777 177777       	ldcdf	f3,@117373		; ....
117374: 177777 177777       	ldcdf	f3,@117377		; ....
117400: 177777 177777       	ldcdf	f3,@117403		; ....
117404: 177777 177777       	ldcdf	f3,@117407		; ....
117410: 177777 177777       	ldcdf	f3,@117413		; ....
117414: 177777 177777       	ldcdf	f3,@117417		; ....
117420: 177777 177777       	ldcdf	f3,@117423		; ....
117424: 177777 177777       	ldcdf	f3,@117427		; ....
117430: 177777 177777       	ldcdf	f3,@117433		; ....
117434: 177777 177777       	ldcdf	f3,@117437		; ....
117440: 177777 177777       	ldcdf	f3,@117443		; ....
117444: 177777 177777       	ldcdf	f3,@117447		; ....
117450: 177777 177777       	ldcdf	f3,@117453		; ....
117454: 177777 177777       	ldcdf	f3,@117457		; ....
117460: 177777 177777       	ldcdf	f3,@117463		; ....
117464: 177777 177777       	ldcdf	f3,@117467		; ....
117470: 177777 177777       	ldcdf	f3,@117473		; ....
117474: 177777 177777       	ldcdf	f3,@117477		; ....
117500: 177777 177777       	ldcdf	f3,@117503		; ....
117504: 177777 177777       	ldcdf	f3,@117507		; ....
117510: 177777 177777       	ldcdf	f3,@117513		; ....
117514: 177777 177777       	ldcdf	f3,@117517		; ....
117520: 177777 177777       	ldcdf	f3,@117523		; ....
117524: 177777 177777       	ldcdf	f3,@117527		; ....
117530: 177777 177777       	ldcdf	f3,@117533		; ....
117534: 177777 177777       	ldcdf	f3,@117537		; ....
117540: 177777 177777       	ldcdf	f3,@117543		; ....
117544: 177777 177777       	ldcdf	f3,@117547		; ....
117550: 177777 177777       	ldcdf	f3,@117553		; ....
117554: 177777 177777       	ldcdf	f3,@117557		; ....
117560: 177777 177777       	ldcdf	f3,@117563		; ....
117564: 177777 177777       	ldcdf	f3,@117567		; ....
117570: 177777 177777       	ldcdf	f3,@117573		; ....
117574: 177777 177777       	ldcdf	f3,@117577		; ....
117600: 177777 177777       	ldcdf	f3,@117603		; ....
117604: 177777 177777       	ldcdf	f3,@117607		; ....
117610: 177777 177777       	ldcdf	f3,@117613		; ....
117614: 177777 177777       	ldcdf	f3,@117617		; ....
117620: 177777 177777       	ldcdf	f3,@117623		; ....
117624: 177777 177777       	ldcdf	f3,@117627		; ....
117630: 177777 177777       	ldcdf	f3,@117633		; ....
117634: 177777 177777       	ldcdf	f3,@117637		; ....
117640: 177777 177777       	ldcdf	f3,@117643		; ....
117644: 177777 177777       	ldcdf	f3,@117647		; ....
117650: 177777 177777       	ldcdf	f3,@117653		; ....
117654: 177777 177777       	ldcdf	f3,@117657		; ....
117660: 177777 177777       	ldcdf	f3,@117663		; ....
117664: 177777 177777       	ldcdf	f3,@117667		; ....
117670: 177777 177777       	ldcdf	f3,@117673		; ....
117674: 177777 177777       	ldcdf	f3,@117677		; ....
117700: 177777 177777       	ldcdf	f3,@117703		; ....
117704: 177777 177777       	ldcdf	f3,@117707		; ....
117710: 177777 177777       	ldcdf	f3,@117713		; ....
117714: 177777 177777       	ldcdf	f3,@117717		; ....
117720: 177777 177777       	ldcdf	f3,@117723		; ....
117724: 177777 177777       	ldcdf	f3,@117727		; ....
117730: 177777 177777       	ldcdf	f3,@117733		; ....
117734: 177777 177777       	ldcdf	f3,@117737		; ....
117740: 177777 177777       	ldcdf	f3,@117743		; ....
117744: 177777 177777       	ldcdf	f3,@117747		; ....
117750: 177777 177777       	ldcdf	f3,@117753		; ....
117754: 177777 177777       	ldcdf	f3,@117757		; ....
117760: 177777 177777       	ldcdf	f3,@117763		; ....
117764: 177777 177777       	ldcdf	f3,@117767		; ....
117770: 177777 177777       	ldcdf	f3,@117773		; ....
117774: 177777 177777       	ldcdf	f3,@117777		; ....
