;
; pdp11dasm version 0.0.3
; disassembly of mdrsys_le16.bin
;
100000: 106427 000340       	mtps	#340			; ..`.
100004: 012700 001620       	mov	#1620,r0		; @...
100010: 012702 000026       	mov	#26,r2			; B...
100014: 005001              	clr	r1			; ..
100016: 062001              	add	(r0)+,r1		; .d
100020: 077202              	sob	r2,16			; .~
100022: 005701              	tst	r1			; A.
100024: 001010              	bne	46			; ..
100026: 012703 113354       	mov	#113354,r3		; C.l.
100032: 012705 002000       	mov	#2000,r5		; E...
100036: 012704 100000       	mov	#100000,r4		; D...
100042: 021365 000012       	cmp	(r3),12(r5)		; u"..
100046: 001172              	bne	434			; z.
100050: 062703 000010       	add	#10,r3			; Ce..
100054: 005765 000012       	tst	12(r5)			; u...
100060: 001447              	beq	200			; '.
100062: 016500 000032       	mov	32(r5),r0		; @...
100066: 001003              	bne	76			; ..
100070: 062705 000040       	add	#40,r5			; Ee .
100074: 000762              	br	42			; r.
;
100076: 022744 177767       	cmp	#177767,-(r4)		; d%w.
100102: 001361              	bne	46			; q.
100104: 022744 177771       	cmp	#177771,-(r4)		; d%y.
100110: 001356              	bne	46			; n.
100112: 022744 177773       	cmp	#177773,-(r4)		; d%{.
100116: 001353              	bne	46			; k.
100120: 022744 177775       	cmp	#177775,-(r4)		; d%}.
100124: 001350              	bne	46			; h.
100126: 022744 177777       	cmp	#177777,-(r4)		; d%..
100132: 001345              	bne	46			; e.
100134: 160004              	sub	r0,r4			; .`
100136: 160004              	sub	r0,r4			; .`
100140: 022744 177777       	cmp	#177777,-(r4)		; d%..
100144: 001340              	bne	46			; `.
100146: 022744 177775       	cmp	#177775,-(r4)		; d%}.
100152: 001335              	bne	46			; ].
100154: 022744 177773       	cmp	#177773,-(r4)		; d%{.
100160: 001332              	bne	46			; Z.
100162: 022744 177771       	cmp	#177771,-(r4)		; d%y.
100166: 001327              	bne	46			; W.
100170: 022744 177767       	cmp	#177767,-(r4)		; d%w.
100174: 001324              	bne	46			; T.
100176: 000734              	br	70			; \.
;
100200: 012700 001000       	mov	#1000,r0		; @...
100204: 012701 005000       	mov	#5000,r1		; A...
100210: 016002 000016       	mov	16(r0),r2		; ....
100214: 001440              	beq	316			;  .
100216: 006302              	asl	r2			; B.
100220: 006302              	asl	r2			; B.
100222: 006302              	asl	r2			; B.
100224: 060102              	add	r1,r2			; B`
100226: 026001 000000       	cmp	0(r0),r1		; .,..
100232: 002500              	blt	434			; @.
100234: 026001 000002       	cmp	2(r0),r1		; .,..
100240: 002475              	blt	434			; =.
100242: 026002 000000       	cmp	0(r0),r2		; .,..
100246: 002072              	bge	434			; :.
100250: 026002 000002       	cmp	2(r0),r2		; .,..
100254: 002067              	bge	434			; 7.
100256: 010103              	mov	r1,r3			; C.
100260: 010304              	mov	r3,r4			; D.
100262: 062704 000010       	add	#10,r4			; De..
100266: 021304              	cmp	(r3),r4			; D"
100270: 001002              	bne	276			; ..
100272: 010403              	mov	r4,r3			; ..
100274: 000771              	br	260			; y.
;
100276: 020402              	cmp	r4,r2			; .!
100300: 001055              	bne	434			; -.
100302: 021301              	cmp	(r3),r1			; A"
100304: 001053              	bne	434			; +.
100306: 010401              	mov	r4,r1			; ..
100310: 062700 000030       	add	#30,r0			; @e..
100314: 000735              	br	210			; ].
;
100316: 012700 002000       	mov	#2000,r0		; @...
100322: 016002 000040       	mov	40(r0),r2		; .. .
100326: 001002              	bne	334			; ..
100330: 000137 101402       	jmp	@#101402		; _...
;
100334: 006302              	asl	r2			; B.
100336: 006302              	asl	r2			; B.
100340: 006302              	asl	r2			; B.
100342: 060102              	add	r1,r2			; B`
100344: 026001 000042       	cmp	42(r0),r1		; .,".
100350: 002431              	blt	434			; ..
100352: 026001 000044       	cmp	44(r0),r1		; .,$.
100356: 002426              	blt	434			; ..
100360: 026002 000042       	cmp	42(r0),r2		; .,".
100364: 002023              	bge	434			; ..
100366: 026002 000044       	cmp	44(r0),r2		; .,$.
100372: 002020              	bge	434			; ..
100374: 010103              	mov	r1,r3			; C.
100376: 010304              	mov	r3,r4			; D.
100400: 062704 000010       	add	#10,r4			; De..
100404: 021304              	cmp	(r3),r4			; D"
100406: 001002              	bne	414			; ..
100410: 010403              	mov	r4,r3			; ..
100412: 000771              	br	376			; y.
;
100414: 020402              	cmp	r4,r2			; .!
100416: 001006              	bne	434			; ..
100420: 021301              	cmp	(r3),r1			; A"
100422: 001004              	bne	434			; ..
100424: 010401              	mov	r4,r1			; ..
100426: 062700 000100       	add	#100,r0			; @e@.
100432: 000733              	br	322			; [.
;
100434: 012706 100000       	mov	#100000,r6		; F...
100440: 005000              	clr	r0			; ..
100442: 005020              	clr	(r0)+			; ..
100444: 020006              	cmp	r0,r6			; . 
100446: 103775              	bcs	442			; }.
100450: 012700 100470       	mov	#100470,r0		; @.8.
100454: 012001              	mov	(r0)+,r1		; ..
100456: 001446              	beq	574			; &.
100460: 012011              	mov	(r0)+,(r1)		; ..
100462: 012061 000002       	mov	(r0)+,2(r1)		; 1...
100466: 000772              	br	454			; z.
;
100470: 000004              	iot				; ..
100472: 106774 000340       	mfps	@340(r4)		; |.`.
100476: 000010              	invalid opcode			; ..
100500: 105206              	incb	r6			; ..
100502: 000340              	swab	-(r0)			; `.
100504: 000014              	invalid opcode			; ..
100506: 106170 000340       	rolb	@340(r0)		; x.`.
100512: 000020              	invalid opcode			; ..
100514: 106730              	mfps	@(r0)+			; X.
100516: 000340              	swab	-(r0)			; `.
100520: 000024              	invalid opcode			; ..
100522: 107100              	invalid opcode			; @.
100524: 000340              	swab	-(r0)			; `.
100526: 000030              	invalid opcode			; ..
100530: 106752              	mfps	@-(r2)			; j.
100532: 000340              	swab	-(r0)			; `.
100534: 000034              	invalid opcode			; ..
100536: 103172              	bcc	1124			; z.
100540: 000340              	swab	-(r0)			; `.
100542: 000060              	invalid opcode			; 0.
100544: 105012              	clrb	(r2)			; ..
100546: 000340              	swab	-(r0)			; `.
100550: 000064              	invalid opcode			; 4.
100552: 105114              	comb	(r4)			; L.
100554: 000340              	swab	-(r0)			; `.
100556: 000100              	jmp	r0			; @.
;
100560: 102142              	bvc	1066			; b.
100562: 000341              	swab	-(r1)			; a.
100564: 000244              	clz				; $.
100566: 107016              	invalid opcode			; ..
100570: 000340              	swab	-(r0)			; `.
100572: 000000              	halt				; ..
;
100574: 012700 001000       	mov	#1000,r0		; @...
100600: 012701 113014       	mov	#113014,r1		; A...
100604: 005002              	clr	r2			; ..
100606: 012160 000004       	mov	(r1)+,4(r0)		; p...
100612: 001440              	beq	714			;  .
100614: 012160 000006       	mov	(r1)+,6(r0)		; p...
100620: 012160 000012       	mov	(r1)+,12(r0)		; p...
100624: 012160 000014       	mov	(r1)+,14(r0)		; p...
100630: 012160 000016       	mov	(r1)+,16(r0)		; p...
100634: 012160 000022       	mov	(r1)+,22(r0)		; p...
100640: 012160 000020       	mov	(r1)+,20(r0)		; p...
100644: 012160 000026       	mov	(r1)+,26(r0)		; p...
100650: 016070 000006 000004	mov	6(r0),@4(r0)		; 8.....
100656: 012704 000340       	mov	#340,r4			; D.`.
100662: 060204              	add	r2,r4			; .`
100664: 016003 000004       	mov	4(r0),r3		; ....
100670: 010463 000002       	mov	r4,2(r3)		; 3...
100674: 062700 000030       	add	#30,r0			; @e..
100700: 005202              	inc	r2			; ..
100702: 010037 001772       	mov	r0,@#1772		; ..z.
100706: 022702 000020       	cmp	#20,r2			; B%..
100712: 003335              	bgt	606			; ].
100714: 012700 002000       	mov	#2000,r0		; @...
100720: 012701 113354       	mov	#113354,r1		; A.l.
100724: 012160 000012       	mov	(r1)+,12(r0)		; p...
100730: 012160 000010       	mov	(r1)+,10(r0)		; p...
100734: 012160 000032       	mov	(r1)+,32(r0)		; p...
100740: 012160 000040       	mov	(r1)+,40(r0)		; p. .
100744: 010037 001774       	mov	r0,@#1774		; ..|.
100750: 005711              	tst	(r1)			; I.
100752: 001405              	beq	766			; ..
100754: 012710 100000       	mov	#100000,(r0)		; H...
100760: 062700 000100       	add	#100,r0			; @e@.
100764: 000757              	br	724			; o.
;
100766: 013700 113654       	mov	@#113654,r0		; @.,.
100772: 012746 000006       	mov	#6,-(r6)		; f...
100776: 072026              	ash	(r6)+,r0		; .t
101000: 062700 002000       	add	#2000,r0		; @e..
101004: 010037 001744       	mov	r0,@#1744		; ..d.
101010: 005010              	clr	(r0)			; ..
101012: 012701 100000       	mov	#100000,r1		; A...
101016: 012700 002000       	mov	#2000,r0		; @...
101022: 005760 000012       	tst	12(r0)			; p...
101026: 001441              	beq	1132			; !.
101030: 005760 000032       	tst	32(r0)			; p...
101034: 001003              	bne	1044			; ..
101036: 062700 000100       	add	#100,r0			; @e@.
101042: 000767              	br	1022			; w.
;
101044: 012741 177767       	mov	#177767,-(r1)		; a.w.
101050: 012741 177771       	mov	#177771,-(r1)		; a.y.
101054: 012741 177773       	mov	#177773,-(r1)		; a.{.
101060: 012741 177775       	mov	#177775,-(r1)		; a.}.
101064: 012741 177777       	mov	#177777,-(r1)		; a...
101070: 010160 000034       	mov	r1,34(r0)		; p...
101074: 166001 000032       	sub	32(r0),r1		; .l..
101100: 166001 000032       	sub	32(r0),r1		; .l..
101104: 012741 177777       	mov	#177777,-(r1)		; a...
101110: 012741 177775       	mov	#177775,-(r1)		; a.}.
101114: 012741 177773       	mov	#177773,-(r1)		; a.{.
101120: 012741 177771       	mov	#177771,-(r1)		; a.y.
101124: 012741 177767       	mov	#177767,-(r1)		; a.w.
101130: 000742              	br	1036			; b.
;
101132: 010137 001766       	mov	r1,@#1766		; _.v.
101136: 010106              	mov	r1,r6			; F.
101140: 012700 001000       	mov	#1000,r0		; @...
101144: 012701 005000       	mov	#5000,r1		; A...
101150: 005760 000004       	tst	4(r0)			; p...
101154: 001433              	beq	1244			; ..
101156: 022760 000002 000016	cmp	#2,16(r0)		; p%....
101164: 002003              	bge	1174			; ..
101166: 062760 000002 000016	add	#2,16(r0)		; pe....
101174: 016002 000016       	mov	16(r0),r2		; ....
101200: 010103              	mov	r1,r3			; C.
101202: 010160 000000       	mov	r1,0(r0)		; p...
101206: 010160 000002       	mov	r1,2(r0)		; p...
101212: 010304              	mov	r3,r4			; D.
101214: 062704 000010       	add	#10,r4			; De..
101220: 010413              	mov	r4,(r3)			; ..
101222: 010403              	mov	r4,r3			; ..
101224: 077206              	sob	r2,1212			; .~
101226: 162703 000010       	sub	#10,r3			; Ce..
101232: 010113              	mov	r1,(r3)			; K.
101234: 010401              	mov	r4,r1			; ..
101236: 062700 000030       	add	#30,r0			; @e..
101242: 000742              	br	1150			; b.
;
101244: 012700 002000       	mov	#2000,r0		; @...
101250: 005760 000012       	tst	12(r0)			; p...
101254: 001433              	beq	1344			; ..
101256: 026027 000040 000002	cmp	40(r0),#2		; ., ...
101264: 002003              	bge	1274			; ..
101266: 062760 000002 000040	add	#2,40(r0)		; pe.. .
101274: 016002 000040       	mov	40(r0),r2		; .. .
101300: 010103              	mov	r1,r3			; C.
101302: 010160 000042       	mov	r1,42(r0)		; p.".
101306: 010160 000044       	mov	r1,44(r0)		; p.$.
101312: 010304              	mov	r3,r4			; D.
101314: 062704 000010       	add	#10,r4			; De..
101320: 010413              	mov	r4,(r3)			; ..
101322: 010403              	mov	r4,r3			; ..
101324: 077206              	sob	r2,1312			; .~
101326: 162703 000010       	sub	#10,r3			; Ce..
101332: 010113              	mov	r1,(r3)			; K.
101334: 010401              	mov	r4,r1			; ..
101336: 062700 000100       	add	#100,r0			; @e@.
101342: 000742              	br	1250			; b.
;
101344: 012737 007004 007000	mov	#7004,@#7000		; _.....
101352: 012737 007004 007002	mov	#7004,@#7002		; _.....
101360: 012737 007204 007200	mov	#7204,@#7200		; _.....
101366: 012737 007204 007202	mov	#7204,@#7202		; _.....
101374: 012737 007420 007400	mov	#7420,@#7400		; _.....
101402: 052737 000001 001754	bis	#1,@#1754		; _U..l.
101410: 012700 101436       	mov	#101436,r0		; @...
101414: 004737 105372       	call	@#105372		; _.z.
101420: 012737 000100 177560	mov	#100,@#177560		; _.@.p.
101426: 012737 000100 177564	mov	#100,@#177564		; _.@.t.
101434: 000437              	br	1534			; ..
;
101436: 005015              	clr	(r5)			; ..
101440: 042527 051111       	bic	(r5)+,#51111		; WEIR
101444: 047524 020116       	bic	@20116(r5),(r4)+	; TON 
101450: 041523              	bic	(r5),(r3)+		; SC
101452: 042510              	bic	(r5)+,(r0)		; HE
101454: 052504              	bis	(r5)+,r4		; DU
101456: 042514              	bic	(r5)+,(r4)		; LE
101460: 020122              	cmp	r1,(r2)+		; R 
101462: 042526              	bic	(r5)+,(r6)+		; VE
101464: 051522              	bis	(r5),(r2)+		; RS
101466: 047511 020116       	bic	@20116(r5),(r1)		; ION 
101472: 027061 006460 020012	cmp	@6460(r0),20012(r1)	; 1.0.. 
101500: 044440              	bic	-(r4),-(r0)		;  I
101502: 044516              	bic	-(r5),(r6)		; NI
101504: 044524              	bic	-(r5),(r4)+		; TI
101506: 046101 055111       	bic	55111(r1),r1		; ALIZ
101512: 052101              	bis	(r1)+,r1		; AT
101514: 047511 020116       	bic	@20116(r5),(r1)		; ION 
101520: 047503 050115       	bic	@50115(r5),r3		; COMP
101524: 042514              	bic	(r5)+,(r4)		; LE
101526: 042524              	bic	(r5)+,(r4)+		; TE
101530: 006440              	mark	40			;  .
101532: 000012              	invalid opcode			; ..
101534: 106427 000340       	mtps	#340			; ..`.
101540: 012705 002000       	mov	#2000,r5		; E...
101544: 005715              	tst	(r5)			; M.
101546: 001414              	beq	1600			; ..
101550: 062705 000100       	add	#100,r5			; Ee@.
101554: 005765 000012       	tst	12(r5)			; u...
101560: 001371              	bne	1544			; y.
101562: 012737 000001 001754	mov	#1,@#1754		; _...l.
101570: 106427 000000       	mtps	#0			; ....
101574: 000137 102652       	jmp	@#102652		; _.*.
;
101600: 005765 000002       	tst	2(r5)			; u...
101604: 001026              	bne	1662			; ..
101606: 010565 000026       	mov	r5,26(r5)		; u...
101612: 016565 000012 000002	mov	12(r5),2(r5)		; u.....
101620: 016565 000010 000006	mov	10(r5),6(r5)		; u.....
101626: 005765 000032       	tst	32(r5)			; u...
101632: 001406              	beq	1650			; ..
101634: 016565 000034 000004	mov	34(r5),4(r5)		; u.....
101642: 010637 001764       	mov	r6,@#1764		; ..t.
101646: 000402              	br	1654			; ..
;
101650: 010665 000004       	mov	r6,4(r5)		; 5...
101654: 016565 000004 000030	mov	4(r5),30(r5)		; u.....
101662: 010537 001776       	mov	r5,@#1776		; _.~.
101666: 005765 000004       	tst	4(r5)			; u...
101672: 001755              	beq	1626			; m.
101674: 016506 000004       	mov	4(r5),r6		; F...
101700: 016546 000006       	mov	6(r5),-(r6)		; f...
101704: 016546 000002       	mov	2(r5),-(r6)		; f...
101710: 004737 102104       	call	@#102104		; _.D.
101714: 005037 001754       	clr	@#1754			; ..l.
101720: 000002              	rti				; ..
;
101722: 012705 002000       	mov	#2000,r5		; E...
101726: 005765 000012       	tst	12(r5)			; u...
101732: 001002              	bne	1740			; ..
101734: 000137 101534       	jmp	@#101534		; _.\.
;
101740: 032715 000001       	bit	#1,(r5)			; M5..
101744: 001404              	beq	1756			; ..
101746: 005365 000036       	dec	36(r5)			; u...
101752: 001001              	bne	1756			; ..
101754: 005015              	clr	(r5)			; ..
101756: 062705 000100       	add	#100,r5			; Ee@.
101762: 000761              	br	1726			; q.
;
101764: 012705 001000       	mov	#1000,r5		; E...
101770: 005765 000000       	tst	0(r5)			; u...
101774: 001002              	bne	2002			; ..
101776: 000137 101722       	jmp	@#101722		; _.R.
;
102002: 026565 000000 000002	cmp	0(r5),2(r5)		; u-....
102010: 001410              	beq	2032			; ..
102012: 005265 000010       	inc	10(r5)			; 5...
102016: 026565 000010 000012	cmp	10(r5),12(r5)		; u-....
102024: 003402              	ble	2032			; ..
102026: 004775 000022       	call	@22(r5)			; }...
102032: 062705 000030       	add	#30,r5			; Ee..
102036: 000754              	br	1770			; l.
;
102040: 010537 001770       	mov	r5,@#1770		; _.x.
102044: 013705 001776       	mov	@#1776,r5		; E.~.
102050: 010065 000014       	mov	r0,14(r5)		; 5...
102054: 010165 000016       	mov	r1,16(r5)		; u...
102060: 010265 000020       	mov	r2,20(r5)		; 5...
102064: 010365 000022       	mov	r3,22(r5)		; u...
102070: 010465 000024       	mov	r4,24(r5)		; 5...
102074: 013765 001770 000026	mov	@#1770,26(r5)		; u.x...
102102: 000207              	ret				; ..
;
102104: 013705 001776       	mov	@#1776,r5		; E.~.
102110: 016500 000014       	mov	14(r5),r0		; @...
102114: 016501 000016       	mov	16(r5),r1		; A...
102120: 016502 000020       	mov	20(r5),r2		; B...
102124: 016503 000022       	mov	22(r5),r3		; C...
102130: 016504 000024       	mov	24(r5),r4		; D...
102134: 016505 000026       	mov	26(r5),r5		; E...
102140: 000207              	ret				; ..
;
102142: 005537 001750       	adc	@#1750			; _.h.
102146: 005537 001746       	adc	@#1746			; _.f.
102152: 005237 001756       	inc	@#1756			; ..n.
102156: 002002              	bge	2164			; ..
102160: 000137 102600       	jmp	@#102600		; _...
;
102164: 012737 177704 001756	mov	#177704,@#1756		; _.D.n.
102172: 062737 000001 001762	add	#1,@#1762		; _e..r.
102200: 005537 001760       	adc	@#1760			; _.p.
102204: 005237 001674       	inc	@#1674			; ..<.
102210: 022737 000074 001674	cmp	#74,@#1674		; _%<.<.
102216: 003402              	ble	2224			; ..
102220: 000137 102600       	jmp	@#102600		; _...
;
102224: 012737 000010 001676	mov	#10,@#1676		; _...>.
102232: 005037 001674       	clr	@#1674			; ..<.
102236: 005237 001672       	inc	@#1672			; ..:.
102242: 022737 000074 001672	cmp	#74,@#1672		; _%<.:.
102250: 003121              	bgt	2514			; Q.
102252: 052737 000020 001676	bis	#20,@#1676		; _U..>.
102260: 005037 001672       	clr	@#1672			; ..:.
102264: 005237 001670       	inc	@#1670			; ..8.
102270: 022737 000030 001670	cmp	#30,@#1670		; _%..8.
102276: 003106              	bgt	2514			; F.
102300: 005037 001670       	clr	@#1670			; ..8.
102304: 052737 000040 001676	bis	#40,@#1676		; _U .>.
102312: 005037 001746       	clr	@#1746			; ..f.
102316: 005037 001750       	clr	@#1750			; ..h.
102322: 005237 001666       	inc	@#1666			; ..6.
102326: 022737 000035 001666	cmp	#35,@#1666		; _%..6.
102334: 003067              	bgt	2514			; 7.
102336: 022737 000002 001664	cmp	#2,@#1664		; _%..4.
102344: 001015              	bne	2400			; ..
102346: 032737 000003 001662	bit	#3,@#1662		; _5..2.
102354: 001033              	bne	2444			; ..
102356: 022737 003720 001662	cmp	#3720,@#1662		; _%P.2.
102364: 001427              	beq	2444			; ..
102366: 022737 000036 001666	cmp	#36,@#1666		; _%..6.
102374: 001423              	beq	2444			; ..
102376: 000446              	br	2514			; &.
;
102400: 022737 000037 001666	cmp	#37,@#1666		; _%..6.
102406: 003042              	bgt	2514			; ".
102410: 002415              	blt	2444			; ..
102412: 022737 000007 001664	cmp	#7,@#1664		; _%..4.
102420: 002405              	blt	2434			; ..
102422: 032737 000001 001664	bit	#1,@#1664		; _5..4.
102430: 001031              	bne	2514			; ..
102432: 000404              	br	2444			; ..
;
102434: 032737 000001 001664	bit	#1,@#1664		; _5..4.
102442: 001424              	beq	2514			; ..
102444: 052737 000100 001676	bis	#100,@#1676		; _U@.>.
102452: 012737 000001 001666	mov	#1,@#1666		; _...6.
102460: 005237 001664       	inc	@#1664			; ..4.
102464: 022737 000015 001664	cmp	#15,@#1664		; _%..4.
102472: 003010              	bgt	2514			; ..
102474: 052737 000200 001676	bis	#200,@#1676		; _U..>.
102502: 012737 000001 001664	mov	#1,@#1664		; _...4.
102510: 005237 001662       	inc	@#1662			; ..2.
102514: 010046              	mov	r0,-(r6)		; &.
102516: 010146              	mov	r1,-(r6)		; f.
102520: 012700 002000       	mov	#2000,r0		; @...
102524: 016001 000012       	mov	12(r0),r1		; ....
102530: 001421              	beq	2574			; ..
102532: 043710 001676       	bic	@#1676,(r0)		; HG>.
102536: 032710 000400       	bit	#400,(r0)		; H5..
102542: 001411              	beq	2566			; ..
102544: 026037 000046 001670	cmp	46(r0),@#1670		; .,&.8.
102552: 001005              	bne	2566			; ..
102554: 026037 000050 001672	cmp	50(r0),@#1672		; .,(.:.
102562: 001001              	bne	2566			; ..
102564: 005010              	clr	(r0)			; ..
102566: 062700 000100       	add	#100,r0			; @e@.
102572: 000754              	br	2524			; l.
;
102574: 012601              	mov	(r6)+,r1		; ..
102576: 012600              	mov	(r6)+,r0		; ..
102600: 005737 001754       	tst	@#1754			; _.l.
102604: 001403              	beq	2614			; ..
102606: 012716 101764       	mov	#101764,(r6)		; N.t.
102612: 000002              	rti				; ..
;
102614: 004737 102040       	call	@#102040		; _. .
102620: 012665 000002       	mov	(r6)+,2(r5)		; 5...
102624: 012665 000006       	mov	(r6)+,6(r5)		; 5...
102630: 010665 000004       	mov	r6,4(r5)		; 5...
102634: 016500 000032       	mov	32(r5),r0		; @...
102640: 001402              	beq	2646			; ..
102642: 013706 001764       	mov	@#1764,r6		; F.t.
102646: 000137 101764       	jmp	@#101764		; _.t.
;
102652: 005737 001752       	tst	@#1752			; _.j.
102656: 001003              	bne	2666			; ..
102660: 012737 000074 001752	mov	#74,@#1752		; _.<.j.
102666: 023737 001762 001752	cmp	@#1762,@#1752		; _'r.j.
102674: 001366              	bne	2652			; v.
102676: 012705 002000       	mov	#2000,r5		; E...
102702: 012704 100000       	mov	#100000,r4		; D...
102706: 016502 000012       	mov	12(r5),r2		; B...
102712: 001002              	bne	2720			; ..
102714: 000137 103160       	jmp	@#103160		; _.p.
;
102720: 016500 000032       	mov	32(r5),r0		; @...
102724: 001003              	bne	2734			; ..
102726: 062705 000040       	add	#40,r5			; Ee .
102732: 000765              	br	2706			; u.
;
102734: 005003              	clr	r3			; ..
102736: 022744 177767       	cmp	#177767,-(r4)		; d%w.
102742: 001401              	beq	2746			; ..
102744: 005203              	inc	r3			; ..
102746: 022744 177771       	cmp	#177771,-(r4)		; d%y.
102752: 001401              	beq	2756			; ..
102754: 005203              	inc	r3			; ..
102756: 022744 177773       	cmp	#177773,-(r4)		; d%{.
102762: 001401              	beq	2766			; ..
102764: 005203              	inc	r3			; ..
102766: 022744 177775       	cmp	#177775,-(r4)		; d%}.
102772: 001401              	beq	2776			; ..
102774: 005203              	inc	r3			; ..
102776: 022744 177777       	cmp	#177777,-(r4)		; d%..
103002: 001401              	beq	3006			; ..
103004: 005203              	inc	r3			; ..
103006: 160004              	sub	r0,r4			; .`
103010: 160004              	sub	r0,r4			; .`
103012: 022744 177777       	cmp	#177777,-(r4)		; d%..
103016: 001401              	beq	3022			; ..
103020: 005203              	inc	r3			; ..
103022: 022744 177775       	cmp	#177775,-(r4)		; d%}.
103026: 001401              	beq	3032			; ..
103030: 005203              	inc	r3			; ..
103032: 022744 177773       	cmp	#177773,-(r4)		; d%{.
103036: 001401              	beq	3042			; ..
103040: 005203              	inc	r3			; ..
103042: 022744 177771       	cmp	#177771,-(r4)		; d%y.
103046: 001401              	beq	3052			; ..
103050: 005203              	inc	r3			; ..
103052: 022744 177767       	cmp	#177767,-(r4)		; d%w.
103056: 001002              	bne	3064			; ..
103060: 010303              	mov	r3,r3			; C.
103062: 001721              	beq	2726			; Q.
103064: 012700 103104       	mov	#103104,r0		; @.D.
103070: 004737 105372       	call	@#105372		; _.z.
103074: 010500              	mov	r5,r0			; @.
103076: 004737 105432       	call	@#105432		; _...
103102: 000711              	br	2726			; I.
;
103104: 005015              	clr	(r5)			; ..
103106: 052123              	bis	(r1)+,(r3)+		; ST
103110: 041501              	bic	(r5),r1			; AC
103112: 020113              	cmp	r1,(r3)			; K 
103114: 040523              	bic	r5,(r3)+		; SA
103116: 042506              	bic	(r5)+,r6		; FE
103120: 054524              	bis	-(r5),(r4)+		; TY
103122: 053440              	bis	@(r4)+,-(r0)		;  W
103124: 051117              	bis	(r1),(r7)		; OR
103126: 020104              	cmp	r1,r4			; D 
103130: 044515              	bic	-(r5),(r5)		; MI
103132: 051523              	bis	(r5),(r3)+		; SS
103134: 047111 020107       	bic	@20107(r1),(r1)		; ING 
103140: 041524              	bic	(r5),(r4)+		; TC
103142: 020102              	cmp	r1,r2			; B 
103144: 042101              	bic	(r1)+,r1		; AD
103146: 051104              	bis	(r1),r4			; DR
103150: 051505              	bis	(r5),r5			; ES
103152: 020123              	cmp	r1,(r3)+		; S 
103154: 020075 000000       	cmp	r0,@0(r5)		; = ..
103160: 062737 000074 001752	add	#74,@#1752		; _e<.j.
103166: 000137 102652       	jmp	@#102652		; _.*.
;
103172: 010046              	mov	r0,-(r6)		; &.
103174: 016600 000002       	mov	2(r6),r0		; ....
103200: 116000 177776       	movb	177776(r0),r0		; ..~.
103204: 042700 177400       	bic	#177400,r0		; @E..
103210: 022700 000016       	cmp	#16,r0			; @%..
103214: 002002              	bge	3222			; ..
103216: 000137 103242       	jmp	@#103242		; _.".
;
103222: 006300              	asl	r0			; @.
103224: 005760 103416       	tst	103416(r0)		; p...
103230: 001402              	beq	3236			; ..
103232: 004770 103416       	call	@103416(r0)		; x...
103236: 012600              	mov	(r6)+,r0		; ..
103240: 000006              	rtt				; ..
;
103242: 010046              	mov	r0,-(r6)		; &.
103244: 016600 000002       	mov	2(r6),r0		; ....
103250: 004737 102040       	call	@#102040		; _. .
103254: 012701 103316       	mov	#103316,r1		; A.N.
103260: 012600              	mov	(r6)+,r0		; ..
103262: 104413              	trap	13			; ..
103264: 005726              	tst	(r6)+			; V.
103266: 012701 103364       	mov	#103364,r1		; A.t.
103272: 011600              	mov	(r6),r0			; ..
103274: 104413              	trap	13			; ..
103276: 012701 103374       	mov	#103374,r1		; A.|.
103302: 013700 001776       	mov	@#1776,r0		; @.~.
103306: 104413              	trap	13			; ..
103310: 004737 102104       	call	@#102104		; _.D.
103314: 000006              	rtt				; ..
;
103316: 046111 042514       	bic	42514(r1),(r1)		; ILLE
103322: 040507              	bic	r5,r7			; GA
103324: 020114              	cmp	r1,(r4)			; L 
103326: 051124              	bis	(r1),(r4)+		; TR
103330: 050101              	bis	r1,r1			; AP
103332: 053440              	bis	@(r4)+,-(r0)		;  W
103334: 051501              	bis	(r5),r1			; AS
103336: 042440              	bic	(r4)+,-(r0)		;  E
103340: 042530              	bic	(r5)+,@(r0)+		; XE
103342: 052503              	bis	(r5)+,r3		; CU
103344: 042524              	bic	(r5)+,(r4)+		; TE
103346: 020104              	cmp	r1,r4			; D 
103350: 030122              	bit	r1,(r2)+		; R0
103352: 036440 052040       	bit	52040(r4),-(r0)		;  = T
103356: 040522              	bic	r5,(r2)+		; RA
103360: 020120              	cmp	r1,(r0)+		; P 
103362: 000043              	invalid opcode			; #.
103364: 030122              	bit	r1,(r2)+		; R0
103366: 036440 050040       	bit	50040(r4),-(r0)		;  = P
103372: 000103              	jmp	r3			; C.
;
103374: 030122              	bit	r1,(r2)+		; R0
103376: 036440 052040       	bit	52040(r4),-(r0)		;  = T
103402: 041103              	bic	(r1),r3			; CB
103404: 040440              	bic	r4,-(r0)		;  A
103406: 042104              	bic	(r1)+,r4		; DD
103410: 042522              	bic	(r5)+,(r2)+		; RE
103412: 051523              	bis	(r5),(r3)+		; SS
103414: 000000              	halt				; ..
;
103416: 103456              	bcs	3554			; ..
103420: 103640              	bcs	3122			;  .
103422: 103662              	bcs	3170			; 2.
103424: 103720              	bcs	3266			; P.
103426: 104076              	emt	76			; >.
103430: 104246              	emt	246			; &.
103432: 104266              	emt	266			; 6.
103434: 104322              	emt	322			; R.
103436: 104354              	emt	354			; l.
103440: 104416              	trap	16			; ..
103442: 104532              	trap	132			; Z.
103444: 104560              	trap	160			; p.
103446: 104642              	trap	242			; ".
103450: 104672              	trap	272			; :.
103452: 104466              	trap	66			; 6.
103454: 000000              	halt				; ..
;
103456: 016600 000002       	mov	2(r6),r0		; ....
103462: 004737 102040       	call	@#102040		; _. .
103466: 012746 000006       	mov	#6,-(r6)		; f...
103472: 072026              	ash	(r6)+,r0		; .t
103474: 062700 002000       	add	#2000,r0		; @e..
103500: 023700 001774       	cmp	@#1774,r0		; @'|.
103504: 002413              	blt	3534			; ..
103506: 005710              	tst	(r0)			; H.
103510: 001411              	beq	3534			; ..
103512: 005010              	clr	(r0)			; ..
103514: 062766 000002 000004	add	#2,4(r6)		; ve....
103522: 010160 000036       	mov	r1,36(r0)		; p...
103526: 001404              	beq	3540			; ..
103530: 052710 000001       	bis	#1,(r0)			; HU..
103534: 000137 104240       	jmp	@#104240		; _. .
;
103540: 020005              	cmp	r0,r5			; . 
103542: 002374              	bge	3534			; |.
103544: 062706 000004       	add	#4,r6			; Fe..
103550: 012665 000002       	mov	(r6)+,2(r5)		; 5...
103554: 012665 000006       	mov	(r6)+,6(r5)		; 5...
103560: 026506 000030       	cmp	30(r5),r6		; F-..
103564: 001011              	bne	3610			; ..
103566: 005065 000004       	clr	4(r5)			; 5...
103572: 005765 000032       	tst	32(r5)			; u...
103576: 001402              	beq	3604			; ..
103600: 013706 001764       	mov	@#1764,r6		; F.t.
103604: 000137 101534       	jmp	@#101534		; _.\.
;
103610: 003001              	bgt	3614			; ..
103612: 000000              	halt				; ..
;
103614: 005765 000032       	tst	32(r5)			; u...
103620: 001004              	bne	3632			; ..
103622: 005715              	tst	(r5)			; M.
103624: 001402              	beq	3632			; ..
103626: 000137 105530       	jmp	@#105530		; _.X.
;
103632: 010665 000004       	mov	r6,4(r5)		; 5...
103636: 000755              	br	3572			; m.
;
103640: 016600 000002       	mov	2(r6),r0		; ....
103644: 004737 102040       	call	@#102040		; _. .
103650: 010065 000036       	mov	r0,36(r5)		; 5...
103654: 052715 000001       	bis	#1,(r5)			; MU..
103660: 000731              	br	3544			; Y.
;
103662: 016600 000002       	mov	2(r6),r0		; ....
103666: 004737 102040       	call	@#102040		; _. .
103672: 010065 000036       	mov	r0,36(r5)		; 5...
103676: 052715 000001       	bis	#1,(r5)			; MU..
103702: 016566 000012 000004	mov	12(r5),4(r6)		; v.....
103710: 016566 000010 000006	mov	10(r5),6(r6)		; v.....
103716: 000712              	br	3544			; J.
;
103720: 016600 000002       	mov	2(r6),r0		; ....
103724: 004737 102040       	call	@#102040		; _. .
103730: 005004              	clr	r4			; ..
103732: 005702              	tst	r2			; B.
103734: 001404              	beq	3746			; ..
103736: 062704 000030       	add	#30,r4			; De..
103742: 077203              	sob	r2,3736			; .~
103744: 010402              	mov	r4,r2			; ..
103746: 062702 001000       	add	#1000,r2		; Be..
103752: 023702 001772       	cmp	@#1772,r2		; B'z.
103756: 003530              	ble	4240			; X.
103760: 016204 000000       	mov	0(r2),r4		; ....
103764: 026264 000002 000000	cmp	2(r2),0(r4)		; 4,....
103772: 001522              	beq	4240			; R.
103774: 062766 000002 000004	add	#2,4(r6)		; ve....
104002: 010064 000004       	mov	r0,4(r4)		; 4...
104006: 010164 000006       	mov	r1,6(r4)		; t...
104012: 010564 000002       	mov	r5,2(r4)		; t...
104016: 016462 000000 000000	mov	0(r4),0(r2)		; 2.....
104024: 005000              	clr	r0			; ..
104026: 026204 000002       	cmp	2(r2),r4		; .,..
104032: 001401              	beq	4036			; ..
104034: 005200              	inc	r0			; ..
104036: 010365 000036       	mov	r3,36(r5)		; u...
104042: 001402              	beq	4050			; ..
104044: 052715 000003       	bis	#3,(r5)			; MU..
104050: 005700              	tst	r0			; @.
104052: 001005              	bne	4066			; ..
104054: 010205              	mov	r2,r5			; ..
104056: 004775 000014       	call	@14(r5)			; }...
104062: 013705 001776       	mov	@#1776,r5		; E.~.
104066: 005715              	tst	(r5)			; M.
104070: 001463              	beq	4240			; 3.
104072: 000137 103544       	jmp	@#103544		; _.d.
;
104076: 016600 000002       	mov	2(r6),r0		; ....
104102: 004737 102040       	call	@#102040		; _. .
104106: 012746 000006       	mov	#6,-(r6)		; f...
104112: 072226              	ash	(r6)+,r2		; .t
104114: 062702 002000       	add	#2000,r2		; Be..
104120: 023702 001774       	cmp	@#1774,r2		; B'|.
104124: 003445              	ble	4240			; %.
104126: 016204 000042       	mov	42(r2),r4		; ..".
104132: 026462 000000 000044	cmp	0(r4),44(r2)		; 2-..$.
104140: 001437              	beq	4240			; ..
104142: 062766 000002 000004	add	#2,4(r6)		; ve....
104150: 010064 000004       	mov	r0,4(r4)		; 4...
104154: 010164 000006       	mov	r1,6(r4)		; t...
104160: 010564 000002       	mov	r5,2(r4)		; t...
104164: 016462 000000 000042	mov	0(r4),42(r2)		; 2...".
104172: 032712 000004       	bit	#4,(r2)			; J5..
104176: 001401              	beq	4202			; ..
104200: 005012              	clr	(r2)			; ..
104202: 010365 000036       	mov	r3,36(r5)		; u...
104206: 001410              	beq	4230			; ..
104210: 026565 000042 000044	cmp	42(r5),44(r5)		; u-".$.
104216: 001004              	bne	4230			; ..
104220: 052715 000005       	bis	#5,(r5)			; MU..
104224: 000137 103544       	jmp	@#103544		; _.d.
;
104230: 005712              	tst	(r2)			; J.
104232: 001002              	bne	4240			; ..
104234: 020205              	cmp	r2,r5			; . 
104236: 003772              	ble	4224			; z.
104240: 004737 102104       	call	@#102104		; _.D.
104244: 000207              	ret				; ..
;
104246: 016600 000002       	mov	2(r6),r0		; ....
104252: 004737 102040       	call	@#102040		; _. .
104256: 012715 100000       	mov	#100000,(r5)		; M...
104262: 000137 103544       	jmp	@#103544		; _.d.
;
104266: 016600 000002       	mov	2(r6),r0		; ....
104272: 004737 102040       	call	@#102040		; _. .
104276: 016566 000012 000004	mov	12(r5),4(r6)		; v.....
104304: 016566 000010 000006	mov	10(r5),6(r6)		; v.....
104312: 012715 100000       	mov	#100000,(r5)		; M...
104316: 000137 103544       	jmp	@#103544		; _.d.
;
104322: 016600 000002       	mov	2(r6),r0		; ....
104326: 004737 102040       	call	@#102040		; _. .
104332: 052715 000002       	bis	#2,(r5)			; MU..
104336: 010065 000036       	mov	r0,36(r5)		; 5...
104342: 001402              	beq	4350			; ..
104344: 052715 000001       	bis	#1,(r5)			; MU..
104350: 000137 103544       	jmp	@#103544		; _.d.
;
104354: 016600 000002       	mov	2(r6),r0		; ....
104360: 004737 102040       	call	@#102040		; _. .
104364: 026565 000042 000044	cmp	42(r5),44(r5)		; u-".$.
104372: 001322              	bne	4240			; R.
104374: 052715 000004       	bis	#4,(r5)			; MU..
104400: 010065 000036       	mov	r0,36(r5)		; 5...
104404: 001402              	beq	4412			; ..
104406: 052715 000001       	bis	#1,(r5)			; MU..
104412: 000137 103544       	jmp	@#103544		; _.d.
;
104416: 010146              	mov	r1,-(r6)		; f.
104420: 010246              	mov	r2,-(r6)		; &.
104422: 016602 000010       	mov	10(r6),r2		; ....
104426: 011200              	mov	(r2),r0			; ..
104430: 016201 000002       	mov	2(r2),r1		; ....
104434: 016202 000004       	mov	4(r2),r2		; ....
104440: 062766 000006 000010	add	#6,10(r6)		; ve....
104446: 005702              	tst	r2			; B.
104450: 003403              	ble	4460			; ..
104452: 005302              	dec	r2			; B.
104454: 012021              	mov	(r0)+,(r1)+		; ..
104456: 000773              	br	4446			; {.
;
104460: 012602              	mov	(r6)+,r2		; ..
104462: 012601              	mov	(r6)+,r1		; ..
104464: 000207              	ret				; ..
;
104466: 010146              	mov	r1,-(r6)		; f.
104470: 010246              	mov	r2,-(r6)		; &.
104472: 016602 000010       	mov	10(r6),r2		; ....
104476: 012200              	mov	(r2)+,r0		; ..
104500: 012201              	mov	(r2)+,r1		; ..
104502: 011202              	mov	(r2),r2			; ..
104504: 062766 000006 000010	add	#6,10(r6)		; ve....
104512: 005702              	tst	r2			; B.
104514: 003403              	ble	4524			; ..
104516: 005302              	dec	r2			; B.
104520: 112021              	movb	(r0)+,(r1)+		; ..
104522: 000773              	br	4512			; {.
;
104524: 012602              	mov	(r6)+,r2		; ..
104526: 012601              	mov	(r6)+,r1		; ..
104530: 000207              	ret				; ..
;
104532: 016600 000002       	mov	2(r6),r0		; ....
104536: 004737 102040       	call	@#102040		; _. .
104542: 005700              	tst	r0			; @.
104544: 003403              	ble	4554			; ..
104546: 005300              	dec	r0			; @.
104550: 012122              	mov	(r1)+,(r2)+		; R.
104552: 000773              	br	4542			; {.
;
104554: 000137 104240       	jmp	@#104240		; _. .
;
104560: 016600 000002       	mov	2(r6),r0		; ....
104564: 004737 102040       	call	@#102040		; _. .
104570: 013704 001744       	mov	@#1744,r4		; D.d.
104574: 016403 000042       	mov	42(r4),r3		; ..".
104600: 010563 000002       	mov	r5,2(r3)		; s...
104604: 010063 000004       	mov	r0,4(r3)		; 3...
104610: 010163 000006       	mov	r1,6(r3)		; s...
104614: 016364 000000 000042	mov	0(r3),42(r4)		; t...".
104622: 032714 000004       	bit	#4,(r4)			; L5..
104626: 001403              	beq	4636			; ..
104630: 005014              	clr	(r4)			; ..
104632: 000137 103544       	jmp	@#103544		; _.d.
;
104636: 000137 104240       	jmp	@#104240		; _. .
;
104642: 016600 000002       	mov	2(r6),r0		; ....
104646: 004737 102040       	call	@#102040		; _. .
104652: 012746 000003       	mov	#3,-(r6)		; f...
104656: 072026              	ash	(r6)+,r0		; .t
104660: 042700 177407       	bic	#177407,r0		; @E..
104664: 050015              	bis	r0,(r5)			; .P
104666: 000137 103544       	jmp	@#103544		; _.d.
;
104672: 016600 000002       	mov	2(r6),r0		; ....
104676: 004737 102040       	call	@#102040		; _. .
104702: 022700 000024       	cmp	#24,r0			; @%..
104706: 003415              	ble	4742			; ..
104710: 022701 000060       	cmp	#60,r1			; A%0.
104714: 003412              	ble	4742			; ..
104716: 010065 000046       	mov	r0,46(r5)		; 5.&.
104722: 002407              	blt	4742			; ..
104724: 010165 000050       	mov	r1,50(r5)		; u.(.
104730: 002404              	blt	4742			; ..
104732: 052715 000400       	bis	#400,(r5)		; MU..
104736: 000137 103544       	jmp	@#103544		; _.d.
;
104742: 000137 104240       	jmp	@#104240		; _. .
;
104746: 010446              	mov	r4,-(r6)		; &.
104750: 010346              	mov	r3,-(r6)		; f.
104752: 010246              	mov	r2,-(r6)		; &.
104754: 010146              	mov	r1,-(r6)		; f.
104756: 010046              	mov	r0,-(r6)		; &.
104760: 016646 000012       	mov	12(r6),-(r6)		; &...
104764: 010566 000014       	mov	r5,14(r6)		; v...
104770: 000207              	ret				; ..
;
104772: 012600              	mov	(r6)+,r0		; ..
104774: 012600              	mov	(r6)+,r0		; ..
104776: 012601              	mov	(r6)+,r1		; ..
105000: 012602              	mov	(r6)+,r2		; ..
105002: 012603              	mov	(r6)+,r3		; ..
105004: 012604              	mov	(r6)+,r4		; ..
105006: 012605              	mov	(r6)+,r5		; ..
105010: 000207              	ret				; ..
;
105012: 010046              	mov	r0,-(r6)		; &.
105014: 013700 007000       	mov	@#7000,r0		; @...
105020: 113710 177562       	movb	@#177562,(r0)		; H.r.
105024: 142710 000200       	bicb	#200,(r0)		; HE..
105030: 122710 000003       	cmpb	#3,(r0)			; H%..
105034: 001002              	bne	5042			; ..
105036: 005237 001742       	inc	@#1742			; ..b.
105042: 122710 000021       	cmpb	#21,(r0)		; H%..
105046: 001003              	bne	5056			; ..
105050: 052737 000100 177564	bis	#100,@#177564		; _U@.t.
105056: 122720 000023       	cmpb	#23,(r0)+		; P%..
105062: 001003              	bne	5072			; ..
105064: 042737 000100 177564	bic	#100,@#177564		; _E@.t.
105072: 022700 007177       	cmp	#7177,r0		; @%..
105076: 002002              	bge	5104			; ..
105100: 012700 007004       	mov	#7004,r0		; @...
105104: 010037 007000       	mov	r0,@#7000		; ....
105110: 012600              	mov	(r6)+,r0		; ..
105112: 000002              	rti				; ..
;
105114: 010046              	mov	r0,-(r6)		; &.
105116: 010146              	mov	r1,-(r6)		; f.
105120: 013700 007202       	mov	@#7202,r0		; @...
105124: 023700 007200       	cmp	@#7200,r0		; @'..
105130: 001004              	bne	5142			; ..
105132: 042737 000100 177564	bic	#100,@#177564		; _E@.t.
105140: 000417              	br	5200			; ..
;
105142: 011001              	mov	(r0),r1			; ..
105144: 105711              	tstb	(r1)			; I.
105146: 001011              	bne	5172			; ..
105150: 005720              	tst	(r0)+			; P.
105152: 022700 007377       	cmp	#7377,r0		; @%..
105156: 002002              	bge	5164			; ..
105160: 012700 007204       	mov	#7204,r0		; @...
105164: 010037 007202       	mov	r0,@#7202		; ....
105170: 000755              	br	5124			; m.
;
105172: 112137 177566       	movb	(r1)+,@#177566		; _.v.
105176: 010110              	mov	r1,(r0)			; H.
105200: 012601              	mov	(r6)+,r1		; ..
105202: 012600              	mov	(r6)+,r0		; ..
105204: 000002              	rti				; ..
;
105206: 004737 102040       	call	@#102040		; _. .
105212: 012700 105306       	mov	#105306,r0		; @.F.
105216: 004737 105372       	call	@#105372		; _.z.
105222: 011601              	mov	(r6),r1			; ..
105224: 004737 105432       	call	@#105432		; _...
105230: 010601              	mov	r6,r1			; ..
105232: 004737 105432       	call	@#105432		; _...
105236: 013701 001776       	mov	@#1776,r1		; A.~.
105242: 004737 105432       	call	@#105432		; _...
105246: 013705 001776       	mov	@#1776,r5		; E.~.
105252: 012665 000002       	mov	(r6)+,2(r5)		; 5...
105256: 012665 000006       	mov	(r6)+,6(r5)		; 5...
105262: 010665 000004       	mov	r6,4(r5)		; 5...
105266: 012715 100000       	mov	#100000,(r5)		; M...
105272: 013706 001764       	mov	@#1764,r6		; F.t.
105276: 005046              	clr	-(r6)			; &.
105300: 012746 101534       	mov	#101534,-(r6)		; f.\.
105304: 000002              	rti				; ..
;
105306: 005015              	clr	(r5)			; ..
105310: 046111 042514       	bic	42514(r1),(r1)		; ILLE
105314: 040507              	bic	r5,r7			; GA
105316: 020114              	cmp	r1,(r4)			; L 
105320: 047111 052123       	bic	@52123(r1),(r1)		; INST
105324: 052522              	bis	(r5)+,(r2)+		; RU
105326: 052103              	bis	(r1)+,r3		; CT
105330: 047511 020116       	bic	@20116(r5),(r1)		; ION 
105334: 051124              	bis	(r1),(r4)+		; TR
105336: 050101              	bis	r1,r1			; AP
105340: 006440              	mark	40			;  .
105342: 050012              	bis	r0,(r2)			; .P
105344: 020103              	cmp	r1,r3			; C 
105346: 020040              	cmp	r0,-(r0)		;   
105350: 020040              	cmp	r0,-(r0)		;   
105352: 051440              	bis	(r4),-(r0)		;  S
105354: 020120              	cmp	r1,(r0)+		; P 
105356: 020040              	cmp	r0,-(r0)		;   
105360: 020040              	cmp	r0,-(r0)		;   
105362: 052040              	bis	(r0)+,-(r0)		;  T
105364: 041103              	bic	(r1),r3			; CB
105366: 005015              	clr	(r5)			; ..
105370: 000000              	halt				; ..
;
105372: 010146              	mov	r1,-(r6)		; f.
105374: 013701 007200       	mov	@#7200,r1		; A...
105400: 010021              	mov	r0,(r1)+		; ..
105402: 022701 007377       	cmp	#7377,r1		; A%..
105406: 003002              	bgt	5414			; ..
105410: 012701 007204       	mov	#7204,r1		; A...
105414: 010137 007200       	mov	r1,@#7200		; _...
105420: 052737 000100 177564	bis	#100,@#177564		; _U@.t.
105426: 012601              	mov	(r6)+,r1		; ..
105430: 000207              	ret				; ..
;
105432: 010046              	mov	r0,-(r6)		; &.
105434: 010246              	mov	r2,-(r6)		; &.
105436: 004737 105476       	call	@#105476		; _.>.
105442: 012702 000006       	mov	#6,r2			; B...
105446: 004737 110366       	call	@#110366		; _.v.
105452: 012760 020040 000006	mov	#20040,6(r0)		; p.  ..
105460: 105060 000010       	clrb	10(r0)			; 0...
105464: 004737 105372       	call	@#105372		; _.z.
105470: 012602              	mov	(r6)+,r2		; ..
105472: 012600              	mov	(r6)+,r0		; ..
105474: 000207              	ret				; ..
;
105476: 013700 007400       	mov	@#7400,r0		; @...
105502: 062737 000014 007400	add	#14,@#7400		; _e....
105510: 023727 007400 007777	cmp	@#7400,#7777		; W'....
105516: 002403              	blt	5526			; ..
105520: 012737 007420 007400	mov	#7420,@#7400		; _.....
105526: 000207              	ret				; ..
;
105530: 012700 105602       	mov	#105602,r0		; @...
105534: 004737 105372       	call	@#105372		; _.z.
105540: 013701 001776       	mov	@#1776,r1		; A.~.
105544: 004737 105432       	call	@#105432		; _...
105550: 010601              	mov	r6,r1			; ..
105552: 004737 105432       	call	@#105432		; _...
105556: 013701 001764       	mov	@#1764,r1		; A.t.
105562: 004737 105432       	call	@#105432		; _...
105566: 012715 100000       	mov	#100000,(r5)		; M...
105572: 013706 001764       	mov	@#1764,r6		; F.t.
105576: 000137 101534       	jmp	@#101534		; _.\.
;
105602: 005015              	clr	(r5)			; ..
105604: 052040              	bis	(r0)+,-(r0)		;  T
105606: 051501              	bis	(r5),r1			; AS
105610: 020113              	cmp	r1,(r3)			; K 
105612: 051103              	bis	(r1),r3			; CR
105614: 051501              	bis	(r5),r1			; AS
105616: 042510              	bic	(r5)+,(r0)		; HE
105620: 020104              	cmp	r1,r4			; D 
105622: 044124              	bic	-(r1),(r4)+		; TH
105624: 020105              	cmp	r1,r5			; E 
105626: 052123              	bis	(r1)+,(r3)+		; ST
105630: 041501              	bic	(r5),r1			; AC
105632: 020113              	cmp	r1,(r3)			; K 
105634: 040524              	bic	r5,(r4)+		; TA
105636: 045523              	bic	@-(r5),(r3)+		; SK
105640: 052040              	bis	(r0)+,-(r0)		;  T
105642: 051125              	bis	(r1),(r5)+		; UR
105644: 042516              	bic	(r5)+,(r6)		; NE
105646: 020104              	cmp	r1,r4			; D 
105650: 043117              	bic	@(r1)+,(r7)		; OF
105652: 006506              	mfpi	r6			; F.
105654: 052012              	bis	(r0)+,(r2)		; .T
105656: 041103              	bic	(r1),r3			; CB
105660: 020040              	cmp	r0,-(r0)		;   
105662: 020040              	cmp	r0,-(r0)		;   
105664: 051440              	bis	(r4),-(r0)		;  S
105666: 020120              	cmp	r1,(r0)+		; P 
105670: 020040              	cmp	r0,-(r0)		;   
105672: 020040              	cmp	r0,-(r0)		;   
105674: 051440              	bis	(r4),-(r0)		;  S
105676: 051531              	bis	(r5),@(r1)+		; YS
105700: 051440              	bis	(r4),-(r0)		;  S
105702: 020120              	cmp	r1,(r0)+		; P 
105704: 006440              	mark	40			;  .
105706: 000012              	invalid opcode			; ..
105710: 004737 104746       	call	@#104746		; _.f.
105714: 112720 000015       	movb	#15,(r0)+		; P...
105720: 112720 000012       	movb	#12,(r0)+		; P...
105724: 012702 000002       	mov	#2,r2			; B...
105730: 013701 001670       	mov	@#1670,r1		; A.8.
105734: 004737 110430       	call	@#110430		; _...
105740: 060200              	add	r2,r0			; .`
105742: 112720 000072       	movb	#72,(r0)+		; P.:.
105746: 013701 001672       	mov	@#1672,r1		; A.:.
105752: 004737 110430       	call	@#110430		; _...
105756: 060200              	add	r2,r0			; .`
105760: 112720 000072       	movb	#72,(r0)+		; P.:.
105764: 013701 001674       	mov	@#1674,r1		; A.<.
105770: 004737 110430       	call	@#110430		; _...
105774: 060200              	add	r2,r0			; .`
105776: 112720 000040       	movb	#40,(r0)+		; P. .
106002: 013701 001664       	mov	@#1664,r1		; A.4.
106006: 004737 110430       	call	@#110430		; _...
106012: 060200              	add	r2,r0			; .`
106014: 112720 000057       	movb	#57,(r0)+		; P./.
106020: 013701 001666       	mov	@#1666,r1		; A.6.
106024: 004737 110430       	call	@#110430		; _...
106030: 060200              	add	r2,r0			; .`
106032: 112720 000057       	movb	#57,(r0)+		; P./.
106036: 013701 001662       	mov	@#1662,r1		; A.2.
106042: 004737 110430       	call	@#110430		; _...
106046: 004737 104772       	call	@#104772		; _.z.
106052: 004737 104746       	call	@#104746		; _.f.
106056: 012104              	mov	(r1)+,r4		; D.
106060: 002421              	blt	6124			; ..
106062: 011105              	mov	(r1),r5			; E.
106064: 012746 007020       	mov	#7020,-(r6)		; f...
106070: 071426              	div	(r6)+,r4		; .s
106072: 022704 002640       	cmp	#2640,r4		; D% .
106076: 003412              	ble	6124			; ..
106100: 010546              	mov	r5,-(r6)		; f.
106102: 012702 000002       	mov	#2,r2			; B...
106106: 004737 106130       	call	@#106130		; _.X.
106112: 112720 000072       	movb	#72,(r0)+		; P.:.
106116: 012604              	mov	(r6)+,r4		; ..
106120: 004737 106130       	call	@#106130		; _.X.
106124: 004737 104772       	call	@#104772		; _.z.
106130: 010405              	mov	r4,r5			; ..
106132: 005004              	clr	r4			; ..
106134: 012746 000074       	mov	#74,-(r6)		; f.<.
106140: 071426              	div	(r6)+,r4		; .s
106142: 010401              	mov	r4,r1			; ..
106144: 004737 110430       	call	@#110430		; _...
106150: 060200              	add	r2,r0			; .`
106152: 112720 000072       	movb	#72,(r0)+		; P.:.
106156: 010501              	mov	r5,r1			; A.
106160: 004737 110430       	call	@#110430		; _...
106164: 060200              	add	r2,r0			; .`
106166: 000207              	ret				; ..
;
106170: 012746 106310       	mov	#106310,-(r6)		; f.H.
106174: 004737 104746       	call	@#104746		; _.f.
106200: 000240              	nop				;  .
106202: 012700 106530       	mov	#106530,r0		; @.X.
106206: 004737 105372       	call	@#105372		; _.z.
106212: 012700 106543       	mov	#106543,r0		; @.c.
106216: 004737 105372       	call	@#105372		; _.z.
106222: 010604              	mov	r6,r4			; ..
106224: 012703 000006       	mov	#6,r3			; C...
106230: 012401              	mov	(r4)+,r1		; ..
106232: 004737 105432       	call	@#105432		; _...
106236: 077304              	sob	r3,6230			; D~
106240: 010601              	mov	r6,r1			; ..
106242: 062701 000022       	add	#22,r1			; Ae..
106246: 004737 105432       	call	@#105432		; _...
106252: 016601 000016       	mov	16(r6),r1		; ....
106256: 004737 105432       	call	@#105432		; _...
106262: 013701 001776       	mov	@#1776,r1		; A.~.
106266: 004737 105432       	call	@#105432		; _...
106272: 012700 106664       	mov	#106664,r0		; @.4.
106276: 004737 105372       	call	@#105372		; _.z.
106302: 004737 104772       	call	@#104772		; _.z.
106306: 000240              	nop				;  .
106310: 010046              	mov	r0,-(r6)		; &.
106312: 010146              	mov	r1,-(r6)		; f.
106314: 004737 106422       	call	@#106422		; _...
106320: 032737 000200 177564	bit	#200,@#177564		; _5..t.
106326: 001001              	bne	6332			; ..
106330: 000771              	br	6314			; y.
;
106332: 013700 007202       	mov	@#7202,r0		; @...
106336: 023700 007200       	cmp	@#7200,r0		; @'..
106342: 001004              	bne	6354			; ..
106344: 042737 000100 177564	bic	#100,@#177564		; _E@.t.
106352: 000420              	br	6414			; ..
;
106354: 011001              	mov	(r0),r1			; ..
106356: 105711              	tstb	(r1)			; I.
106360: 001011              	bne	6404			; ..
106362: 005720              	tst	(r0)+			; P.
106364: 022700 007377       	cmp	#7377,r0		; @%..
106370: 002002              	bge	6376			; ..
106372: 012700 007204       	mov	#7204,r0		; @...
106376: 010037 007202       	mov	r0,@#7202		; ....
106402: 000755              	br	6336			; m.
;
106404: 112137 177566       	movb	(r1)+,@#177566		; _.v.
106410: 010110              	mov	r1,(r0)			; H.
106412: 000740              	br	6314			; `.
;
106414: 012601              	mov	(r6)+,r1		; ..
106416: 012600              	mov	(r6)+,r0		; ..
106420: 000006              	rtt				; ..
;
106422: 032737 000200 177560	bit	#200,@#177560		; _5..p.
106430: 001436              	beq	6526			; ..
106432: 013700 007000       	mov	@#7000,r0		; @...
106436: 113710 177562       	movb	@#177562,(r0)		; H.r.
106442: 142710 000200       	bicb	#200,(r0)		; HE..
106446: 122710 000021       	cmpb	#21,(r0)		; H%..
106452: 001425              	beq	6526			; ..
106454: 122710 000023       	cmpb	#23,(r0)		; H%..
106460: 001005              	bne	6474			; ..
106462: 032737 000200 177560	bit	#200,@#177560		; _5..p.
106470: 001774              	beq	6462			; |.
106472: 000757              	br	6432			; o.
;
106474: 022720 000003       	cmp	#3,(r0)+		; P%..
106500: 001003              	bne	6510			; ..
106502: 005237 001742       	inc	@#1742			; ..b.
106506: 000407              	br	6526			; ..
;
106510: 022700 007177       	cmp	#7177,r0		; @%..
106514: 002002              	bge	6522			; ..
106516: 012700 007004       	mov	#7004,r0		; @...
106522: 010037 007000       	mov	r0,@#7000		; ....
106526: 000207              	ret				; ..
;
106530: 005015              	clr	(r5)			; ..
106532: 041040              	bic	(r0),-(r0)		;  B
106534: 052120              	bis	(r1)+,(r0)+		; PT
106536: 036440 020075       	bit	20075(r4),-(r0)		;  == 
106542: 026400 051055       	cmp	51055(r4),r0		; .--R
106546: 026460 020055 026440	cmp	20055(r4),26440(r0)	; 0--  -
106554: 051055              	bis	(r0),@-(r5)		; -R
106556: 026461 020055 026440	cmp	20055(r4),26440(r1)	; 1--  -
106564: 051055              	bis	(r0),@-(r5)		; -R
106566: 026462 020055 026440	cmp	20055(r4),26440(r2)	; 2--  -
106574: 051055              	bis	(r0),@-(r5)		; -R
106576: 026463 020055 026440	cmp	20055(r4),26440(r3)	; 3--  -
106604: 051055              	bis	(r0),@-(r5)		; -R
106606: 026464 020055 026440	cmp	20055(r4),26440(r4)	; 4--  -
106614: 051055              	bis	(r0),@-(r5)		; -R
106616: 026465 020055 026440	cmp	20055(r4),26440(r5)	; 5--  -
106624: 051455              	bis	(r4),@-(r5)		; -S
106626: 026520 020055       	cmp	20055(r5),(r0)+		; P-- 
106632: 026440 050055       	cmp	50055(r4),-(r0)		;  --P
106636: 026503 020055       	cmp	20055(r5),r3		; C-- 
106642: 026440 041524       	cmp	41524(r4),-(r0)		;  -TC
106646: 026502 006455       	cmp	6455(r5),r2		; B--.
106652: 020012              	cmp	r0,(r2)			; . 
106654: 020040              	cmp	r0,-(r0)		;   
106656: 020040              	cmp	r0,-(r0)		;   
106660: 020040              	cmp	r0,-(r0)		;   
106662: 000040              	invalid opcode			;  .
106664: 005015              	clr	(r5)			; ..
106666: 006400              	mark	0			; ..
106670: 020012              	cmp	r0,(r2)			; . 
106672: 047511 020124       	bic	@20124(r5),(r1)		; IOT 
106676: 036475 000040 005015	bit	40(r4),@5015(r5)	; == ...
106704: 042440              	bic	(r4)+,-(r0)		;  E
106706: 052115              	bis	(r1)+,(r5)		; MT
106710: 036440 020075       	bit	20075(r4),-(r0)		;  == 
106714: 006400              	mark	0			; ..
106716: 020012              	cmp	r0,(r2)			; . 
106720: 046524 020060       	bic	20060(r5),(r4)+		; TM0 
106724: 036475 000040 012746	bit	40(r4),@12746(r5)	; == .f.
106732: 106310              	aslb	(r0)			; H.
106734: 004737 104746       	call	@#104746		; _.f.
106740: 012700 106667       	mov	#106667,r0		; @.7.
106744: 000240              	nop				;  .
106746: 000137 106206       	jmp	@#106206		; _...
;
106752: 012746 106310       	mov	#106310,-(r6)		; f.H.
106756: 004737 104746       	call	@#104746		; _.f.
106762: 000240              	nop				;  .
106764: 012700 106702       	mov	#106702,r0		; @.B.
106770: 000137 106206       	jmp	@#106206		; _...
;
106774: 012746 106310       	mov	#106310,-(r6)		; f.H.
107000: 004737 104746       	call	@#104746		; _.f.
107004: 012700 106715       	mov	#106715,r0		; @.M.
107010: 000240              	nop				;  .
107012: 000137 106206       	jmp	@#106206		; _...
;
107016: 012746 107070       	mov	#107070,-(r6)		; f.8.
107022: 004737 104746       	call	@#104746		; _.f.
107026: 016600 000016       	mov	16(r6),r0		; ....
107032: 014000              	mov	-(r0),r0		; ..
107034: 006100              	rol	r0			; @.
107036: 042700 177761       	bic	#177761,r0		; @Eq.
107042: 022700 000013       	cmp	#13,r0			; @%..
107046: 003406              	ble	7064			; ..
107050: 060600              	add	r6,r0			; .a
107052: 062710 000004       	add	#4,(r0)			; He..
107056: 011000              	mov	(r0),r0			; ..
107060: 005020              	clr	(r0)+			; ..
107062: 005010              	clr	(r0)			; ..
107064: 004737 104772       	call	@#104772		; _.z.
107070: 000240              	nop				;  .
107072: 000006              	rtt				; ..
;
107074: 000240              	nop				;  .
107076: 000006              	rtt				; ..
;
107100: 000000              	halt				; ..
107102: 000000              	halt				; ..
107104: 000000              	halt				; ..
107106: 000000              	halt				; ..
107110: 000000              	halt				; ..
107112: 000000              	halt				; ..
107114: 000000              	halt				; ..
107116: 000000              	halt				; ..
107120: 000000              	halt				; ..
107122: 000000              	halt				; ..
107124: 000000              	halt				; ..
107126: 000000              	halt				; ..
107130: 000000              	halt				; ..
107132: 000000              	halt				; ..
107134: 000000              	halt				; ..
107136: 000000              	halt				; ..
107140: 000000              	halt				; ..
107142: 000000              	halt				; ..
107144: 000000              	halt				; ..
107146: 000000              	halt				; ..
107150: 000000              	halt				; ..
;
107152: 005746              	tst	-(r6)			; f.
107154: 000406              	br	7172			; ..
;
107156: 005746              	tst	-(r6)			; f.
107160: 010116              	mov	r1,(r6)			; N.
107162: 016601 000010       	mov	10(r6),r1		; ....
107166: 011666 000010       	mov	(r6),10(r6)		; 6...
107172: 010016              	mov	r0,(r6)			; ..
107174: 016600 000006       	mov	6(r6),r0		; ....
107200: 012666 000004       	mov	(r6)+,4(r6)		; 6...
107204: 000207              	ret				; ..
;
107206: 005746              	tst	-(r6)			; f.
107210: 010216              	mov	r2,(r6)			; ..
107212: 016602 000012       	mov	12(r6),r2		; ....
107216: 011666 000012       	mov	(r6),12(r6)		; 6...
107222: 000756              	br	7160			; n.
;
107224: 005746              	tst	-(r6)			; f.
107226: 010316              	mov	r3,(r6)			; N.
107230: 016603 000014       	mov	14(r6),r3		; ....
107234: 011666 000014       	mov	(r6),14(r6)		; 6...
107240: 000763              	br	7210			; s.
;
107242: 005746              	tst	-(r6)			; f.
107244: 010416              	mov	r4,(r6)			; ..
107246: 016604 000016       	mov	16(r6),r4		; ....
107252: 011666 000016       	mov	(r6),16(r6)		; 6...
107256: 000763              	br	7226			; s.
;
107260: 010546              	mov	r5,-(r6)		; f.
107262: 016605 000020       	mov	20(r6),r5		; ....
107266: 011666 000020       	mov	(r6),20(r6)		; 6...
107272: 000764              	br	7244			; t.
;
107274: 004767 177656       	call	107156			; w...
107300: 166160 000002 000002	sub	2(r1),2(r0)		; pl....
107306: 005610              	sbc	(r0)			; ..
107310: 161110              	sub	(r1),(r0)		; Hb
107312: 004767 177640       	call	107156			; w. .
107316: 000207              	ret				; ..
;
107320: 004767 177632       	call	107156			; w...
107324: 066160 000002 000002	add	2(r1),2(r0)		; pl....
107332: 005510              	adc	(r0)			; H.
107334: 061110              	add	(r1),(r0)		; Hb
107336: 004767 177614       	call	107156			; w...
107342: 000207              	ret				; ..
;
107344: 004767 177636       	call	107206			; w...
107350: 004767 175372       	call	104746			; w.zz
107354: 010104              	mov	r1,r4			; D.
107356: 010205              	mov	r2,r5			; ..
107360: 011402              	mov	(r4),r2			; ..
107362: 016403 000002       	mov	2(r4),r3		; ....
107366: 011500              	mov	(r5),r0			; @.
107370: 016501 000002       	mov	2(r5),r1		; A...
107374: 005046              	clr	-(r6)			; &.
107376: 005004              	clr	r4			; ..
107400: 005005              	clr	r5			; ..
107402: 052704 100000       	bis	#100000,r4		; DU..
107406: 030400              	bit	r4,r0			; .1
107410: 001023              	bne	7460			; ..
107412: 030501              	bit	r5,r1			; A1
107414: 001021              	bne	7460			; ..
107416: 030402              	bit	r4,r2			; .1
107420: 001017              	bne	7460			; ..
107422: 030503              	bit	r5,r3			; C1
107424: 001015              	bne	7460			; ..
107426: 005216              	inc	(r6)			; ..
107430: 022716 000040       	cmp	#40,(r6)		; N% .
107434: 002404              	blt	7446			; ..
107436: 000241              	clc				; !.
107440: 006004              	ror	r4			; ..
107442: 006005              	ror	r5			; ..
107444: 000760              	br	7406			; p.
;
107446: 005000              	clr	r0			; ..
107450: 005001              	clr	r1			; ..
107452: 005004              	clr	r4			; ..
107454: 005005              	clr	r5			; ..
107456: 000442              	br	7564			; ".
;
107460: 005016              	clr	(r6)			; ..
107462: 030402              	bit	r4,r2			; .1
107464: 001012              	bne	7512			; ..
107466: 030503              	bit	r5,r3			; C1
107470: 001010              	bne	7512			; ..
107472: 005216              	inc	(r6)			; ..
107474: 022716 000040       	cmp	#40,(r6)		; N% .
107500: 002762              	blt	7446			; r.
107502: 000241              	clc				; !.
107504: 006103              	rol	r3			; C.
107506: 006102              	rol	r2			; B.
107510: 000764              	br	7462			; t.
;
107512: 005004              	clr	r4			; ..
107514: 005005              	clr	r5			; ..
107516: 000241              	clc				; !.
107520: 006105              	rol	r5			; E.
107522: 006104              	rol	r4			; D.
107524: 160301              	sub	r3,r1			; A`
107526: 005600              	sbc	r0			; ..
107530: 160200              	sub	r2,r0			; .`
107532: 002403              	blt	7542			; ..
107534: 052705 000001       	bis	#1,r5			; EU..
107540: 000403              	br	7550			; ..
;
107542: 060301              	add	r3,r1			; A`
107544: 005500              	adc	r0			; @.
107546: 060200              	add	r2,r0			; .`
107550: 000241              	clc				; !.
107552: 006002              	ror	r2			; ..
107554: 006003              	ror	r3			; ..
107556: 162716 000001       	sub	#1,(r6)			; Ne..
107562: 002355              	bge	7516			; m.
107564: 005726              	tst	(r6)+			; V.
107566: 011602              	mov	(r6),r2			; ..
107570: 016603 000004       	mov	4(r6),r3		; ....
107574: 010012              	mov	r0,(r2)			; ..
107576: 010162 000002       	mov	r1,2(r2)		; r...
107602: 010413              	mov	r4,(r3)			; ..
107604: 010563 000002       	mov	r5,2(r3)		; s...
107610: 012600              	mov	(r6)+,r0		; ..
107612: 012601              	mov	(r6)+,r1		; ..
107614: 012602              	mov	(r6)+,r2		; ..
107616: 012603              	mov	(r6)+,r3		; ..
107620: 012604              	mov	(r6)+,r4		; ..
107622: 012605              	mov	(r6)+,r5		; ..
107624: 004767 177356       	call	107206			; w.n~
107630: 000207              	ret				; ..
;
107632: 004767 177320       	call	107156			; w.P~
107636: 004767 175104       	call	104746			; w.Dz
107642: 005046              	clr	-(r6)			; &.
107644: 011002              	mov	(r0),r2			; ..
107646: 016003 000002       	mov	2(r0),r3		; ....
107652: 011104              	mov	(r1),r4			; D.
107654: 016105 000002       	mov	2(r1),r5		; E...
107660: 005001              	clr	r1			; ..
107662: 005000              	clr	r0			; ..
107664: 032703 000001       	bit	#1,r3			; C5..
107670: 001403              	beq	7700			; ..
107672: 060501              	add	r5,r1			; Aa
107674: 005500              	adc	r0			; @.
107676: 060400              	add	r4,r0			; .a
107700: 000241              	clc				; !.
107702: 006000              	ror	r0			; ..
107704: 006001              	ror	r1			; ..
107706: 006002              	ror	r2			; ..
107710: 006003              	ror	r3			; ..
107712: 005216              	inc	(r6)			; ..
107714: 022716 000040       	cmp	#40,(r6)		; N% .
107720: 001361              	bne	7664			; q.
107722: 005726              	tst	(r6)+			; V.
107724: 011600              	mov	(r6),r0			; ..
107726: 011601              	mov	(r6),r1			; ..
107730: 010210              	mov	r2,(r0)			; ..
107732: 010360 000002       	mov	r3,2(r0)		; p...
107736: 012600              	mov	(r6)+,r0		; ..
107740: 012601              	mov	(r6)+,r1		; ..
107742: 012602              	mov	(r6)+,r2		; ..
107744: 012603              	mov	(r6)+,r3		; ..
107746: 012604              	mov	(r6)+,r4		; ..
107750: 012605              	mov	(r6)+,r5		; ..
107752: 004767 177200       	call	107156			; w..~
107756: 000207              	ret				; ..
;
107760: 011146              	mov	(r1),-(r6)		; f.
107762: 016646 000002       	mov	2(r6),-(r6)		; &...
107766: 016166 000002 000004	mov	2(r1),4(r6)		; v.....
107774: 010601              	mov	r6,r1			; ..
107776: 062701 000002       	add	#2,r1			; Ae..
110002: 005003              	clr	r3			; ..
110004: 005766 000002       	tst	2(r6)			; v...
110010: 002012              	bge	10036			; ..
110012: 005203              	inc	r3			; ..
110014: 005166 000002       	com	2(r6)			; v...
110020: 005166 000004       	com	4(r6)			; v...
110024: 062766 000001 000004	add	#1,4(r6)		; ve....
110032: 005566 000002       	adc	2(r6)			; v...
110036: 000207              	ret				; ..
;
110040: 005004              	clr	r4			; ..
110042: 004767 000006       	call	110054			; w...
110046: 152704 000060       	bisb	#60,r4			; DU0.
110052: 000207              	ret				; ..
;
110054: 012746 177774       	mov	#177774,-(r6)		; f.|.
110060: 073426              	ashc	(r6)+,r4		; .w
110062: 010546              	mov	r5,-(r6)		; f.
110064: 010446              	mov	r4,-(r6)		; &.
110066: 016105 000002       	mov	2(r1),r5		; E...
110072: 011104              	mov	(r1),r4			; D.
110074: 012746 000012       	mov	#12,-(r6)		; f...
110100: 071426              	div	(r6)+,r4		; .s
110102: 102407              	bvs	10122			; ..
110104: 010461 000002       	mov	r4,2(r1)		; 1...
110110: 005011              	clr	(r1)			; ..
110112: 050516              	bis	r5,(r6)			; NQ
110114: 012604              	mov	(r6)+,r4		; ..
110116: 012605              	mov	(r6)+,r5		; ..
110120: 000207              	ret				; ..
;
110122: 162706 000012       	sub	#12,r6			; Fe..
110126: 010616              	mov	r6,(r6)			; ..
110130: 012766 111312 000002	mov	#111312,2(r6)		; v.J...
110136: 010166 000004       	mov	r1,4(r6)		; v...
110142: 062716 000006       	add	#6,(r6)			; Ne..
110146: 004767 177172       	call	107344			; w.z~
110152: 016605 000010       	mov	10(r6),r5		; ....
110156: 062706 000012       	add	#12,r6			; Fe..
110162: 000753              	br	10112			; k.
;
110164: 004767 174556       	call	104746			; w.ny
110170: 004767 177564       	call	107760			; w.t.
110174: 060200              	add	r2,r0			; .`
110176: 005711              	tst	(r1)			; I.
110200: 001006              	bne	10216			; ..
110202: 005761 000002       	tst	2(r1)			; q...
110206: 001003              	bne	10216			; ..
110210: 112740 000060       	movb	#60,-(r0)		; `.0.
110214: 000425              	br	10270			; ..
;
110216: 005004              	clr	r4			; ..
110220: 005005              	clr	r5			; ..
110222: 004767 177612       	call	110040			; w...
110226: 110440              	movb	r4,-(r0)		;  .
110230: 005711              	tst	(r1)			; I.
110232: 001023              	bne	10302			; ..
110234: 005761 000002       	tst	2(r1)			; q...
110240: 001020              	bne	10302			; ..
110242: 122704 000060       	cmpb	#60,r4			; D%0.
110246: 001015              	bne	10302			; ..
110250: 005703              	tst	r3			; C.
110252: 001404              	beq	10264			; ..
110254: 112710 000055       	movb	#55,(r0)		; H.-.
110260: 005303              	dec	r3			; C.
110262: 000402              	br	10270			; ..
;
110264: 112710 000040       	movb	#40,(r0)		; H. .
110270: 005302              	dec	r2			; B.
110272: 003424              	ble	10344			; ..
110274: 112740 000040       	movb	#40,-(r0)		; `. .
110300: 000773              	br	10270			; {.
;
110302: 005302              	dec	r2			; B.
110304: 003344              	bgt	10216			; d.
110306: 005711              	tst	(r1)			; I.
110310: 001004              	bne	10322			; ..
110312: 005761 000002       	tst	2(r1)			; q...
110316: 001001              	bne	10322			; ..
110320: 000411              	br	10344			; ..
;
110322: 016602 000010       	mov	10(r6),r2		; ....
110326: 016600 000004       	mov	4(r6),r0		; ....
110332: 060200              	add	r2,r0			; .`
110334: 112740 000052       	movb	#52,-(r0)		; `.*.
110340: 005302              	dec	r2			; B.
110342: 003374              	bgt	10334			; |.
110344: 062706 000004       	add	#4,r6			; Fe..
110350: 004767 174416       	call	104772			; w..y
110354: 004767 174366       	call	104746			; w.vx
110360: 016101 000002       	mov	2(r1),r1		; A...
110364: 000402              	br	10372			; ..
;
110366: 004767 174354       	call	104746			; w.lx
110372: 060200              	add	r2,r0			; .`
110374: 010105              	mov	r1,r5			; E.
110376: 006001              	ror	r1			; ..
110400: 006001              	ror	r1			; ..
110402: 006001              	ror	r1			; ..
110404: 042701 160000       	bic	#160000,r1		; AE.`
110410: 042705 177770       	bic	#177770,r5		; EEx.
110414: 052705 000060       	bis	#60,r5			; EU0.
110420: 110540              	movb	r5,-(r0)		; `.
110422: 077214              	sob	r2,10374		; .~
110424: 004767 174342       	call	104772			; w.bx
110430: 004767 174312       	call	104746			; w.Jx
110434: 010105              	mov	r1,r5			; E.
110436: 060200              	add	r2,r0			; .`
110440: 005004              	clr	r4			; ..
110442: 012746 000012       	mov	#12,-(r6)		; f...
110446: 071426              	div	(r6)+,r4		; .s
110450: 052705 000060       	bis	#60,r5			; EU0.
110454: 110540              	movb	r5,-(r0)		; `.
110456: 010405              	mov	r4,r5			; ..
110460: 077211              	sob	r2,10440		; .~
110462: 004767 174304       	call	104772			; w.Dx
110466: 004767 174254       	call	104746			; w.,x
110472: 005010              	clr	(r0)			; ..
110474: 005060 000002       	clr	2(r0)			; 0...
110500: 000412              	br	10526			; ..
;
110502: 012746 000004       	mov	#4,-(r6)		; f...
110506: 073426              	ashc	(r6)+,r4		; .w
110510: 004767 001146       	call	111662			; w.f.
110514: 005302              	dec	r2			; B.
110516: 003410              	ble	10540			; ..
110520: 005303              	dec	r3			; C.
110522: 003401              	ble	10526			; ..
110524: 000403              	br	10534			; ..
;
110526: 012105              	mov	(r1)+,r5		; E.
110530: 012703 000004       	mov	#4,r3			; C...
110534: 005004              	clr	r4			; ..
110536: 000761              	br	10502			; q.
;
110540: 004767 174226       	call	104772			; w..x
110544: 004767 174176       	call	104746			; w.~x
110550: 016146 000002       	mov	2(r1),-(r6)		; f...
110554: 011146              	mov	(r1),-(r6)		; f.
110556: 010600              	mov	r6,r0			; ..
110560: 004767 000162       	call	110746			; w.r.
110564: 162702 000005       	sub	#5,r2			; Be..
110570: 010601              	mov	r6,r1			; ..
110572: 016600 000004       	mov	4(r6),r0		; ....
110576: 004767 177362       	call	110164			; w.r~
110602: 010600              	mov	r6,r0			; ..
110604: 004767 000324       	call	111134			; w.T.
110610: 016146 000002       	mov	2(r1),-(r6)		; f...
110614: 011146              	mov	(r1),-(r6)		; f.
110616: 016600 000012       	mov	12(r6),r0		; ....
110622: 016066 000002 000006	mov	2(r0),6(r6)		; 6.....
110630: 011066 000004       	mov	(r0),4(r6)		; 6...
110634: 010600              	mov	r6,r0			; ..
110636: 075010              	fsub	r0			; .z
110640: 010600              	mov	r6,r0			; ..
110642: 016766 000442 000002	mov	111310,2(r6)		; v."...
110650: 016716 000432       	mov	111306,(r6)		; N...
110654: 075020              	fmul	r0			; .z
110656: 004767 000064       	call	110746			; w.4.
110662: 022760 023420 000002	cmp	#23420,2(r0)		; p%.'..
110670: 003003              	bgt	10700			; ..
110672: 005360 000002       	dec	2(r0)			; p...
110676: 000771              	br	10662			; y.
;
110700: 010001              	mov	r0,r1			; ..
110702: 016600 000010       	mov	10(r6),r0		; ....
110706: 060200              	add	r2,r0			; .`
110710: 112720 000056       	movb	#56,(r0)+		; P...
110714: 012702 000004       	mov	#4,r2			; B...
110720: 004767 177240       	call	110164			; w. ~
110724: 152720 000060       	bisb	#60,(r0)+		; PU0.
110730: 005302              	dec	r2			; B.
110732: 005702              	tst	r2			; B.
110734: 003373              	bgt	10724			; {.
110736: 062706 000010       	add	#10,r6			; Fe..
110742: 004767 174024       	call	104772			; w..x
110746: 004767 173774       	call	104746			; w.|w
110752: 011004              	mov	(r0),r4			; ..
110754: 016005 000002       	mov	2(r0),r5		; ....
110760: 005000              	clr	r0			; ..
110762: 010401              	mov	r4,r1			; ..
110764: 012746 000001       	mov	#1,-(r6)		; f...
110770: 073026              	ashc	(r6)+,r0		; .v
110772: 010002              	mov	r0,r2			; ..
110774: 005000              	clr	r0			; ..
110776: 012746 000010       	mov	#10,-(r6)		; f...
111002: 073026              	ashc	(r6)+,r0		; .v
111004: 162700 000200       	sub	#200,r0			; @e..
111010: 012746 000010       	mov	#10,-(r6)		; f...
111014: 073026              	ashc	(r6)+,r0		; .v
111016: 012746 177770       	mov	#177770,-(r6)		; f.x.
111022: 073026              	ashc	(r6)+,r0		; .v
111024: 005700              	tst	r0			; @.
111026: 003006              	bgt	11044			; ..
111030: 011605              	mov	(r6),r5			; ..
111032: 005015              	clr	(r5)			; ..
111034: 005065 000002       	clr	2(r5)			; 5...
111040: 004767 173726       	call	104772			; w.Vw
111044: 012746 000010       	mov	#10,-(r6)		; f...
111050: 073426              	ashc	(r6)+,r4		; .w
111052: 010201              	mov	r2,r1			; ..
111054: 005002              	clr	r2			; ..
111056: 005003              	clr	r3			; ..
111060: 052704 100000       	bis	#100000,r4		; DU..
111064: 000241              	clc				; !.
111066: 006105              	rol	r5			; E.
111070: 006104              	rol	r4			; D.
111072: 006103              	rol	r3			; C.
111074: 006102              	rol	r2			; B.
111076: 005300              	dec	r0			; @.
111100: 003371              	bgt	11064			; y.
111102: 005701              	tst	r1			; A.
111104: 001405              	beq	11120			; ..
111106: 005102              	com	r2			; B.
111110: 005103              	com	r3			; C.
111112: 062703 000001       	add	#1,r3			; Ce..
111116: 005502              	adc	r2			; B.
111120: 011600              	mov	(r6),r0			; ..
111122: 010210              	mov	r2,(r0)			; ..
111124: 010360 000002       	mov	r3,2(r0)		; p...
111130: 004767 173636       	call	104772			; w..w
111134: 004767 173606       	call	104746			; w..w
111140: 012002              	mov	(r0)+,r2		; ..
111142: 011003              	mov	(r0),r3			; ..
111144: 005000              	clr	r0			; ..
111146: 005702              	tst	r2			; B.
111150: 002007              	bge	11170			; ..
111152: 005102              	com	r2			; B.
111154: 005103              	com	r3			; C.
111156: 062703 000001       	add	#1,r3			; Ce..
111162: 005502              	adc	r2			; B.
111164: 012700 000001       	mov	#1,r0			; @...
111170: 005005              	clr	r5			; ..
111172: 005001              	clr	r1			; ..
111174: 005702              	tst	r2			; B.
111176: 001007              	bne	11216			; ..
111200: 005703              	tst	r3			; C.
111202: 001005              	bne	11216			; ..
111204: 011600              	mov	(r6),r0			; ..
111206: 005020              	clr	(r0)+			; ..
111210: 005010              	clr	(r0)			; ..
111212: 004767 173554       	call	104772			; w.lw
111216: 000241              	clc				; !.
111220: 006103              	rol	r3			; C.
111222: 006102              	rol	r2			; B.
111224: 006101              	rol	r1			; A.
111226: 005205              	inc	r5			; ..
111230: 005701              	tst	r1			; A.
111232: 001771              	beq	11216			; y.
111234: 012701 000241       	mov	#241,r1			; A.!.
111240: 160501              	sub	r5,r1			; Aa
111242: 012705 000010       	mov	#10,r5			; E...
111246: 000241              	clc				; !.
111250: 006001              	ror	r1			; ..
111252: 006002              	ror	r2			; ..
111254: 006003              	ror	r3			; ..
111256: 077505              	sob	r5,11246		; E.
111260: 010001              	mov	r0,r1			; ..
111262: 006001              	ror	r1			; ..
111264: 006002              	ror	r2			; ..
111266: 006003              	ror	r3			; ..
111270: 011600              	mov	(r6),r0			; ..
111272: 010220              	mov	r2,(r0)+		; ..
111274: 010310              	mov	r3,(r0)			; H.
111276: 004767 173470       	call	104772			; w.8w
111302: 041040              	bic	(r0),-(r0)		;  B
111304: 000000              	halt				; ..
;
111306: 043434              	bic	@(r4)+,@(r4)+		; .G
111310: 040000              	bic	r0,r0			; .@
111312: 000000              	halt				; ..
;
111314: 000012              	invalid opcode			; ..
111316: 004767 173424       	call	104746			; w..w
111322: 005004              	clr	r4			; ..
111324: 005005              	clr	r5			; ..
111326: 112103              	movb	(r1)+,r3		; C.
111330: 122703 000067       	cmpb	#67,r3			; C%7.
111334: 002413              	blt	11364			; ..
111336: 122703 000060       	cmpb	#60,r3			; C%0.
111342: 003010              	bgt	11364			; ..
111344: 042703 177760       	bic	#177760,r3		; CEp.
111350: 012746 000003       	mov	#3,-(r6)		; f...
111354: 073426              	ashc	(r6)+,r4		; .w
111356: 050305              	bis	r3,r5			; EP
111360: 005302              	dec	r2			; B.
111362: 003361              	bgt	11326			; q.
111364: 010410              	mov	r4,(r0)			; ..
111366: 010560 000002       	mov	r5,2(r0)		; p...
111372: 004767 173374       	call	104772			; w.|v
111376: 004767 173344       	call	104746			; w.dv
111402: 005003              	clr	r3			; ..
111404: 005010              	clr	(r0)			; ..
111406: 005060 000002       	clr	2(r0)			; 0...
111412: 122711 000055       	cmpb	#55,(r1)		; I%-.
111416: 001004              	bne	11430			; ..
111420: 005201              	inc	r1			; ..
111422: 005203              	inc	r3			; ..
111424: 005302              	dec	r2			; B.
111426: 003421              	ble	11472			; ..
111430: 112104              	movb	(r1)+,r4		; D.
111432: 122704 000056       	cmpb	#56,r4			; D%..
111436: 001406              	beq	11454			; ..
111440: 042704 177760       	bic	#177760,r4		; DEp.
111444: 004767 000212       	call	111662			; w...
111450: 005302              	dec	r2			; B.
111452: 003366              	bgt	11430			; v.
111454: 005703              	tst	r3			; C.
111456: 001405              	beq	11472			; ..
111460: 005120              	com	(r0)+			; P.
111462: 005110              	com	(r0)			; H.
111464: 062710 000001       	add	#1,(r0)			; He..
111470: 005540              	adc	-(r0)			; `.
111472: 004767 173274       	call	104772			; w.<v
111476: 004767 173244       	call	104746			; w.$v
111502: 004767 177670       	call	111376			; w.8.
111506: 016046 000002       	mov	2(r0),-(r6)		; &...
111512: 012046              	mov	(r0)+,-(r6)		; &.
111514: 005010              	clr	(r0)			; ..
111516: 005040              	clr	-(r0)			;  .
111520: 005302              	dec	r2			; B.
111522: 122721 000056       	cmpb	#56,(r1)+		; Q%..
111526: 001403              	beq	11536			; ..
111530: 005702              	tst	r2			; B.
111532: 003372              	bgt	11520			; z.
111534: 000402              	br	11542			; ..
;
111536: 004767 177634       	call	111376			; w...
111542: 016046 000002       	mov	2(r0),-(r6)		; &...
111546: 011046              	mov	(r0),-(r6)		; &.
111550: 010600              	mov	r6,r0			; ..
111552: 004767 177356       	call	111134			; w.n~
111556: 062700 000004       	add	#4,r0			; @e..
111562: 004767 177346       	call	111134			; w.f~
111566: 162700 000010       	sub	#10,r0			; @e..
111572: 016746 177506       	mov	111304,-(r6)		; f.F.
111576: 016746 177500       	mov	111302,-(r6)		; f.@.
111602: 075030              	fdiv	r0			; .z
111604: 162700 000004       	sub	#4,r0			; @e..
111610: 005302              	dec	r2			; B.
111612: 003373              	bgt	11602			; {.
111614: 062700 000004       	add	#4,r0			; @e..
111620: 016605 000010       	mov	10(r6),r5		; ....
111624: 042705 077777       	bic	#77777,r5		; EE..
111630: 050566 000004       	bis	r5,4(r6)		; vQ..
111634: 075000              	fadd	r0			; .z
111636: 016600 000014       	mov	14(r6),r0		; ....
111642: 016620 000010       	mov	10(r6),(r0)+		; ....
111646: 016610 000012       	mov	12(r6),(r0)		; ....
111652: 062706 000014       	add	#14,r6			; Fe..
111656: 004767 173110       	call	104772			; w.Hv
111662: 010546              	mov	r5,-(r6)		; f.
111664: 010446              	mov	r4,-(r6)		; &.
111666: 011004              	mov	(r0),r4			; ..
111670: 016005 000002       	mov	2(r0),r5		; ....
111674: 005704              	tst	r4			; D.
111676: 001021              	bne	11742			; ..
111700: 005705              	tst	r5			; E.
111702: 002417              	blt	11742			; ..
111704: 010504              	mov	r5,r4			; D.
111706: 005005              	clr	r5			; ..
111710: 012746 000012       	mov	#12,-(r6)		; f...
111714: 070426              	mul	(r6)+,r4		; .q
111716: 103411              	bcs	11742			; ..
111720: 010410              	mov	r4,(r0)			; ..
111722: 010560 000002       	mov	r5,2(r0)		; p...
111726: 061660 000002       	add	(r6),2(r0)		; 0c..
111732: 005510              	adc	(r0)			; H.
111734: 012604              	mov	(r6)+,r4		; ..
111736: 012605              	mov	(r6)+,r5		; ..
111740: 000207              	ret				; ..
;
111742: 011004              	mov	(r0),r4			; ..
111744: 016005 000002       	mov	2(r0),r5		; ....
111750: 000241              	clc				; !.
111752: 012746 000002       	mov	#2,-(r6)		; f...
111756: 073426              	ashc	(r6)+,r4		; .w
111760: 066005 000002       	add	2(r0),r5		; .l..
111764: 005504              	adc	r4			; D.
111766: 061004              	add	(r0),r4			; .b
111770: 012746 000001       	mov	#1,-(r6)		; f...
111774: 073426              	ashc	(r6)+,r4		; .w
111776: 000750              	br	11720			; h.
;
112000: 004767 172742       	call	104746			; w.bu
112004: 005702              	tst	r2			; B.
112006: 003414              	ble	12040			; ..
112010: 012104              	mov	(r1)+,r4		; D.
112012: 011105              	mov	(r1),r5			; E.
112014: 060200              	add	r2,r0			; .`
112016: 032705 000001       	bit	#1,r5			; E5..
112022: 001403              	beq	12032			; ..
112024: 112740 000061       	movb	#61,-(r0)		; `.1.
112030: 000402              	br	12036			; ..
;
112032: 112740 000060       	movb	#60,-(r0)		; `.0.
112036: 077211              	sob	r2,12016		; .~
112040: 004767 172726       	call	104772			; w.Vu
112044: 004737 112302       	call	@#112302		; _.B.
112050: 004737 112370       	call	@#112370		; _.x.
112054: 000403              	br	12064			; ..
;
112056: 004737 112322       	call	@#112322		; _.R.
112062: 000207              	ret				; ..
;
112064: 012713 000100       	mov	#100,(r3)		; K.@.
112070: 000772              	br	12056			; z.
;
112072: 004737 112302       	call	@#112302		; _.B.
112076: 004737 112370       	call	@#112370		; _.x.
112102: 000403              	br	12112			; ..
;
112104: 004737 112322       	call	@#112322		; _.R.
112110: 000207              	ret				; ..
;
112112: 000240              	nop				;  .
112114: 032713 000100       	bit	#100,(r3)		; K5@.
112120: 001003              	bne	12130			; ..
112122: 012713 000100       	mov	#100,(r3)		; K.@.
112126: 000766              	br	12104			; v.
;
112130: 032713 000200       	bit	#200,(r3)		; K5..
112134: 001402              	beq	12142			; ..
112136: 005265 000024       	inc	24(r5)			; 5...
112142: 016402 000004       	mov	4(r4),r2		; ....
112146: 105712              	tstb	(r2)			; J.
112150: 001012              	bne	12176			; ..
112152: 016402 000006       	mov	6(r4),r2		; ....
112156: 001401              	beq	12162			; ..
112160: 005012              	clr	(r2)			; ..
112162: 004737 112420       	call	@#112420		; _...
112166: 000765              	br	12142			; u.
;
112170: 042713 000100       	bic	#100,(r3)		; KE@.
112174: 000743              	br	12104			; c.
;
112176: 112263 000002       	movb	(r2)+,2(r3)		; 3...
112202: 010264 000004       	mov	r2,4(r4)		; 4...
112206: 000736              	br	12104			; ^.
;
112210: 106746              	mfps	-(r6)			; f.
112212: 004737 112302       	call	@#112302		; _.B.
112216: 004737 112342       	call	@#112342		; _.b.
112222: 000406              	br	12240			; ..
;
112224: 042713 000100       	bic	#100,(r3)		; KE@.
112230: 004737 112322       	call	@#112322		; _.R.
112234: 005726              	tst	(r6)+			; V.
112236: 000002              	rti				; ..
;
112240: 016402 000004       	mov	4(r4),r2		; ....
112244: 105712              	tstb	(r2)			; J.
112246: 001405              	beq	12262			; ..
112250: 112263 000002       	movb	(r2)+,2(r3)		; 3...
112254: 010264 000004       	mov	r2,4(r4)		; 4...
112260: 000763              	br	12230			; s.
;
112262: 016402 000006       	mov	6(r4),r2		; ....
112266: 001401              	beq	12272			; ..
112270: 005012              	clr	(r2)			; ..
112272: 004737 112420       	call	@#112420		; _...
112276: 000760              	br	12240			; p.
;
112300: 000751              	br	12224			; i.
;
112302: 010446              	mov	r4,-(r6)		; &.
112304: 010346              	mov	r3,-(r6)		; f.
112306: 010246              	mov	r2,-(r6)		; &.
112310: 016646 000006       	mov	6(r6),-(r6)		; &...
112314: 010566 000010       	mov	r5,10(r6)		; v...
112320: 000207              	ret				; ..
;
112322: 016605 000010       	mov	10(r6),r5		; ....
112326: 012666 000006       	mov	(r6)+,6(r6)		; 6...
112332: 012602              	mov	(r6)+,r2		; ..
112334: 012603              	mov	(r6)+,r3		; ..
112336: 012604              	mov	(r6)+,r4		; ..
112340: 000207              	ret				; ..
;
112342: 005005              	clr	r5			; ..
112344: 016604 000012       	mov	12(r6),r4		; ....
112350: 042704 177760       	bic	#177760,r4		; DEp.
112354: 001403              	beq	12364			; ..
112356: 012746 000030       	mov	#30,-(r6)		; f...
112362: 070426              	mul	(r6)+,r4		; .q
112364: 062705 001000       	add	#1000,r5		; Ee..
112370: 005065 000010       	clr	10(r5)			; 5...
112374: 016504 000002       	mov	2(r5),r4		; D...
112400: 016503 000020       	mov	20(r5),r3		; C...
112404: 026504 000000       	cmp	0(r5),r4		; D-..
112410: 001002              	bne	12416			; ..
112412: 062716 000002       	add	#2,(r6)			; Ne..
112416: 000207              	ret				; ..
;
112420: 016402 000002       	mov	2(r4),r2		; ....
112424: 032712 000002       	bit	#2,(r2)			; J5..
112430: 001402              	beq	12436			; ..
112432: 042712 077777       	bic	#77777,(r2)		; JE..
112436: 016465 000000 000002	mov	0(r4),2(r5)		; 5.....
112444: 016504 000002       	mov	2(r5),r4		; D...
112450: 026504 000000       	cmp	0(r5),r4		; D-..
112454: 001002              	bne	12462			; ..
112456: 062716 000002       	add	#2,(r6)			; Ne..
112462: 000207              	ret				; ..
;
112464: 004737 112302       	call	@#112302		; _.B.
112470: 004737 112370       	call	@#112370		; _.x.
112474: 000403              	br	12504			; ..
;
112476: 004737 112322       	call	@#112322		; _.R.
112502: 000207              	ret				; ..
;
112504: 016404 000004       	mov	4(r4),r4		; ....
112510: 005074 000004       	clr	@4(r4)			; <...
112514: 005764 000002       	tst	2(r4)			; t...
112520: 003013              	bgt	12550			; ..
112522: 005764 000006       	tst	6(r4)			; t...
112526: 001402              	beq	12534			; ..
112530: 005074 000006       	clr	@6(r4)			; <...
112534: 016504 000002       	mov	2(r5),r4		; D...
112540: 004737 112420       	call	@#112420		; _...
112544: 000757              	br	12504			; o.
;
112546: 000753              	br	12476			; k.
;
112550: 052713 000100       	bis	#100,(r3)		; KU@.
112554: 000750              	br	12476			; h.
;
112556: 004737 112302       	call	@#112302		; _.B.
112562: 004737 112370       	call	@#112370		; _.x.
112566: 000401              	br	12572			; ..
;
112570: 000410              	br	12612			; ..
;
112572: 000240              	nop				;  .
112574: 032713 000100       	bit	#100,(r3)		; K5@.
112600: 001007              	bne	12620			; ..
112602: 052713 000100       	bis	#100,(r3)		; KU@.
112606: 005265 000024       	inc	24(r5)			; 5...
112612: 004737 112322       	call	@#112322		; _.R.
112616: 000207              	ret				; ..
;
112620: 032713 000200       	bit	#200,(r3)		; K5..
112624: 001772              	beq	12612			; z.
112626: 000767              	br	12606			; w.
;
112630: 106746              	mfps	-(r6)			; f.
112632: 004737 112302       	call	@#112302		; _.B.
112636: 004737 112342       	call	@#112342		; _.b.
112642: 000406              	br	12660			; ..
;
112644: 042713 000100       	bic	#100,(r3)		; KE@.
112650: 004737 112322       	call	@#112322		; _.R.
112654: 005726              	tst	(r6)+			; V.
112656: 000002              	rti				; ..
;
112660: 000240              	nop				;  .
112662: 016402 000004       	mov	4(r4),r2		; ....
112666: 017204 000004       	mov	@4(r2),r4		; ....
112672: 066204 000000       	add	0(r2),r4		; .l..
112676: 126327 000002 000021	cmpb	2(r3),#21		; W,....
112704: 001761              	beq	12650			; q.
112706: 126327 000002 000023	cmpb	2(r3),#23		; W,....
112714: 001755              	beq	12650			; m.
112716: 116314 000002       	movb	2(r3),(r4)		; L...
112722: 005272 000004       	inc	@4(r2)			; :...
112726: 122714 000015       	cmpb	#15,(r4)		; L%..
112732: 001405              	beq	12746			; ..
112734: 027262 000004 000002	cmp	@4(r2),2(r2)		; 2.....
112742: 002001              	bge	12746			; ..
112744: 000741              	br	12650			; a.
;
112746: 016504 000002       	mov	2(r5),r4		; D...
112752: 005762 000006       	tst	6(r2)			; r...
112756: 001402              	beq	12764			; ..
112760: 005072 000006       	clr	@6(r2)			; :...
112764: 004737 112420       	call	@#112420		; _...
112770: 000401              	br	12774			; ..
;
112772: 000724              	br	12644			; T.
;
112774: 016402 000004       	mov	4(r4),r2		; ....
113000: 005072 000004       	clr	@4(r2)			; :...
113004: 005762 000002       	tst	2(r2)			; r...
113010: 001756              	beq	12746			; n.
113012: 000716              	br	12650			; N.
;
113014: 000300              	swab	r0			; @.
113016: 112630              	movb	(r6)+,@(r0)+		; ..
113020: 007020              	invalid opcode			; ..
113022: 112464 000004       	movb	(r4)+,4(r4)		; 4...
113026: 112556              	movb	(r5)+,@-(r6)		; n.
113030: 176500              	ldexp	f1,r0			; @}
113032: 000000              	halt				; ..
;
113034: 000304              	swab	r4			; D.
113036: 112210              	movb	(r2)+,(r0)		; ..
113040: 000074              	invalid opcode			; <.
113042: 112044              	movb	(r0)+,-(r4)		; $.
113044: 000004              	iot				; ..
113046: 112072 176504       	movb	(r0)+,@176504(r2)	; :.D}
113052: 000000              	halt				; ..
;
113054: 000330              	swab	@(r0)+			; X.
113056: 112630              	movb	(r6)+,@(r0)+		; ..
113060: 007020              	invalid opcode			; ..
113062: 112464 000004       	movb	(r4)+,4(r4)		; 4...
113066: 112556              	movb	(r5)+,@-(r6)		; n.
113070: 176530              	ldexp	f1,@(r0)+		; X}
113072: 000030              	invalid opcode			; ..
113074: 000334              	swab	@(r4)+			; \.
113076: 112210              	movb	(r2)+,(r0)		; ..
113100: 000074              	invalid opcode			; <.
113102: 112044              	movb	(r0)+,-(r4)		; $.
113104: 000004              	iot				; ..
113106: 112072 176534       	movb	(r0)+,@176534(r2)	; :.\}
113112: 000030              	invalid opcode			; ..
113114: 000000              	halt				; ..
113116: 000000              	halt				; ..
113120: 000000              	halt				; ..
113122: 000000              	halt				; ..
113124: 000000              	halt				; ..
113126: 000000              	halt				; ..
113130: 000000              	halt				; ..
113132: 000000              	halt				; ..
113134: 000000              	halt				; ..
113136: 000000              	halt				; ..
113140: 000000              	halt				; ..
113142: 000000              	halt				; ..
113144: 000000              	halt				; ..
113146: 000000              	halt				; ..
113150: 000000              	halt				; ..
113152: 000000              	halt				; ..
113154: 000000              	halt				; ..
113156: 000000              	halt				; ..
113160: 000000              	halt				; ..
113162: 000000              	halt				; ..
113164: 000000              	halt				; ..
113166: 000000              	halt				; ..
113170: 000000              	halt				; ..
113172: 000000              	halt				; ..
113174: 000000              	halt				; ..
113176: 000000              	halt				; ..
113200: 000000              	halt				; ..
113202: 000000              	halt				; ..
113204: 000000              	halt				; ..
113206: 000000              	halt				; ..
113210: 000000              	halt				; ..
113212: 000000              	halt				; ..
113214: 000000              	halt				; ..
113216: 000000              	halt				; ..
113220: 000000              	halt				; ..
113222: 000000              	halt				; ..
113224: 000000              	halt				; ..
113226: 000000              	halt				; ..
113230: 000000              	halt				; ..
113232: 000000              	halt				; ..
113234: 000000              	halt				; ..
113236: 000000              	halt				; ..
113240: 000000              	halt				; ..
113242: 000000              	halt				; ..
113244: 000000              	halt				; ..
113246: 000000              	halt				; ..
113250: 000000              	halt				; ..
113252: 000000              	halt				; ..
113254: 000000              	halt				; ..
113256: 000000              	halt				; ..
113260: 000000              	halt				; ..
113262: 000000              	halt				; ..
113264: 000000              	halt				; ..
113266: 000000              	halt				; ..
113270: 000000              	halt				; ..
113272: 000000              	halt				; ..
113274: 000000              	halt				; ..
113276: 000000              	halt				; ..
113300: 000000              	halt				; ..
113302: 000000              	halt				; ..
113304: 000000              	halt				; ..
113306: 000000              	halt				; ..
113310: 000000              	halt				; ..
113312: 000000              	halt				; ..
113314: 000000              	halt				; ..
113316: 000000              	halt				; ..
113320: 000000              	halt				; ..
113322: 000000              	halt				; ..
113324: 000000              	halt				; ..
113326: 000000              	halt				; ..
113330: 000000              	halt				; ..
113332: 000000              	halt				; ..
113334: 000000              	halt				; ..
113336: 000000              	halt				; ..
113340: 000000              	halt				; ..
113342: 000000              	halt				; ..
113344: 000000              	halt				; ..
113346: 000000              	halt				; ..
113350: 000000              	halt				; ..
113352: 000000              	halt				; ..
;
113354: 113656              	movb	@(r6)+,@-(r6)		; ..
113356: 000000              	halt				; ..
;
113360: 000100              	jmp	r0			; @.
;
113362: 000020              	invalid opcode			; ..
113364: 116072 000000 000100	movb	0(r0),@100(r2)		; :...@.
113372: 000010              	invalid opcode			; ..
113374: 114216              	movb	-(r2),(r6)		; ..
113376: 000000              	halt				; ..
;
113400: 000100              	jmp	r0			; @.
;
113402: 000014              	invalid opcode			; ..
113404: 124154              	cmpb	-(r1),@-(r4)		; l(
113406: 000000              	halt				; ..
;
113410: 000100              	jmp	r0			; @.
;
113412: 000014              	invalid opcode			; ..
113414: 116370 000000 000100	movb	0(r3),@100(r0)		; x...@.
113422: 000010              	invalid opcode			; ..
113424: 130056              	bitb	r0,@-(r6)		; .0
113426: 000000              	halt				; ..
;
113430: 000100              	jmp	r0			; @.
;
113432: 000010              	invalid opcode			; ..
113434: 141554              	bicb	(r5),@-(r4)		; lC
113436: 000000              	halt				; ..
;
113440: 000100              	jmp	r0			; @.
;
113442: 000000              	halt				; ..
113444: 000000              	halt				; ..
113446: 000000              	halt				; ..
113450: 000000              	halt				; ..
113452: 000000              	halt				; ..
113454: 000000              	halt				; ..
113456: 000000              	halt				; ..
113460: 000000              	halt				; ..
113462: 000000              	halt				; ..
113464: 000000              	halt				; ..
113466: 000000              	halt				; ..
113470: 000000              	halt				; ..
113472: 000000              	halt				; ..
113474: 000000              	halt				; ..
113476: 000000              	halt				; ..
113500: 000000              	halt				; ..
113502: 000000              	halt				; ..
113504: 000000              	halt				; ..
113506: 000000              	halt				; ..
113510: 000000              	halt				; ..
113512: 000000              	halt				; ..
113514: 000000              	halt				; ..
113516: 000000              	halt				; ..
113520: 000000              	halt				; ..
113522: 000000              	halt				; ..
113524: 000000              	halt				; ..
113526: 000000              	halt				; ..
113530: 000000              	halt				; ..
113532: 000000              	halt				; ..
113534: 000000              	halt				; ..
113536: 000000              	halt				; ..
113540: 000000              	halt				; ..
113542: 000000              	halt				; ..
113544: 000000              	halt				; ..
113546: 000000              	halt				; ..
113550: 000000              	halt				; ..
113552: 000000              	halt				; ..
113554: 000000              	halt				; ..
113556: 000000              	halt				; ..
113560: 000000              	halt				; ..
113562: 000000              	halt				; ..
113564: 000000              	halt				; ..
113566: 000000              	halt				; ..
113570: 000000              	halt				; ..
113572: 000000              	halt				; ..
113574: 000000              	halt				; ..
113576: 000000              	halt				; ..
113600: 000000              	halt				; ..
113602: 000000              	halt				; ..
113604: 000000              	halt				; ..
113606: 000000              	halt				; ..
113610: 000000              	halt				; ..
113612: 000000              	halt				; ..
113614: 000000              	halt				; ..
113616: 000000              	halt				; ..
113620: 000000              	halt				; ..
113622: 000000              	halt				; ..
113624: 000000              	halt				; ..
113626: 000000              	halt				; ..
113630: 000000              	halt				; ..
113632: 000000              	halt				; ..
113634: 000000              	halt				; ..
113636: 000000              	halt				; ..
113640: 000000              	halt				; ..
113642: 000000              	halt				; ..
113644: 000000              	halt				; ..
113646: 000000              	halt				; ..
113650: 000000              	halt				; ..
113652: 000000              	halt				; ..
113654: 000000              	halt				; ..
;
113656: 023737 010000 001776	cmp	@#10000,@#1776		; _'..~.
113664: 001403              	beq	13674			; ..
113666: 013737 001776 010000	mov	@#1776,@#10000		; _.~...
113674: 013705 010000       	mov	@#10000,r5		; E...
113700: 016504 000044       	mov	44(r5),r4		; D.$.
113704: 026504 000042       	cmp	42(r5),r4		; D-".
113710: 001523              	beq	14160			; S.
113712: 016401 000006       	mov	6(r4),r1		; ....
113716: 122711 000015       	cmpb	#15,(r1)		; I%..
113722: 001003              	bne	13732			; ..
113724: 012700 010002       	mov	#10002,r0		; @...
113730: 000462              	br	14076			; 2.
;
113732: 012701 114170       	mov	#114170,r1		; A.x.
113736: 012700 010002       	mov	#10002,r0		; @...
113742: 112110              	movb	(r1)+,(r0)		; H.
113744: 001402              	beq	13752			; ..
113746: 005200              	inc	r0			; ..
113750: 000774              	br	13742			; |.
;
113752: 004737 105710       	call	@#105710		; _.H.
113756: 112720 000040       	movb	#40,(r0)+		; P. .
113762: 112720 000040       	movb	#40,(r0)+		; P. .
113766: 062700 000021       	add	#21,r0			; @e..
113772: 112720 000040       	movb	#40,(r0)+		; P. .
113776: 016401 000002       	mov	2(r4),r1		; ....
114002: 162701 002000       	sub	#2000,r1		; Ae..
114006: 012746 177772       	mov	#177772,-(r6)		; f.z.
114012: 072126              	ash	(r6)+,r1		; Vt
114014: 012702 000002       	mov	#2,r2			; B...
114020: 004737 110366       	call	@#110366		; _.v.
114024: 060200              	add	r2,r0			; .`
114026: 112720 000040       	movb	#40,(r0)+		; P. .
114032: 012702 000006       	mov	#6,r2			; B...
114036: 016401 000004       	mov	4(r4),r1		; ....
114042: 004737 110366       	call	@#110366		; _.v.
114046: 060200              	add	r2,r0			; .`
114050: 112720 000040       	movb	#40,(r0)+		; P. .
114054: 016401 000006       	mov	6(r4),r1		; ....
114060: 004737 110366       	call	@#110366		; _.v.
114064: 060200              	add	r2,r0			; .`
114066: 112720 000040       	movb	#40,(r0)+		; P. .
114072: 112720 000040       	movb	#40,(r0)+		; P. .
114076: 112110              	movb	(r1)+,(r0)		; H.
114100: 001404              	beq	14112			; ..
114102: 005200              	inc	r0			; ..
114104: 022700 010412       	cmp	#10412,r0		; @%..
114110: 003372              	bgt	14076			; z.
114112: 012720 000007       	mov	#7,(r0)+		; P...
114116: 012720 000000       	mov	#0,(r0)+		; P...
114122: 016465 000000 000044	mov	0(r4),44(r5)		; 5...$.
114130: 012700 010002       	mov	#10002,r0		; @...
114134: 004737 105372       	call	@#105372		; _.z.
114140: 012700 000060       	mov	#60,r0			; @.0.
114144: 104401              	trap	1			; ..
114146: 023737 007200 007202	cmp	@#7200,@#7202		; _'....
114154: 001371              	bne	14140			; y.
114156: 000646              	br	13674			; &.
;
114160: 012700 003600       	mov	#3600,r0		; @...
114164: 104410              	trap	10			; ..
114166: 000642              	br	13674			; ".
;
114170: 006407              	mark	7			; ..
114172: 040412              	bic	r4,(r2)			; .A
114174: 040514              	bic	r5,(r4)			; LA
114176: 046522 025052       	bic	25052(r5),(r2)+		; RM**
114202: 020040              	cmp	r0,-(r0)		;   
114204: 000000              	halt				; ..
;
114206: 114704              	movb	-(r7),r4		; D.
114210: 115560 115700       	movb	@-(r5),115700(r0)	; p.@.
114214: 115744              	movb	@-(r7),-(r4)		; d.
114216: 005000              	clr	r0			; ..
114220: 104410              	trap	10			; ..
114222: 013705 001776       	mov	@#1776,r5		; E.~.
114226: 016504 000044       	mov	44(r5),r4		; D.$.
114232: 016400 000004       	mov	4(r4),r0		; ....
114236: 016401 000006       	mov	6(r4),r1		; ....
114242: 006301              	asl	r1			; A.
114244: 004771 114206       	call	@114206(r1)		; y...
114250: 005703              	tst	r3			; C.
114252: 001036              	bne	14350			; ..
114254: 012700 010416       	mov	#10416,r0		; @...
114260: 012701 000000       	mov	#0,r1			; A...
114264: 012702 000003       	mov	#3,r2			; B...
114270: 013703 010540       	mov	@#10540,r3		; C.`.
114274: 001003              	bne	14304			; ..
114276: 004737 114440       	call	@#114440		; _. .
114302: 000772              	br	14270			; z.
;
114304: 012703 000000       	mov	#0,r3			; C...
114310: 005237 010542       	inc	@#10542			; ..b.
114314: 104403              	trap	3			; ..
114316: 000000              	halt				; ..
;
114320: 005000              	clr	r0			; ..
114322: 104407              	trap	7			; ..
114324: 005037 010536       	clr	@#10536			; ..^.
114330: 012700 000036       	mov	#36,r0			; @...
114334: 013701 010536       	mov	@#10536,r1		; A.^.
114340: 001010              	bne	14362			; ..
114342: 004737 114440       	call	@#114440		; _. .
114346: 077006              	sob	r0,14334		; .~
114350: 005037 010540       	clr	@#10540			; ..`.
114354: 005064 000006       	clr	6(r4)			; 4...
114360: 000403              	br	14370			; ..
;
114362: 012764 000001 000006	mov	#1,6(r4)		; t.....
114370: 005037 010542       	clr	@#10542			; ..b.
114374: 016400 000004       	mov	4(r4),r0		; ....
114400: 016401 000006       	mov	6(r4),r1		; ....
114404: 012702 000003       	mov	#3,r2			; B...
114410: 005003              	clr	r3			; ..
114412: 104404              	trap	4			; ..
114414: 000000              	halt				; ..
;
114416: 016465 000000 000044	mov	0(r4),44(r5)		; 5...$.
114424: 026565 000044 000042	cmp	44(r5),42(r5)		; u-$.".
114432: 001275              	bne	14226			; =.
114434: 000137 114216       	jmp	@#114216		; _...
;
114440: 010046              	mov	r0,-(r6)		; &.
114442: 012700 000074       	mov	#74,r0			; @.<.
114446: 104401              	trap	1			; ..
114450: 012600              	mov	(r6)+,r0		; ..
114452: 000207              	ret				; ..
;
114454: 046107 051511       	bic	51511(r1),r7		; GLIS
114460: 046112 051514       	bic	51514(r1),(r2)		; JLLS
114464: 044123              	bic	-(r1),(r3)+		; SH
114466: 051525              	bis	(r5),(r5)+		; US
114470: 044127 041130       	bic	-(r1),#41130		; WHXB
114474: 041530              	bic	(r5),@(r0)+		; XC
114476: 042105              	bic	(r1)+,r5		; ED
114500: 051503              	bis	(r5),r3			; CS
114502: 051502              	bis	(r5),r2			; BS
114504: 031061 032063       	bit	(r0),32063(r1)		; 1234
114510: 033065 034067       	bit	@(r0)+,34067(r5)	; 5678
114514: 030071 023055       	bit	r0,@23055(r1)		; 90-&
114520: 020040              	cmp	r0,-(r0)		;   
114522: 030060 031060       	bit	r0,31060(r0)		; 0002
114526: 032060 034060       	bit	(r0)+,34060(r0)		; 0408
114532: 033061 031063       	bit	@(r0)+,31063(r1)	; 1632
114536: 032066 030040       	bit	(r0)+,30040(r6)		; 64 0
114542: 031061 032063       	bit	(r0),32063(r1)		; 1234
114546: 033065 044440       	bit	@(r0)+,44440(r5)	; 56 I
114552: 051517              	bis	(r5),(r7)		; OS
114554: 030440              	bit	r4,-(r0)		;  1
114556: 031462 020040       	bit	(r4),20040(r2)		; 23  
114562: 033464 030066       	bit	@(r4)+,30066(r4)	; 4760
114566: 032066 030467       	bit	(r0)+,30467(r6)		; 6471
114572: 033067 034067       	bit	@(r0)+,150665		; 7678
114576: 034070 032470       	bit	-(r0),@32470(r0)	; 8885
114602: 031464 030064       	bit	(r4),30064(r4)		; 4340
114606: 052071 030440       	bis	(r0)+,@30440(r1)	; 9T 1
114612: 031462 032464       	bit	(r4),32464(r2)		; 2345
114616: 033466 030070       	bit	@(r4)+,30070(r6)	; 6780
114622: 023055              	cmp	@(r0)+,@-(r5)		; -&
114624: 040512              	bic	r5,(r2)			; JA
114626: 043116              	bic	@(r1)+,(r6)		; NF
114630: 041105              	bic	(r1),r5			; EB
114632: 040515              	bic	r5,(r5)			; MA
114634: 040522              	bic	r5,(r2)+		; RA
114636: 051120              	bis	(r1),(r0)+		; PR
114640: 040515              	bic	r5,(r5)			; MA
114642: 045131              	bic	@-(r1),@(r1)+		; YJ
114644: 047125 052512       	bic	@52512(r1),(r5)+	; UNJU
114650: 040514              	bic	r5,(r4)			; LA
114652: 043525              	bic	@(r5)+,(r5)+		; UG
114654: 042523              	bic	(r5)+,(r3)+		; SE
114656: 047520 052103       	bic	@52103(r5),(r0)+	; POCT
114662: 047516 042126       	bic	@42126(r5),(r6)		; NOVD
114666: 041505              	bic	(r5),r5			; EC
114670: 034071 033067       	bit	-(r0),@33067(r1)	; 9876
114674: 032065 031063       	bit	(r0)+,31063(r5)		; 5432
114700: 030061 023055       	bit	r0,23055(r1)		; 10-&
114704: 012701 010416       	mov	#10416,r1		; A...
114710: 112721 000015       	movb	#15,(r1)+		; Q...
114714: 112721 000015       	movb	#15,(r1)+		; Q...
114720: 112721 000101       	movb	#101,(r1)+		; Q.A.
114724: 012703 000012       	mov	#12,r3			; C...
114730: 112021              	movb	(r0)+,(r1)+		; ..
114732: 077302              	sob	r3,14730		; B~
114734: 012703 000014       	mov	#14,r3			; C...
114740: 012702 000026       	mov	#26,r2			; B...
114744: 126210 114454       	cmpb	114454(r2),(r0)		; .,,.
114750: 001004              	bne	14762			; ..
114752: 126260 114455 000001	cmpb	114455(r2),1(r0)	; 0,-...
114760: 001405              	beq	14774			; ..
114762: 005302              	dec	r2			; B.
114764: 005302              	dec	r2			; B.
114766: 077312              	sob	r3,14744		; J~
114770: 005203              	inc	r3			; ..
114772: 000207              	ret				; ..
;
114774: 006202              	asr	r2			; ..
114776: 116221 114504       	movb	114504(r2),(r1)+	; ..D.
115002: 005720              	tst	(r0)+			; P.
115004: 012703 000020       	mov	#20,r3			; C...
115010: 112021              	movb	(r0)+,(r1)+		; ..
115012: 077302              	sob	r3,15010		; B~
115014: 012703 000016       	mov	#16,r3			; C...
115020: 126310 114520       	cmpb	114520(r3),(r0)		; H,P.
115024: 001405              	beq	15040			; ..
115026: 005303              	dec	r3			; C.
115030: 005303              	dec	r3			; C.
115032: 003372              	bgt	15020			; z.
115034: 005203              	inc	r3			; ..
115036: 000207              	ret				; ..
;
115040: 126360 114521 000001	cmpb	114521(r3),1(r0)	; p,Q...
115046: 001401              	beq	15052			; ..
115050: 000766              	br	15026			; v.
;
115052: 006203              	asr	r3			; ..
115054: 116321 114540       	movb	114540(r3),(r1)+	; Q.`.
115060: 005720              	tst	(r0)+			; P.
115062: 012703 000014       	mov	#14,r3			; C...
115066: 112021              	movb	(r0)+,(r1)+		; ..
115070: 077302              	sob	r3,15066		; B~
115072: 012703 000003       	mov	#3,r3			; C...
115076: 126310 114550       	cmpb	114550(r3),(r0)		; H,h.
115102: 001403              	beq	15112			; ..
115104: 077304              	sob	r3,15076		; D~
115106: 005203              	inc	r3			; ..
115110: 000207              	ret				; ..
;
115112: 116321 114554       	movb	114554(r3),(r1)+	; Q.l.
115116: 005200              	inc	r0			; ..
115120: 012703 000006       	mov	#6,r3			; C...
115124: 112021              	movb	(r0)+,(r1)+		; ..
115126: 077302              	sob	r3,15124		; B~
115130: 012703 000026       	mov	#26,r3			; C...
115134: 126310 114560       	cmpb	114560(r3),(r0)		; H,p.
115140: 001004              	bne	15152			; ..
115142: 126360 114561 000001	cmpb	114561(r3),1(r0)	; p,q...
115150: 001406              	beq	15166			; ..
115152: 005303              	dec	r3			; C.
115154: 005303              	dec	r3			; C.
115156: 005703              	tst	r3			; C.
115160: 003365              	bgt	15134			; u.
115162: 005203              	inc	r3			; ..
115164: 000207              	ret				; ..
;
115166: 006203              	asr	r3			; ..
115170: 116321 114610       	movb	114610(r3),(r1)+	; Q...
115174: 005720              	tst	(r0)+			; P.
115176: 012703 000014       	mov	#14,r3			; C...
115202: 005002              	clr	r2			; ..
115204: 121062 114624       	cmpb	(r0),114624(r2)		; 2"..
115210: 001010              	bne	15232			; ..
115212: 126062 000001 114625	cmpb	1(r0),114625(r2)	; 2,....
115220: 001004              	bne	15232			; ..
115222: 126062 000002 114626	cmpb	2(r0),114626(r2)	; 2,....
115230: 001405              	beq	15244			; ..
115232: 005722              	tst	(r2)+			; R.
115234: 005202              	inc	r2			; ..
115236: 077316              	sob	r3,15204		; N~
115240: 005203              	inc	r3			; ..
115242: 000207              	ret				; ..
;
115244: 005303              	dec	r3			; C.
115246: 116321 114670       	movb	114670(r3),(r1)+	; Q.8.
115252: 005720              	tst	(r0)+			; P.
115254: 005200              	inc	r0			; ..
115256: 126027 000001 000060	cmpb	1(r0),#60		; .,..0.
115264: 001025              	bne	15340			; ..
115266: 121027 000063       	cmpb	(r0),#63		; ."3.
115272: 001003              	bne	15302			; ..
115274: 112721 000060       	movb	#60,(r1)+		; Q.0.
115300: 000500              	br	15502			; @.
;
115302: 121027 000062       	cmpb	(r0),#62		; ."2.
115306: 001003              	bne	15316			; ..
115310: 112721 000055       	movb	#55,(r1)+		; Q.-.
115314: 000472              	br	15502			; :.
;
115316: 122710 000061       	cmpb	#61,(r0)		; H%1.
115322: 001003              	bne	15332			; ..
115324: 112721 000046       	movb	#46,(r1)+		; Q.&.
115330: 000464              	br	15502			; 4.
;
115332: 012703 000001       	mov	#1,r3			; C...
115336: 000207              	ret				; ..
;
115340: 122710 000063       	cmpb	#63,(r0)		; H%3.
115344: 001017              	bne	15404			; ..
115346: 122760 000061 000001	cmpb	#61,1(r0)		; p%1...
115354: 001003              	bne	15364			; ..
115356: 112721 000057       	movb	#57,(r1)+		; Q./.
115362: 000447              	br	15502			; '.
;
115364: 116002 000001       	movb	1(r0),r2		; ....
115370: 162702 000060       	sub	#60,r2			; Be0.
115374: 062702 000121       	add	#121,r2			; BeQ.
115400: 110221              	movb	r2,(r1)+		; ..
115402: 000437              	br	15502			; ..
;
115404: 122710 000062       	cmpb	#62,(r0)		; H%2.
115410: 001010              	bne	15432			; ..
115412: 116002 000001       	movb	1(r0),r2		; ....
115416: 162702 000060       	sub	#60,r2			; Be0.
115422: 062702 000111       	add	#111,r2			; BeI.
115426: 110221              	movb	r2,(r1)+		; ..
115430: 000424              	br	15502			; ..
;
115432: 122710 000061       	cmpb	#61,(r0)		; H%1.
115436: 001010              	bne	15460			; ..
115440: 116002 000001       	movb	1(r0),r2		; ....
115444: 162702 000060       	sub	#60,r2			; Be0.
115450: 062702 000100       	add	#100,r2			; Be@.
115454: 110221              	movb	r2,(r1)+		; ..
115456: 000411              	br	15502			; ..
;
115460: 122710 000060       	cmpb	#60,(r0)		; H%0.
115464: 001003              	bne	15474			; ..
115466: 116021 000001       	movb	1(r0),(r1)+		; ....
115472: 000403              	br	15502			; ..
;
115474: 012703 000001       	mov	#1,r3			; C...
115500: 000207              	ret				; ..
;
115502: 005720              	tst	(r0)+			; P.
115504: 112021              	movb	(r0)+,(r1)+		; ..
115506: 112021              	movb	(r0)+,(r1)+		; ..
115510: 112721 000012       	movb	#12,(r1)+		; Q...
115514: 112721 000000       	movb	#0,(r1)+		; Q...
115520: 005003              	clr	r3			; ..
115522: 000207              	ret				; ..
;
115524: 020040              	cmp	r0,-(r0)		;   
115526: 030060 031060       	bit	r0,31060(r0)		; 0002
115532: 032060 034060       	bit	(r0)+,34060(r0)		; 0408
115536: 033061 031063       	bit	@(r0)+,31063(r1)	; 1632
115542: 032066 020040       	bit	(r0)+,20040(r6)		; 64  
115546: 030040              	bit	r0,-(r0)		;  0
115550: 031061 032063       	bit	(r0),32063(r1)		; 1234
115554: 033065 000040       	bit	@(r0)+,40(r5)		; 56 .
115560: 012701 010416       	mov	#10416,r1		; A...
115564: 112721 000015       	movb	#15,(r1)+		; Q...
115570: 112721 000015       	movb	#15,(r1)+		; Q...
115574: 112721 000103       	movb	#103,(r1)+		; Q.C.
115600: 012703 000023       	mov	#23,r3			; C...
115604: 112021              	movb	(r0)+,(r1)+		; ..
115606: 077302              	sob	r3,15604		; B~
115610: 012703 000020       	mov	#20,r3			; C...
115614: 126310 115524       	cmpb	115524(r3),(r0)		; H,T.
115620: 001404              	beq	15632			; ..
115622: 005303              	dec	r3			; C.
115624: 077305              	sob	r3,15614		; E~
115626: 005203              	inc	r3			; ..
115630: 000207              	ret				; ..
;
115632: 126360 115525 000001	cmpb	115525(r3),1(r0)	; p,U...
115640: 001401              	beq	15644			; ..
115642: 000767              	br	15622			; w.
;
115644: 006203              	asr	r3			; ..
115646: 116321 115546       	movb	115546(r3),(r1)+	; Q.f.
115652: 005720              	tst	(r0)+			; P.
115654: 012703 000024       	mov	#24,r3			; C...
115660: 112021              	movb	(r0)+,(r1)+		; ..
115662: 077302              	sob	r3,15660		; B~
115664: 112721 000012       	movb	#12,(r1)+		; Q...
115670: 112721 000000       	movb	#0,(r1)+		; Q...
115674: 005003              	clr	r3			; ..
115676: 000207              	ret				; ..
;
115700: 012701 010416       	mov	#10416,r1		; A...
115704: 112721 000015       	movb	#15,(r1)+		; Q...
115710: 112721 000015       	movb	#15,(r1)+		; Q...
115714: 112721 000104       	movb	#104,(r1)+		; Q.D.
115720: 012703 000036       	mov	#36,r3			; C...
115724: 112021              	movb	(r0)+,(r1)+		; ..
115726: 077302              	sob	r3,15724		; B~
115730: 112721 000012       	movb	#12,(r1)+		; Q...
115734: 112721 000000       	movb	#0,(r1)+		; Q...
115740: 005003              	clr	r3			; ..
115742: 000207              	ret				; ..
;
115744: 012701 010416       	mov	#10416,r1		; A...
115750: 112721 000015       	movb	#15,(r1)+		; Q...
115754: 112721 000015       	movb	#15,(r1)+		; Q...
115760: 112721 000111       	movb	#111,(r1)+		; Q.I.
115764: 012703 000006       	mov	#6,r3			; C...
115770: 112021              	movb	(r0)+,(r1)+		; ..
115772: 077302              	sob	r3,15770		; B~
115774: 112721 000012       	movb	#12,(r1)+		; Q...
116000: 112721 000000       	movb	#0,(r1)+		; Q...
116004: 005003              	clr	r3			; ..
116006: 000207              	ret				; ..
;
116010: 010544              	mov	r5,-(r4)		; d.
116012: 000001              	wait				; ..
116014: 010546              	mov	r5,-(r6)		; f.
116016: 000000              	halt				; ..
;
116020: 033433              	bit	@(r4)+,@(r3)+		; .7
116022: 055433              	bis	@-(r4),@(r3)+		; .[
116024: 032062 030073       	bit	(r0)+,30073(r2)		; 24;0
116030: 044060 040523       	bic	-(r0),40523(r0)		; 0HSA
116034: 020103              	cmp	r1,r3			; C 
116036: 051511              	bis	(r5),(r1)		; IS
116040: 041040              	bic	(r0),-(r0)		;  B
116042: 051525              	bis	(r5),(r5)+		; US
116044: 015531              	mov	@-(r5),@(r1)+		; Y.
116046: 000070              	invalid opcode			; 8.
116050: 033433              	bit	@(r4)+,@(r3)+		; .7
116052: 055433              	bis	@-(r4),@(r3)+		; .[
116054: 032062 032073       	bit	(r0)+,32073(r2)		; 24;4
116060: 044060 055433       	bic	-(r0),55433(r0)		; 0H.[
116064: 045461 034033       	bic	@-(r4),34033(r1)	; 1K.8
116070: 000000              	halt				; ..
;
116072: 013705 001776       	mov	@#1776,r5		; E.~.
116076: 012704 000007       	mov	#7,r4			; D...
116102: 012700 116010       	mov	#116010,r0		; @...
116106: 005001              	clr	r1			; ..
116110: 012702 000002       	mov	#2,r2			; B...
116114: 012703 000000       	mov	#0,r3			; C...
116120: 104403              	trap	3			; ..
116122: 000000              	halt				; ..
;
116124: 004737 116360       	call	@#116360		; _.p.
116130: 105737 010544       	tstb	@#10544			; _.d.
116134: 001005              	bne	16150			; ..
116136: 005737 010540       	tst	@#10540			; _.`.
116142: 001415              	beq	16176			; ..
116144: 077411              	sob	r4,16124		; ..
116146: 000413              	br	16176			; ..
;
116150: 012737 000001 010536	mov	#1,@#10536		; _...^.
116156: 012737 000001 010540	mov	#1,@#10540		; _...`.
116164: 005037 010544       	clr	@#10544			; ..d.
116170: 005037 010546       	clr	@#10546			; ..f.
116174: 000736              	br	16072			; ^.
;
116176: 005037 010540       	clr	@#10540			; ..`.
116202: 012701 000002       	mov	#2,r1			; A...
116206: 070127 000030       	mul	#30,r1			; Wp..
116212: 062701 001000       	add	#1000,r1		; Ae..
116216: 010104              	mov	r1,r4			; D.
116220: 005737 010542       	tst	@#10542			; _.b.
116224: 001043              	bne	16334			; #.
116226: 012700 116020       	mov	#116020,r0		; @...
116232: 005001              	clr	r1			; ..
116234: 012702 000001       	mov	#1,r2			; B...
116240: 012703 000030       	mov	#30,r3			; C...
116244: 104403              	trap	3			; ..
116246: 000000              	halt				; ..
;
116250: 000240              	nop				;  .
116252: 042774 000004 000020	bic	#4,@20(r4)		; |E....
116260: 012700 000006       	mov	#6,r0			; @...
116264: 104401              	trap	1			; ..
116266: 052774 000004 000020	bis	#4,@20(r4)		; |U....
116274: 004737 116360       	call	@#116360		; _.p.
116300: 005737 010544       	tst	@#10544			; _.d.
116304: 001750              	beq	16226			; h.
116306: 012700 116050       	mov	#116050,r0		; @.(.
116312: 005001              	clr	r1			; ..
116314: 012702 000001       	mov	#1,r2			; B...
116320: 012703 000030       	mov	#30,r3			; C...
116324: 104403              	trap	3			; ..
116326: 000000              	halt				; ..
;
116330: 000137 116150       	jmp	@#116150		; _.h.
;
116334: 004737 116360       	call	@#116360		; _.p.
116340: 005737 010544       	tst	@#10544			; _.d.
116344: 001301              	bne	16150			; A.
116346: 005737 010542       	tst	@#10542			; _.b.
116352: 001370              	bne	16334			; x.
116354: 000137 116226       	jmp	@#116226		; _...
;
116360: 012700 000170       	mov	#170,r0			; @.x.
116364: 104407              	trap	7			; ..
116366: 000207              	ret				; ..
;
116370: 010537 011372       	mov	r5,@#11372		; _.z.
116374: 012700 010550       	mov	#10550,r0		; @.h.
116400: 012701 000012       	mov	#12,r1			; A...
116404: 005020              	clr	(r0)+			; ..
116406: 077102              	sob	r1,16404		; B~
116410: 005037 010574       	clr	@#10574			; ..|.
116414: 005037 010732       	clr	@#10732			; ..Z.
116420: 005037 011070       	clr	@#11070			; ..8.
116424: 012700 011226       	mov	#11226,r0		; @...
116430: 005010              	clr	(r0)			; ..
116432: 062700 000024       	add	#24,r0			; @e..
116436: 022700 011372       	cmp	#11372,r0		; @%z.
116442: 003372              	bgt	16430			; z.
116444: 012700 000000       	mov	#0,r0			; @...
116450: 104410              	trap	10			; ..
116452: 013705 011372       	mov	@#11372,r5		; E.z.
116456: 016504 000044       	mov	44(r5),r4		; D.$.
116462: 026504 000042       	cmp	42(r5),r4		; D-".
116466: 001012              	bne	16514			; ..
116470: 004737 116704       	call	@#116704		; _.D.
116474: 005700              	tst	r0			; @.
116476: 001762              	beq	16444			; r.
116500: 004737 116730       	call	@#116730		; _.X.
116504: 012700 000001       	mov	#1,r0			; @...
116510: 104401              	trap	1			; ..
116512: 000757              	br	16452			; o.
;
116514: 004737 116522       	call	@#116522		; _.R.
116520: 000754              	br	16452			; l.
;
116522: 016465 000000 000044	mov	0(r4),44(r5)		; 5...$.
116530: 016403 000002       	mov	2(r4),r3		; ....
116534: 016400 000004       	mov	4(r4),r0		; ....
116540: 016401 000006       	mov	6(r4),r1		; ....
116544: 022701 177777       	cmp	#177777,r1		; A%..
116550: 001033              	bne	16640			; ..
116552: 012702 010550       	mov	#10550,r2		; B.h.
116556: 012703 000005       	mov	#5,r3			; C...
116562: 021200              	cmp	(r2),r0			; ."
116564: 001404              	beq	16576			; ..
116566: 062702 000004       	add	#4,r2			; Be..
116572: 077305              	sob	r3,16562		; E~
116574: 000442              	br	16702			; ".
;
116576: 005022              	clr	(r2)+			; ..
116600: 005012              	clr	(r2)			; ..
116602: 010160 000032       	mov	r1,32(r0)		; p...
116606: 005760 000014       	tst	14(r0)			; p...
116612: 001403              	beq	16622			; ..
116614: 016001 000014       	mov	14(r0),r1		; ....
116620: 005011              	clr	(r1)			; ..
116622: 005760 000026       	tst	26(r0)			; p...
116626: 001403              	beq	16636			; ..
116630: 016001 000026       	mov	26(r0),r1		; ....
116634: 005041              	clr	-(r1)			; !.
116636: 000421              	br	16702			; ..
;
116640: 012702 010550       	mov	#10550,r2		; B.h.
116644: 012704 000005       	mov	#5,r4			; D...
116650: 005712              	tst	(r2)			; J.
116652: 001407              	beq	16672			; ..
116654: 062702 000004       	add	#4,r2			; Be..
116660: 077405              	sob	r4,16650		; ..
116662: 012760 177775 000032	mov	#177775,32(r0)		; p.}...
116670: 000404              	br	16702			; ..
;
116672: 010022              	mov	r0,(r2)+		; ..
116674: 005060 000032       	clr	32(r0)			; 0...
116700: 005012              	clr	(r2)			; ..
116702: 000207              	ret				; ..
;
116704: 012700 010550       	mov	#10550,r0		; @.h.
116710: 012701 000005       	mov	#5,r1			; A...
116714: 005720              	tst	(r0)+			; P.
116716: 001003              	bne	16726			; ..
116720: 005720              	tst	(r0)+			; P.
116722: 077104              	sob	r1,16714		; D~
116724: 005000              	clr	r0			; ..
116726: 000207              	ret				; ..
;
116730: 012704 010550       	mov	#10550,r4		; D.h.
116734: 012703 000005       	mov	#5,r3			; C...
116740: 011405              	mov	(r4),r5			; ..
116742: 001404              	beq	16754			; ..
116744: 016400 000002       	mov	2(r4),r0		; ....
116750: 004770 116764       	call	@116764(r0)		; x.t.
116754: 062704 000004       	add	#4,r4			; De..
116760: 077311              	sob	r3,16740		; I~
116762: 000207              	ret				; ..
;
116764: 117022 117166       	movb	@117166(r0),(r2)+	; ..v.
116770: 117250 117424       	movb	@117424(r2),@-(r0)	; (...
116774: 117710 120004       	movb	@137004,(r0)		; H.. 
117000: 120332              	cmpb	r3,@(r2)+		; Z 
117002: 120374 120512       	cmpb	r3,@120512(r4)		; | J!
117006: 117424 120674       	movb	@120674(r4),(r4)+	; ..<!
117012: 121114              	cmpb	(r1),(r4)		; L"
117014: 121004              	cmpb	(r0),r4			; ."
117016: 121070 120436       	cmpb	(r0),@120436(r0)	; 8".!
117022: 004737 117136       	call	@#117136		; _.^.
117026: 012764 000002 000002	mov	#2,2(r4)		; t.....
117034: 005065 000010       	clr	10(r5)			; 5...
117040: 005065 000012       	clr	12(r5)			; 5...
117044: 005065 000014       	clr	14(r5)			; 5...
117050: 005065 000016       	clr	16(r5)			; 5...
117054: 005065 000020       	clr	20(r5)			; 5...
117060: 005065 000022       	clr	22(r5)			; 5...
117064: 005065 000026       	clr	26(r5)			; 5...
117070: 005065 000030       	clr	30(r5)			; 5...
117074: 011565 000024       	mov	(r5),24(r5)		; u...
117100: 011503              	mov	(r5),r3			; C.
117102: 001010              	bne	17124			; ..
117104: 005064 000002       	clr	2(r4)			; 4...
117110: 012765 177776 000032	mov	#177776,32(r5)		; u.~...
117116: 005014              	clr	(r4)			; ..
117120: 004737 117154       	call	@#117154		; _.l.
117124: 005765 000002       	tst	2(r5)			; u...
117130: 001765              	beq	17104			; u.
117132: 004737 117154       	call	@#117154		; _.l.
117136: 010446              	mov	r4,-(r6)		; &.
117140: 010346              	mov	r3,-(r6)		; f.
117142: 016646 000004       	mov	4(r6),-(r6)		; &...
117146: 010566 000006       	mov	r5,6(r6)		; v...
117152: 000207              	ret				; ..
;
117154: 005726              	tst	(r6)+			; V.
117156: 012603              	mov	(r6)+,r3		; ..
117160: 012604              	mov	(r6)+,r4		; ..
117162: 012605              	mov	(r6)+,r5		; ..
117164: 000207              	ret				; ..
;
117166: 004737 117136       	call	@#117136		; _.^.
117172: 032765 000002 000002	bit	#2,2(r5)		; u5....
117200: 001413              	beq	17230			; ..
117202: 004737 117372       	call	@#117372		; _.z.
117206: 012703 000000       	mov	#0,r3			; C...
117212: 016502 000006       	mov	6(r5),r2		; B...
117216: 012700 117242       	mov	#117242,r0		; @.".
117222: 104403              	trap	3			; ..
117224: 000000              	halt				; ..
;
117226: 000403              	br	17236			; ..
;
117230: 012764 000004 000002	mov	#4,2(r4)		; t.....
117236: 004737 117154       	call	@#117154		; _.l.
117242: 055433              	bis	@-(r4),@(r3)+		; .[
117244: 045062 000000       	bic	@-(r0),0(r2)		; 2J..
117250: 004737 117136       	call	@#117136		; _.^.
117254: 032765 000004 000002	bit	#4,2(r5)		; u5....
117262: 001430              	beq	17344			; ..
117264: 004737 117372       	call	@#117372		; _.z.
117270: 032765 000010 000002	bit	#10,2(r5)		; u5....
117276: 001011              	bne	17322			; ..
117300: 012703 000000       	mov	#0,r3			; C...
117304: 016502 000006       	mov	6(r5),r2		; B...
117310: 012700 117356       	mov	#117356,r0		; @.n.
117314: 104403              	trap	3			; ..
117316: 000000              	halt				; ..
;
117320: 000414              	br	17352			; ..
;
117322: 012703 000000       	mov	#0,r3			; C...
117326: 016502 000006       	mov	6(r5),r2		; B...
117332: 012700 117364       	mov	#117364,r0		; @.t.
117336: 104403              	trap	3			; ..
117340: 000000              	halt				; ..
;
117342: 000403              	br	17352			; ..
;
117344: 012764 000006 000002	mov	#6,2(r4)		; t.....
117352: 004737 117154       	call	@#117154		; _.l.
117356: 055433              	bis	@-(r4),@(r3)+		; .[
117360: 031477 000154       	bit	(r4),@17540		; ?3l.
117364: 055433              	bis	@-(r4),@(r3)+		; .[
117366: 031477 000150       	bit	(r4),@17542		; ?3h.
117372: 012765 000001 000010	mov	#1,10(r5)		; u.....
117400: 016465 000002 000012	mov	2(r4),12(r5)		; 5.....
117406: 012764 000034 000002	mov	#34,2(r4)		; t.....
117414: 012701 000010       	mov	#10,r1			; A...
117420: 060501              	add	r5,r1			; Aa
117422: 000207              	ret				; ..
;
117424: 004737 117136       	call	@#117136		; _.^.
117430: 016503 000024       	mov	24(r5),r3		; C...
117434: 022764 000006 000002	cmp	#6,2(r4)		; t%....
117442: 001011              	bne	17466			; ..
117444: 032765 000020 000002	bit	#20,2(r5)		; u5....
117452: 001005              	bne	17466			; ..
117454: 012764 000020 000002	mov	#20,2(r4)		; t.....
117462: 004737 117154       	call	@#117154		; _.l.
117466: 122713 000027       	cmpb	#27,(r3)		; K%..
117472: 003451              	ble	17616			; ).
117474: 004737 117646       	call	@#117646		; _.&.
117500: 112720 000033       	movb	#33,(r0)+		; P...
117504: 112720 000133       	movb	#133,(r0)+		; P.[.
117510: 111301              	movb	(r3),r1			; A.
117512: 012702 000002       	mov	#2,r2			; B...
117516: 004737 110430       	call	@#110430		; _...
117522: 060200              	add	r2,r0			; .`
117524: 112720 000073       	movb	#73,(r0)+		; P.;.
117530: 116301 000001       	movb	1(r3),r1		; A...
117534: 042701 177400       	bic	#177400,r1		; AE..
117540: 022701 000143       	cmp	#143,r1			; A%c.
117544: 002002              	bge	17552			; ..
117546: 012702 000003       	mov	#3,r2			; B...
117552: 004737 110430       	call	@#110430		; _...
117556: 060200              	add	r2,r0			; .`
117560: 112720 000110       	movb	#110,(r0)+		; P.H.
117564: 105020              	clrb	(r0)+			; ..
117566: 004737 117372       	call	@#117372		; _.z.
117572: 012703 000000       	mov	#0,r3			; C...
117576: 016502 000006       	mov	6(r5),r2		; B...
117602: 016500 000016       	mov	16(r5),r0		; @...
117606: 104403              	trap	3			; ..
117610: 000000              	halt				; ..
;
117612: 004737 117154       	call	@#117154		; _.l.
117616: 026527 000002 000020	cmp	2(r5),#20		; W-....
117624: 002404              	blt	17636			; ..
117626: 012764 000032 000002	mov	#32,2(r4)		; t.....
117634: 000766              	br	17612			; v.
;
117636: 012764 000020 000002	mov	#20,2(r4)		; t.....
117644: 000762              	br	17612			; r.
;
117646: 012700 010574       	mov	#10574,r0		; @.|.
117652: 005710              	tst	(r0)			; H.
117654: 001406              	beq	17672			; ..
117656: 062700 000136       	add	#136,r0			; @e^.
117662: 020027 011226       	cmp	r0,#11226		; . ..
117666: 002771              	blt	17652			; y.
117670: 000000              	halt				; ..
;
117672: 010065 000014       	mov	r0,14(r5)		; 5...
117676: 012720 000001       	mov	#1,(r0)+		; P...
117702: 010065 000016       	mov	r0,16(r5)		; 5...
117706: 000207              	ret				; ..
;
117710: 004737 117136       	call	@#117136		; _.^.
117714: 016503 000024       	mov	24(r5),r3		; C...
117720: 116300 000003       	movb	3(r3),r0		; @...
117724: 042700 177760       	bic	#177760,r0		; @Ep.
117730: 001420              	beq	17772			; ..
117732: 004737 117646       	call	@#117646		; _.&.
117736: 004737 123736       	call	@#123736		; _.^'
117742: 105020              	clrb	(r0)+			; ..
117744: 004737 117372       	call	@#117372		; _.z.
117750: 012703 000000       	mov	#0,r3			; C...
117754: 016502 000006       	mov	6(r5),r2		; B...
117760: 016500 000016       	mov	16(r5),r0		; @...
117764: 104403              	trap	3			; ..
117766: 000000              	halt				; ..
;
117770: 000403              	br	20000			; ..
;
117772: 062764 000002 000002	add	#2,2(r4)		; te....
120000: 004737 117154       	call	@#117154		; _.l.
120004: 004737 117136       	call	@#117136		; _.^.
120010: 016503 000024       	mov	24(r5),r3		; C...
120014: 116302 000002       	movb	2(r3),r2		; B...
120020: 042702 177400       	bic	#177400,r2		; BE..
120024: 001535              	beq	20320			; ].
120026: 012701 000121       	mov	#121,r1			; A.Q.
120032: 032765 000010 000002	bit	#10,2(r5)		; u5....
120040: 001402              	beq	20046			; ..
120042: 012701 000205       	mov	#205,r1			; A...
120046: 116300 000001       	movb	1(r3),r0		; @...
120052: 060200              	add	r2,r0			; .`
120054: 020100              	cmp	r1,r0			; @ 
120056: 002520              	blt	20320			; P.
120060: 016301 000010       	mov	10(r3),r1		; A...
120064: 001013              	bne	20114			; ..
120066: 122763 000111 000006	cmpb	#111,6(r3)		; s%I...
120074: 001511              	beq	20320			; I.
120076: 122763 000112 000006	cmpb	#112,6(r3)		; s%J...
120104: 001505              	beq	20320			; E.
120106: 012701 000012       	mov	#12,r1			; A...
120112: 060301              	add	r3,r1			; A`
120114: 004737 117646       	call	@#117646		; _.&.
120120: 122763 000101 000007	cmpb	#101,7(r3)		; s%A...
120126: 001431              	beq	20212			; ..
120130: 122763 000102 000007	cmpb	#102,7(r3)		; s%B...
120136: 001425              	beq	20212			; ..
120140: 122763 000116 000007	cmpb	#116,7(r3)		; s%N...
120146: 001421              	beq	20212			; ..
120150: 122763 000104 000007	cmpb	#104,7(r3)		; s%D...
120156: 001426              	beq	20234			; ..
120160: 122763 000105 000007	cmpb	#105,7(r3)		; s%E...
120166: 001426              	beq	20244			; ..
120170: 122763 000106 000007	cmpb	#106,7(r3)		; s%F...
120176: 001425              	beq	20252			; ..
120200: 122763 000117 000007	cmpb	#117,7(r3)		; s%O...
120206: 001424              	beq	20260			; ..
120210: 000426              	br	20266			; ..
;
120212: 060200              	add	r2,r0			; .`
120214: 060201              	add	r2,r1			; .`
120216: 114140              	movb	-(r1),-(r0)		; `.
120220: 077202              	sob	r2,20216		; .~
120222: 116302 000002       	movb	2(r3),r2		; B...
120226: 042702 177400       	bic	#177400,r2		; BE..
120232: 000415              	br	20266			; ..
;
120234: 011101              	mov	(r1),r1			; A.
120236: 004737 110430       	call	@#110430		; _...
120242: 000411              	br	20266			; ..
;
120244: 004737 110164       	call	@#110164		; _.t.
120250: 000406              	br	20266			; ..
;
120252: 004737 110544       	call	@#110544		; _.d.
120256: 000403              	br	20266			; ..
;
120260: 011101              	mov	(r1),r1			; A.
120262: 004737 110366       	call	@#110366		; _.v.
120266: 060200              	add	r2,r0			; .`
120270: 105010              	clrb	(r0)			; ..
120272: 004737 117372       	call	@#117372		; _.z.
120276: 012703 000000       	mov	#0,r3			; C...
120302: 016502 000006       	mov	6(r5),r2		; B...
120306: 016500 000016       	mov	16(r5),r0		; @...
120312: 104403              	trap	3			; ..
120314: 000000              	halt				; ..
;
120316: 000403              	br	20326			; ..
;
120320: 062764 000002 000002	add	#2,2(r4)		; te....
120326: 004737 117154       	call	@#117154		; _.l.
120332: 004737 117136       	call	@#117136		; _.^.
120336: 004737 117372       	call	@#117372		; _.z.
120342: 012703 000000       	mov	#0,r3			; C...
120346: 016502 000006       	mov	6(r5),r2		; B...
120352: 012700 120366       	mov	#120366,r0		; @.v 
120356: 104403              	trap	3			; ..
120360: 000000              	halt				; ..
;
120362: 004737 117154       	call	@#117154		; _.l.
120366: 055433              	bis	@-(r4),@(r3)+		; .[
120370: 066460 000000 004737	add	0(r4),4737(r0)		; 0m.._.
120376: 117136 004737       	movb	@4737(r1),@(r6)+	; ^._.
120402: 120616              	cmpb	r6,(r6)			; .!
120404: 122763 000027 000000	cmpb	#27,0(r3)		; s%....
120412: 003405              	ble	20426			; ..
120414: 012764 000006 000002	mov	#6,2(r4)		; t.....
120422: 004737 117154       	call	@#117154		; _.l.
120426: 062764 000002 000002	add	#2,2(r4)		; te....
120434: 000772              	br	20422			; z.
;
120436: 004737 117136       	call	@#117136		; _.^.
120442: 005765 000010       	tst	10(r5)			; u...
120446: 001402              	beq	20454			; ..
120450: 004737 117154       	call	@#117154		; _.l.
120454: 016564 000012 000002	mov	12(r5),2(r4)		; t.....
120462: 062764 000002 000002	add	#2,2(r4)		; te....
120470: 016500 000014       	mov	14(r5),r0		; @...
120474: 001765              	beq	20450			; u.
120476: 005010              	clr	(r0)			; ..
120500: 005065 000014       	clr	14(r5)			; 5...
120504: 005065 000016       	clr	16(r5)			; 5...
120510: 000757              	br	20450			; o.
;
120512: 004737 117136       	call	@#117136		; _.^.
120516: 032765 000040 000002	bit	#40,2(r5)		; u5 ...
120524: 001004              	bne	20536			; ..
120526: 012764 000032 000002	mov	#32,2(r4)		; t.....
120534: 000426              	br	20612			; ..
;
120536: 011565 000024       	mov	(r5),24(r5)		; u...
120542: 016503 000024       	mov	24(r5),r3		; C...
120546: 122763 000027 000000	cmpb	#27,0(r3)		; s%....
120554: 003764              	ble	20526			; t.
120556: 122763 000111 000006	cmpb	#111,6(r3)		; s%I...
120564: 001407              	beq	20604			; ..
120566: 122763 000112 000006	cmpb	#112,6(r3)		; s%J...
120574: 001403              	beq	20604			; ..
120576: 004737 120616       	call	@#120616		; _..!
120602: 000757              	br	20542			; o.
;
120604: 062764 000002 000002	add	#2,2(r4)		; te....
120612: 004737 117154       	call	@#117154		; _.l.
120616: 010046              	mov	r0,-(r6)		; &.
120620: 016503 000024       	mov	24(r5),r3		; C...
120624: 010300              	mov	r3,r0			; @.
120626: 062700 000012       	add	#12,r0			; @e..
120632: 005763 000010       	tst	10(r3)			; s...
120636: 001011              	bne	20662			; ..
120640: 116301 000002       	movb	2(r3),r1		; A...
120644: 042701 177400       	bic	#177400,r1		; AE..
120650: 060100              	add	r1,r0			; @`
120652: 032700 000001       	bit	#1,r0			; @5..
120656: 001401              	beq	20662			; ..
120660: 005200              	inc	r0			; ..
120662: 010065 000024       	mov	r0,24(r5)		; 5...
120666: 010003              	mov	r0,r3			; ..
120670: 012600              	mov	(r6)+,r0		; ..
120672: 000207              	ret				; ..
;
120674: 004737 117136       	call	@#117136		; _.^.
120700: 016503 000024       	mov	24(r5),r3		; C...
120704: 004737 117646       	call	@#117646		; _.&.
120710: 012710 000020       	mov	#20,(r0)		; H...
120714: 060520              	add	r5,(r0)+		; Pa
120716: 012720 000001       	mov	#1,(r0)+		; P...
120722: 012710 000022       	mov	#22,(r0)		; H...
120726: 060520              	add	r5,(r0)+		; Pa
120730: 012701 000010       	mov	#10,r1			; A...
120734: 060501              	add	r5,r1			; Aa
120736: 010110              	mov	r1,(r0)			; H.
120740: 012711 000001       	mov	#1,(r1)			; I...
120744: 016465 000002 000012	mov	2(r4),12(r5)		; 5.....
120752: 012764 000034 000002	mov	#34,2(r4)		; t.....
120760: 012703 000000       	mov	#0,r3			; C...
120764: 016502 000004       	mov	4(r5),r2		; B...
120770: 016500 000016       	mov	16(r5),r0		; @...
120774: 104403              	trap	3			; ..
120776: 000000              	halt				; ..
;
121000: 004737 117154       	call	@#117154		; _.l.
121004: 004737 117136       	call	@#117136		; _.^.
121010: 004737 120616       	call	@#120616		; _..!
121014: 122763 000027 000000	cmpb	#27,0(r3)		; s%....
121022: 003416              	ble	21060			; ..
121024: 122763 000111 000006	cmpb	#111,6(r3)		; s%I...
121032: 001405              	beq	21046			; ..
121034: 122763 000112 000006	cmpb	#112,6(r3)		; s%J...
121042: 001401              	beq	21046			; ..
121044: 000761              	br	21010			; q.
;
121046: 012764 000022 000002	mov	#22,2(r4)		; t.....
121054: 004737 117154       	call	@#117154		; _.l.
121060: 062764 000002 000002	add	#2,2(r4)		; te....
121066: 000772              	br	21054			; z.
;
121070: 004737 117136       	call	@#117136		; _.^.
121074: 012765 000001 000032	mov	#1,32(r5)		; u.....
121102: 005014              	clr	(r4)			; ..
121104: 005064 000002       	clr	2(r4)			; 4...
121110: 004737 117154       	call	@#117154		; _.l.
121114: 004737 117136       	call	@#117136		; _.^.
121120: 016503 000024       	mov	24(r5),r3		; C...
121124: 005765 000030       	tst	30(r5)			; u...
121130: 001021              	bne	21174			; ..
121132: 132763 000100 000003	bitb	#100,3(r3)		; s5@...
121140: 001415              	beq	21174			; ..
121142: 005763 000004       	tst	4(r3)			; s...
121146: 001412              	beq	21174			; ..
121150: 126527 000020 000015	cmpb	20(r5),#15		; W-....
121156: 001404              	beq	21170			; ..
121160: 012773 000001 000004	mov	#1,@4(r3)		; {.....
121166: 000402              	br	21174			; ..
;
121170: 005073 000004       	clr	@4(r3)			; ;...
121174: 005765 000026       	tst	26(r5)			; u...
121200: 001016              	bne	21236			; ..
121202: 122763 000101 000007	cmpb	#101,7(r3)		; s%A...
121210: 001432              	beq	21276			; ..
121212: 122763 000102 000007	cmpb	#102,7(r3)		; s%B...
121220: 001433              	beq	21310			; ..
121222: 122763 000116 000007	cmpb	#116,7(r3)		; s%N...
121230: 001434              	beq	21322			; ..
121232: 004737 123466       	call	@#123466		; _.6'
121236: 122763 000104 000007	cmpb	#104,7(r3)		; s%D...
121244: 001426              	beq	21322			; ..
121246: 122763 000105 000007	cmpb	#105,7(r3)		; s%E...
121254: 001422              	beq	21322			; ..
121256: 122763 000106 000007	cmpb	#106,7(r3)		; s%F...
121264: 001421              	beq	21330			; ..
121266: 122763 000117 000007	cmpb	#117,7(r3)		; s%O...
121274: 001422              	beq	21342			; ..
121276: 012700 121354       	mov	#121354,r0		; @.l"
121302: 012701 121405       	mov	#121405,r1		; A..#
121306: 000421              	br	21352			; ..
;
121310: 012700 121354       	mov	#121354,r0		; @.l"
121314: 012701 121454       	mov	#121454,r1		; A.,#
121320: 000414              	br	21352			; ..
;
121322: 012700 121443       	mov	#121443,r0		; @.##
121326: 000772              	br	21314			; z.
;
121330: 012700 121443       	mov	#121443,r0		; @.##
121334: 012701 121456       	mov	#121456,r1		; A..#
121340: 000404              	br	21352			; ..
;
121342: 012700 121443       	mov	#121443,r0		; @.##
121346: 012701 121452       	mov	#121452,r1		; A.*#
121352: 000466              	br	21530			; 6.
;
121354: 041101              	bic	(r1),r1			; AB
121356: 042103              	bic	(r1)+,r3		; CD
121360: 043105              	bic	@(r1)+,r5		; EF
121362: 044107              	bic	-(r1),r7		; GH
121364: 045111              	bic	@-(r1),(r1)		; IJ
121366: 046113 047115       	bic	47115(r1),(r3)		; KLMN
121372: 050117              	bis	r1,(r7)			; OP
121374: 051121              	bis	(r1),(r1)+		; QR
121376: 052123              	bis	(r1)+,(r3)+		; ST
121400: 053125              	bis	@(r1)+,(r5)+		; UV
121402: 054127 055131       	bis	-(r1),#55131		; WXYZ
121406: 020041              	cmp	r0,-(r1)		; ! 
121410: 021500              	cmp	(r5),r0			; @#
121412: 022444              	cmp	(r4)+,-(r4)		; $%
121414: 023136              	cmp	@(r1)+,@(r6)+		; ^&
121416: 024052              	cmp	-(r0),@-(r2)		; *(
121420: 057451 026453       	bis	@26453(r4),@-(r1)	; )_+-
121424: 075475              	invalid opcode			; ={
121426: 056575 021072 037074	bis	21072(r5),@37074(r5)	; }]:"<>
121434: 027054 076077       	cmp	@76077(r0),@-(r4)	; ,.?|
121440: 060176 030134       	add	r1,@30134(r6)		; ~`\0
121444: 031061 032063       	bit	(r0),32063(r1)		; 1234
121450: 033065 034067       	bit	@(r0)+,34067(r5)	; 5678
121454: 026471 000056 012765	cmp	56(r4),@12765(r1)	; 9-..u.
121462: 177766 000032       	ldcdf	f3,32(r6)		; v...
121466: 000413              	br	21516			; ..
;
121470: 012765 177744 000032	mov	#177744,32(r5)		; u.d...
121476: 000407              	br	21516			; ..
;
121500: 012765 177743 000032	mov	#177743,32(r5)		; u.c...
121506: 000403              	br	21516			; ..
;
121510: 012765 177745 000032	mov	#177745,32(r5)		; u.e...
121516: 005014              	clr	(r4)			; ..
121520: 005064 000002       	clr	2(r4)			; 4...
121524: 004737 117154       	call	@#117154		; _.l.
121530: 126520 000020       	cmpb	20(r5),(r0)+		; P-..
121534: 001524              	beq	22006			; T.
121536: 020001              	cmp	r0,r1			; . 
121540: 003773              	ble	21530			; {.
121542: 122763 000101 000007	cmpb	#101,7(r3)		; s%A...
121550: 001030              	bne	21632			; ..
121552: 122765 000055 000020	cmpb	#55,20(r5)		; u%-...
121560: 001004              	bne	21572			; ..
121562: 112765 000111 000020	movb	#111,20(r5)		; u.I...
121570: 000506              	br	22006			; F.
;
121572: 122765 000054 000020	cmpb	#54,20(r5)		; u%,...
121600: 001004              	bne	21612			; ..
121602: 112765 000117 000020	movb	#117,20(r5)		; u.O...
121610: 000476              	br	22006			; >.
;
121612: 122765 000056 000020	cmpb	#56,20(r5)		; u%....
121620: 001004              	bne	21632			; ..
121622: 112765 000123 000020	movb	#123,20(r5)		; u.S...
121630: 000466              	br	22006			; 6.
;
121632: 122765 000177 000020	cmpb	#177,20(r5)		; u%....
121640: 001444              	beq	21752			; $.
121642: 122765 000133 000020	cmpb	#133,20(r5)		; u%[...
121650: 001707              	beq	21470			; G.
121652: 122765 000057 000020	cmpb	#57,20(r5)		; u%/...
121660: 001707              	beq	21500			; G.
121662: 122765 000073 000020	cmpb	#73,20(r5)		; u%;...
121670: 001002              	bne	21676			; ..
121672: 000137 122652       	jmp	@#122652		; _.*%
;
121676: 122765 000047 000020	cmpb	#47,20(r5)		; u%'...
121704: 001002              	bne	21712			; ..
121706: 000137 122616       	jmp	@#122616		; _..%
;
121712: 122765 000015 000020	cmpb	#15,20(r5)		; u%....
121720: 001002              	bne	21726			; ..
121722: 000137 122212       	jmp	@#122212		; _..$
;
121726: 122765 000012 000020	cmpb	#12,20(r5)		; u%....
121734: 001651              	beq	21460			; ).
121736: 122765 000033 000020	cmpb	#33,20(r5)		; u%....
121744: 001661              	beq	21510			; 1.
121746: 000137 122772       	jmp	@#122772		; _.z%
;
121752: 005765 000030       	tst	30(r5)			; u...
121756: 001773              	beq	21746			; {.
121760: 004737 124056       	call	@#124056		; _..(
121764: 012765 000022 000012	mov	#22,12(r5)		; u.....
121772: 004737 117154       	call	@#117154		; _.l.
121776: 062764 000002 000002	add	#2,2(r4)		; te....
122004: 000410              	br	22026			; ..
;
122006: 004737 123530       	call	@#123530		; _.X'
122012: 016503 000024       	mov	24(r5),r3		; C...
122016: 126365 000002 000030	cmpb	2(r3),30(r5)		; u,....
122024: 001357              	bne	21764			; o.
122026: 122763 000101 000007	cmpb	#101,7(r3)		; s%A...
122034: 001452              	beq	22162			; *.
122036: 122763 000102 000007	cmpb	#102,7(r3)		; s%B...
122044: 001446              	beq	22162			; &.
122046: 122763 000116 000007	cmpb	#116,7(r3)		; s%N...
122054: 001442              	beq	22162			; ".
122056: 016300 000010       	mov	10(r3),r0		; @...
122062: 016502 000030       	mov	30(r5),r2		; B...
122066: 001435              	beq	22162			; ..
122070: 016501 000026       	mov	26(r5),r1		; A...
122074: 122763 000104 000007	cmpb	#104,7(r3)		; s%D...
122102: 001417              	beq	22142			; ..
122104: 122763 000105 000007	cmpb	#105,7(r3)		; s%E...
122112: 001416              	beq	22150			; ..
122114: 122763 000106 000007	cmpb	#106,7(r3)		; s%F...
122122: 001415              	beq	22156			; ..
122124: 122763 000117 000007	cmpb	#117,7(r3)		; s%O...
122132: 001013              	bne	22162			; ..
122134: 004737 123440       	call	@#123440		; _. '
122140: 000410              	br	22162			; ..
;
122142: 004737 123412       	call	@#123412		; _..'
122146: 000405              	br	22162			; ..
;
122150: 004737 111376       	call	@#111376		; _.~.
122154: 000402              	br	22162			; ..
;
122156: 004737 111476       	call	@#111476		; _.>.
122162: 005765 000026       	tst	26(r5)			; u...
122166: 001405              	beq	22202			; ..
122170: 016500 000026       	mov	26(r5),r0		; @...
122174: 005040              	clr	-(r0)			;  .
122176: 005065 000026       	clr	26(r5)			; 5...
122202: 005065 000030       	clr	30(r5)			; 5...
122206: 004737 117154       	call	@#117154		; _.l.
122212: 005765 000030       	tst	30(r5)			; u...
122216: 001014              	bne	22250			; ..
122220: 132763 000020 000003	bitb	#20,3(r3)		; s5....
122226: 001012              	bne	22254			; ..
122230: 132763 000040 000003	bitb	#40,3(r3)		; s5 ...
122236: 001404              	beq	22250			; ..
122240: 016300 000004       	mov	4(r3),r0		; @...
122244: 005710              	tst	(r0)			; H.
122246: 001402              	beq	22254			; ..
122250: 000137 123126       	jmp	@#123126		; _.V&
;
122254: 011501              	mov	(r5),r1			; A.
122256: 016546 000024       	mov	24(r5),-(r6)		; f...
122262: 010346              	mov	r3,-(r6)		; f.
122264: 010165 000024       	mov	r1,24(r5)		; u...
122270: 126127 000006 000111	cmpb	6(r1),#111		; W,..I.
122276: 001410              	beq	22320			; ..
122300: 126127 000006 000112	cmpb	6(r1),#112		; W,..J.
122306: 001404              	beq	22320			; ..
122310: 004737 120616       	call	@#120616		; _..!
122314: 010301              	mov	r3,r1			; A.
122316: 000764              	br	22270			; t.
;
122320: 012603              	mov	(r6)+,r3		; ..
122322: 012665 000024       	mov	(r6)+,24(r5)		; 5...
122326: 026137 000010 013632	cmp	10(r1),@#13632		; _,....
122334: 001012              	bne	22362			; ..
122336: 016302 000010       	mov	10(r3),r2		; B...
122342: 166102 000010       	sub	10(r1),r2		; Bl..
122346: 010201              	mov	r2,r1			; ..
122350: 063701 013634       	add	@#13634,r1		; Ag..
122354: 016302 000010       	mov	10(r3),r2		; B...
122360: 000405              	br	22374			; ..
;
122362: 016302 000010       	mov	10(r3),r2		; B...
122366: 010201              	mov	r2,r1			; ..
122370: 162701 000074       	sub	#74,r1			; Ae<.
122374: 005711              	tst	(r1)			; I.
122376: 001724              	beq	22250			; T.
122400: 004737 117646       	call	@#117646		; _.&.
122404: 010446              	mov	r4,-(r6)		; &.
122406: 116304 000003       	movb	3(r3),r4		; D...
122412: 042704 177760       	bic	#177760,r4		; DEp.
122416: 001402              	beq	22424			; ..
122420: 004737 123736       	call	@#123736		; _.^'
122424: 116304 000002       	movb	2(r3),r4		; D...
122430: 111120              	movb	(r1),(r0)+		; P.
122432: 112122              	movb	(r1)+,(r2)+		; R.
122434: 077403              	sob	r4,22430		; ..
122436: 112720 000033       	movb	#33,(r0)+		; P...
122442: 112720 000133       	movb	#133,(r0)+		; P.[.
122446: 112720 000060       	movb	#60,(r0)+		; P.0.
122452: 112720 000155       	movb	#155,(r0)+		; P.m.
122456: 005737 011402       	tst	@#11402			; _...
122462: 001410              	beq	22504			; ..
122464: 012701 123716       	mov	#123716,r1		; A.N'
122470: 012702 000020       	mov	#20,r2			; B...
122474: 112120              	movb	(r1)+,(r0)+		; P.
122476: 077202              	sob	r2,22474		; .~
122500: 005037 011402       	clr	@#11402			; ....
122504: 105020              	clrb	(r0)+			; ..
122506: 012765 000001 000010	mov	#1,10(r5)		; u.....
122514: 012701 000010       	mov	#10,r1			; A...
122520: 060501              	add	r5,r1			; Aa
122522: 012703 000000       	mov	#0,r3			; C...
122526: 016502 000006       	mov	6(r5),r2		; B...
122532: 016500 000016       	mov	16(r5),r0		; @...
122536: 104403              	trap	3			; ..
122540: 000000              	halt				; ..
;
122542: 005765 000010       	tst	10(r5)			; u...
122546: 001404              	beq	22560			; ..
122550: 012700 000012       	mov	#12,r0			; @...
122554: 104401              	trap	1			; ..
122556: 000771              	br	22542			; y.
;
122560: 016500 000014       	mov	14(r5),r0		; @...
122564: 005010              	clr	(r0)			; ..
122566: 005065 000014       	clr	14(r5)			; 5...
122572: 005065 000016       	clr	16(r5)			; 5...
122576: 005065 000020       	clr	20(r5)			; 5...
122602: 012604              	mov	(r6)+,r4		; ..
122604: 012764 000030 000002	mov	#30,2(r4)		; t.....
122612: 004737 117154       	call	@#117154		; _.l.
122616: 105773 000010       	tstb	@10(r3)			; {...
122622: 001002              	bne	22630			; ..
122624: 000137 123126       	jmp	@#123126		; _.V&
;
122630: 012764 000030 000002	mov	#30,2(r4)		; t.....
122636: 005065 000030       	clr	30(r5)			; 5...
122642: 004737 123240       	call	@#123240		; _. &
122646: 004737 117154       	call	@#117154		; _.l.
122652: 016546 000024       	mov	24(r5),-(r6)		; f...
122656: 011565 000024       	mov	(r5),24(r5)		; u...
122662: 021665 000024       	cmp	(r6),24(r5)		; 5#..
122666: 001003              	bne	22676			; ..
122670: 012665 000024       	mov	(r6)+,24(r5)		; 5...
122674: 000436              	br	22772			; ..
;
122676: 016500 000024       	mov	24(r5),r0		; @...
122702: 004737 120616       	call	@#120616		; _..!
122706: 026516 000024       	cmp	24(r5),(r6)		; N-..
122712: 001371              	bne	22676			; y.
122714: 010003              	mov	r0,r3			; ..
122716: 122763 000111 000006	cmpb	#111,6(r3)		; s%I...
122724: 001406              	beq	22742			; ..
122726: 122763 000112 000006	cmpb	#112,6(r3)		; s%J...
122734: 001402              	beq	22742			; ..
122736: 010016              	mov	r0,(r6)			; ..
122740: 000746              	br	22656			; f.
;
122742: 005726              	tst	(r6)+			; V.
122744: 010365 000024       	mov	r3,24(r5)		; u...
122750: 012764 000022 000002	mov	#22,2(r4)		; t.....
122756: 005065 000030       	clr	30(r5)			; 5...
122762: 004737 123240       	call	@#123240		; _. &
122766: 004737 117154       	call	@#117154		; _.l.
122772: 012737 000001 011402	mov	#1,@#11402		; _.....
123000: 004737 117372       	call	@#117372		; _.z.
123004: 012703 000000       	mov	#0,r3			; C...
123010: 016502 000006       	mov	6(r5),r2		; B...
123014: 012700 123036       	mov	#123036,r0		; @..&
123020: 104403              	trap	3			; ..
123022: 000000              	halt				; ..
;
123024: 012765 000022 000012	mov	#22,12(r5)		; u.....
123032: 004737 117154       	call	@#117154		; _.l.
123036: 033433              	bit	@(r4)+,@(r3)+		; .7
123040: 055433              	bis	@-(r4),@(r3)+		; .[
123042: 031462 032073       	bit	(r4),32073(r2)		; 23;4
123046: 044060 055433       	bic	-(r0),55433(r0)		; 0H.[
123052: 045461 055433       	bic	@-(r4),55433(r1)	; 1K.[
123056: 031462 030473       	bit	(r4),30473(r2)		; 23;1
123062: 041510              	bic	(r5),(r0)		; HC
123064: 040510              	bic	r5,(r0)			; HA
123066: 040522              	bic	r5,(r2)+		; RA
123070: 052103              	bis	(r1)+,r3		; CT
123072: 051105              	bis	(r1),r5			; ER
123074: 044440              	bic	-(r4),-(r0)		;  I
123076: 046114 043505       	bic	43505(r1),(r4)		; LLEG
123102: 046101 044440       	bic	44440(r1),r1		; AL I
123106: 020116              	cmp	r1,(r6)			; N 
123110: 044124              	bic	-(r1),(r4)+		; TH
123112: 051511              	bis	(r5),(r1)		; IS
123114: 043040              	bic	@(r0)+,-(r0)		;  F
123116: 042511              	bic	(r5)+,(r1)		; IE
123120: 042114              	bic	(r1)+,(r4)		; LD
123122: 034033              	bit	-(r0),@(r3)+		; .8
123124: 000000              	halt				; ..
;
123126: 012737 000001 011402	mov	#1,@#11402		; _.....
123134: 004737 117372       	call	@#117372		; _.z.
123140: 012703 000000       	mov	#0,r3			; C...
123144: 016502 000006       	mov	6(r5),r2		; B...
123150: 012700 123172       	mov	#123172,r0		; @.z&
123154: 104403              	trap	3			; ..
123156: 000000              	halt				; ..
;
123160: 012765 000022 000012	mov	#22,12(r5)		; u.....
123166: 004737 117154       	call	@#117154		; _.l.
123172: 033433              	bit	@(r4)+,@(r3)+		; .7
123174: 055433              	bis	@-(r4),@(r3)+		; .[
123176: 031462 032073       	bit	(r4),32073(r2)		; 23;4
123202: 044060 055433       	bic	-(r0),55433(r0)		; 0H.[
123206: 045461 055433       	bic	@-(r4),55433(r1)	; 1K.[
123212: 031462 030473       	bit	(r4),30473(r2)		; 23;1
123216: 051110              	bis	(r1),(r0)		; HR
123220: 050505              	bis	r5,r5			; EQ
123222: 044525              	bic	-(r5),(r5)+		; UI
123224: 042522              	bic	(r5)+,(r2)+		; RE
123226: 020104              	cmp	r1,r4			; D 
123230: 044506              	bic	-(r5),r6		; FI
123232: 046105 015504       	bic	15504(r1),r5		; ELD.
123236: 000070              	invalid opcode			; 8.
123240: 005737 011402       	tst	@#11402			; _...
123244: 001461              	beq	23410			; 1.
123246: 004737 117646       	call	@#117646		; _.&.
123252: 112720 000033       	movb	#33,(r0)+		; P...
123256: 112720 000133       	movb	#133,(r0)+		; P.[.
123262: 112720 000060       	movb	#60,(r0)+		; P.0.
123266: 112720 000155       	movb	#155,(r0)+		; P.m.
123272: 012701 123716       	mov	#123716,r1		; A.N'
123276: 012702 000020       	mov	#20,r2			; B...
123302: 112120              	movb	(r1)+,(r0)+		; P.
123304: 077202              	sob	r2,23302		; .~
123306: 005037 011402       	clr	@#11402			; ....
123312: 105020              	clrb	(r0)+			; ..
123314: 012765 000001 000010	mov	#1,10(r5)		; u.....
123322: 012701 000010       	mov	#10,r1			; A...
123326: 060501              	add	r5,r1			; Aa
123330: 012703 000000       	mov	#0,r3			; C...
123334: 016502 000006       	mov	6(r5),r2		; B...
123340: 016500 000016       	mov	16(r5),r0		; @...
123344: 104403              	trap	3			; ..
123346: 000000              	halt				; ..
;
123350: 005765 000010       	tst	10(r5)			; u...
123354: 001404              	beq	23366			; ..
123356: 012700 000012       	mov	#12,r0			; @...
123362: 104401              	trap	1			; ..
123364: 000771              	br	23350			; y.
;
123366: 016500 000014       	mov	14(r5),r0		; @...
123372: 005010              	clr	(r0)			; ..
123374: 005065 000014       	clr	14(r5)			; 5...
123400: 005065 000016       	clr	16(r5)			; 5...
123404: 005065 000020       	clr	20(r5)			; 5...
123410: 000207              	ret				; ..
;
123412: 010037 011374       	mov	r0,@#11374		; ..|.
123416: 012700 011376       	mov	#11376,r0		; @.~.
123422: 004737 111376       	call	@#111376		; _.~.
123426: 013700 011374       	mov	@#11374,r0		; @.|.
123432: 013710 011400       	mov	@#11400,(r0)		; H...
123436: 000207              	ret				; ..
;
123440: 010037 011374       	mov	r0,@#11374		; ..|.
123444: 012700 011376       	mov	#11376,r0		; @.~.
123450: 004737 111316       	call	@#111316		; _.N.
123454: 013700 011374       	mov	@#11374,r0		; @.|.
123460: 013710 011400       	mov	@#11400,(r0)		; H...
123464: 000207              	ret				; ..
;
123466: 012700 011226       	mov	#11226,r0		; @...
123472: 005710              	tst	(r0)			; H.
123474: 001406              	beq	23512			; ..
123476: 062700 000024       	add	#24,r0			; @e..
123502: 022700 011372       	cmp	#11372,r0		; @%z.
123506: 003371              	bgt	23472			; y.
123510: 000207              	ret				; ..
;
123512: 012720 000001       	mov	#1,(r0)+		; P...
123516: 010065 000026       	mov	r0,26(r5)		; 5...
123522: 005065 000030       	clr	30(r5)			; 5...
123526: 000207              	ret				; ..
;
123530: 010046              	mov	r0,-(r6)		; &.
123532: 010146              	mov	r1,-(r6)		; f.
123534: 010246              	mov	r2,-(r6)		; &.
123536: 010346              	mov	r3,-(r6)		; f.
123540: 016500 000026       	mov	26(r5),r0		; @...
123544: 001002              	bne	23552			; ..
123546: 016300 000010       	mov	10(r3),r0		; @...
123552: 066500 000030       	add	30(r5),r0		; @m..
123556: 116510 000020       	movb	20(r5),(r0)		; H...
123562: 005265 000030       	inc	30(r5)			; 5...
123566: 004737 117646       	call	@#117646		; _.&.
123572: 105763 000003       	tstb	3(r3)			; s...
123576: 001402              	beq	23604			; ..
123600: 004737 123736       	call	@#123736		; _.^'
123604: 116520 000020       	movb	20(r5),(r0)+		; P...
123610: 112720 000033       	movb	#33,(r0)+		; P...
123614: 112720 000133       	movb	#133,(r0)+		; P.[.
123620: 112720 000060       	movb	#60,(r0)+		; P.0.
123624: 112720 000155       	movb	#155,(r0)+		; P.m.
123630: 005737 011402       	tst	@#11402			; _...
123634: 001410              	beq	23656			; ..
123636: 012701 123716       	mov	#123716,r1		; A.N'
123642: 012702 000020       	mov	#20,r2			; B...
123646: 112120              	movb	(r1)+,(r0)+		; P.
123650: 077202              	sob	r2,23646		; .~
123652: 005037 011402       	clr	@#11402			; ....
123656: 105020              	clrb	(r0)+			; ..
123660: 004737 117372       	call	@#117372		; _.z.
123664: 012703 000000       	mov	#0,r3			; C...
123670: 016502 000006       	mov	6(r5),r2		; B...
123674: 016500 000016       	mov	16(r5),r0		; @...
123700: 104403              	trap	3			; ..
123702: 000000              	halt				; ..
;
123704: 012603              	mov	(r6)+,r3		; ..
123706: 012602              	mov	(r6)+,r2		; ..
123710: 012601              	mov	(r6)+,r1		; ..
123712: 012600              	mov	(r6)+,r0		; ..
123714: 000207              	ret				; ..
;
123716: 033433              	bit	@(r4)+,@(r3)+		; .7
123720: 055433              	bis	@-(r4),@(r3)+		; .[
123722: 031462 032073       	bit	(r4),32073(r2)		; 23;4
123726: 044060 055433       	bic	-(r0),55433(r0)		; 0H.[
123732: 045461 034033       	bic	@-(r4),34033(r1)	; 1K.8
123736: 112720 000033       	movb	#33,(r0)+		; P...
123742: 112720 000133       	movb	#133,(r0)+		; P.[.
123746: 132763 000001 000003	bitb	#1,3(r3)		; s5....
123754: 001404              	beq	23766			; ..
123756: 112720 000061       	movb	#61,(r0)+		; P.1.
123762: 112720 000073       	movb	#73,(r0)+		; P.;.
123766: 132763 000002 000003	bitb	#2,3(r3)		; s5....
123774: 001404              	beq	24006			; ..
123776: 112720 000064       	movb	#64,(r0)+		; P.4.
124002: 112720 000073       	movb	#73,(r0)+		; P.;.
124006: 132763 000004 000003	bitb	#4,3(r3)		; s5....
124014: 001404              	beq	24026			; ..
124016: 112720 000065       	movb	#65,(r0)+		; P.5.
124022: 112720 000073       	movb	#73,(r0)+		; P.;.
124026: 132763 000010 000003	bitb	#10,3(r3)		; s5....
124034: 001404              	beq	24046			; ..
124036: 112720 000067       	movb	#67,(r0)+		; P.7.
124042: 112720 000073       	movb	#73,(r0)+		; P.;.
124046: 005300              	dec	r0			; @.
124050: 112720 000155       	movb	#155,(r0)+		; P.m.
124054: 000207              	ret				; ..
;
124056: 005365 000030       	dec	30(r5)			; u...
124062: 004737 117646       	call	@#117646		; _.&.
124066: 105763 000003       	tstb	3(r3)			; s...
124072: 001402              	beq	24100			; ..
124074: 004737 123736       	call	@#123736		; _.^'
124100: 012701 124144       	mov	#124144,r1		; A.d(
124104: 012702 000010       	mov	#10,r2			; B...
124110: 112120              	movb	(r1)+,(r0)+		; P.
124112: 077202              	sob	r2,24110		; .~
124114: 105010              	clrb	(r0)			; ..
124116: 004737 117372       	call	@#117372		; _.z.
124122: 012703 000000       	mov	#0,r3			; C...
124126: 016502 000006       	mov	6(r5),r2		; B...
124132: 016500 000016       	mov	16(r5),r0		; @...
124136: 104403              	trap	3			; ..
124140: 000000              	halt				; ..
;
124142: 000207              	ret				; ..
;
124144: 020010              	cmp	r0,(r0)			; . 
124146: 015410              	mov	@-(r4),(r0)		; ..
124150: 030133              	bit	r1,@(r3)+		; [0
124152: 000155              	jmp	@-(r5)			; m.
;
124154: 013705 001776       	mov	@#1776,r5		; E.~.
124160: 105037 011451       	clrb	@#11451			; ..).
124164: 105037 011452       	clrb	@#11452			; ..*.
124170: 012737 140614 012126	mov	#140614,@#12126		; _..AV.
124176: 012737 000066 012130	mov	#66,@#12130		; _.6.X.
124204: 012737 000000 012132	mov	#0,@#12132		; _...Z.
124212: 012737 000001 012134	mov	#1,@#12134		; _...\.
124220: 012737 000000 012124	mov	#0,@#12124		; _...T.
124226: 004737 125456       	call	@#125456		; _..+
124232: 005337 012124       	dec	@#12124			; _.T.
124236: 023727 012124 000004	cmp	@#12124,#4		; W'T...
124244: 001003              	bne	24254			; ..
124246: 004737 127074       	call	@#127074		; _.<.
124252: 000746              	br	24170			; f.
;
124254: 005737 013636       	tst	@#13636			; _...
124260: 001357              	bne	24220			; o.
124262: 023727 012124 000000	cmp	@#12124,#0		; W'T...
124270: 002753              	blt	24220			; k.
124272: 023727 012124 000003	cmp	@#12124,#3		; W'T...
124300: 003347              	bgt	24220			; g.
124302: 012700 000023       	mov	#23,r0			; @...
124306: 012701 127752       	mov	#127752,r1		; A.j/
124312: 012702 011404       	mov	#11404,r2		; B...
124316: 112122              	movb	(r1)+,(r2)+		; R.
124320: 077002              	sob	r0,24316		; .~
124322: 012700 000021       	mov	#21,r0			; @...
124326: 012701 127776       	mov	#127776,r1		; A.~/
124332: 012702 011430       	mov	#11430,r2		; B...
124336: 112122              	movb	(r1)+,(r2)+		; R.
124340: 077002              	sob	r0,24336		; .~
124342: 013704 012124       	mov	@#12124,r4		; D.T.
124346: 010546              	mov	r5,-(r6)		; f.
124350: 012746 000020       	mov	#20,-(r6)		; f...
124354: 070426              	mul	(r6)+,r4		; .q
124356: 010504              	mov	r5,r4			; D.
124360: 012605              	mov	(r6)+,r5		; ..
124362: 062704 133614       	add	#133614,r4		; De.7
124366: 016437 000002 012126	mov	2(r4),@#12126		; ....V.
124374: 016437 000004 012130	mov	4(r4),@#12130		; ....X.
124402: 004737 125456       	call	@#125456		; _..+
124406: 016437 000010 012122	mov	10(r4),@#12122		; ....R.
124414: 016437 000012 012120	mov	12(r4),@#12120		; ....P.
124422: 016437 000006 013632	mov	6(r4),@#13632		; ......
124430: 016437 000016 013634	mov	16(r4),@#13634		; ......
124436: 012700 012172       	mov	#12172,r0		; @.z.
124442: 016401 000000       	mov	0(r4),r1		; ....
124446: 016402 000014       	mov	14(r4),r2		; ....
124452: 112120              	movb	(r1)+,(r0)+		; P.
124454: 077202              	sob	r2,24452		; .~
124456: 012703 000000       	mov	#0,r3			; C...
124462: 012702 000001       	mov	#1,r2			; B...
124466: 012701 000000       	mov	#0,r1			; A...
124472: 012700 127242       	mov	#127242,r0		; @.".
124476: 104403              	trap	3			; ..
124500: 000000              	halt				; ..
;
124502: 004737 125534       	call	@#125534		; _.\+
124506: 004737 125620       	call	@#125620		; _..+
124512: 012737 012172 012126	mov	#12172,@#12126		; _.z.V.
124520: 052737 000040 012130	bis	#40,@#12130		; _U .X.
124526: 004737 125204       	call	@#125204		; _..*
124532: 023727 012160 000001	cmp	@#12160,#1		; W'p...
124540: 001027              	bne	24620			; ..
124542: 004737 126232       	call	@#126232		; _..,
124546: 004737 125770       	call	@#125770		; _.x+
124552: 105737 011451       	tstb	@#11451			; _.).
124556: 001417              	beq	24616			; ..
124560: 012700 000170       	mov	#170,r0			; @.x.
124564: 104401              	trap	1			; ..
124566: 012703 000000       	mov	#0,r3			; C...
124572: 012702 000001       	mov	#1,r2			; B...
124576: 012701 000000       	mov	#0,r1			; A...
124602: 012700 127730       	mov	#127730,r0		; @.X/
124606: 104403              	trap	3			; ..
124610: 000000              	halt				; ..
;
124612: 105037 011451       	clrb	@#11451			; ..).
124616: 000733              	br	24506			; [.
;
124620: 023727 012160 177745	cmp	@#12160,#177745		; W'p.e.
124626: 001055              	bne	24762			; -.
124630: 005737 011452       	tst	@#11452			; _.*.
124634: 001450              	beq	24756			; (.
124636: 012703 000000       	mov	#0,r3			; C...
124642: 012702 000001       	mov	#1,r2			; B...
124646: 012701 000000       	mov	#0,r1			; A...
124652: 012700 127646       	mov	#127646,r0		; @.&/
124656: 104403              	trap	3			; ..
124660: 000000              	halt				; ..
;
124662: 012700 000074       	mov	#74,r0			; @.<.
124666: 104401              	trap	1			; ..
124670: 016500 000044       	mov	44(r5),r0		; @.$.
124674: 026500 000042       	cmp	42(r5),r0		; @-".
124700: 001770              	beq	24662			; x.
124702: 105037 011452       	clrb	@#11452			; ..*.
124706: 016001 000006       	mov	6(r0),r1		; ....
124712: 001411              	beq	24736			; ..
124714: 004737 126460       	call	@#126460		; _.0-
124720: 010346              	mov	r3,-(r6)		; f.
124722: 063703 012122       	add	@#12122,r3		; CgR.
124726: 112713 000001       	movb	#1,(r3)			; K...
124732: 012603              	mov	(r6)+,r3		; ..
124734: 000410              	br	24756			; ..
;
124736: 004737 126460       	call	@#126460		; _.0-
124742: 010346              	mov	r3,-(r6)		; f.
124744: 063703 012122       	add	@#12122,r3		; CgR.
124750: 112713 000002       	movb	#2,(r3)			; K...
124754: 012603              	mov	(r6)+,r3		; ..
124756: 000137 124154       	jmp	@#124154		; _.l(
;
124762: 023727 012160 177744	cmp	@#12160,#177744		; W'p.d.
124770: 001007              	bne	25010			; ..
124772: 123727 020600 000012	cmpb	@#20600,#12		; W'.!..
125000: 003402              	ble	25006			; ..
125002: 105337 020600       	decb	@#20600			; _..!
125006: 000661              	br	24552			; 1.
;
125010: 023727 012160 177743	cmp	@#12160,#177743		; W'p.c.
125016: 001007              	bne	25036			; ..
125020: 123727 020600 000023	cmpb	@#20600,#23		; W'.!..
125026: 002002              	bge	25034			; ..
125030: 105237 020600       	incb	@#20600			; ...!
125034: 000644              	br	24546			; $.
;
125036: 023727 012160 177766	cmp	@#12160,#177766		; W'p.v.
125044: 001022              	bne	25112			; ..
125046: 113700 020600       	movb	@#20600,r0		; @..!
125052: 162700 000012       	sub	#12,r0			; @e..
125056: 013701 012122       	mov	@#12122,r1		; A.R.
125062: 060100              	add	r1,r0			; @`
125064: 121027 000002       	cmpb	(r0),#2			; ."..
125070: 001004              	bne	25102			; ..
125072: 112710 000001       	movb	#1,(r0)			; H...
125076: 004737 126704       	call	@#126704		; _.D-
125102: 112737 000023 020600	movb	#23,@#20600		; _....!
125110: 000620              	br	24552			; ..
;
125112: 023727 012160 177776	cmp	@#12160,#177776		; W'p.~.
125120: 001003              	bne	25130			; ..
125122: 012700 127356       	mov	#127356,r0		; @.n.
125126: 000411              	br	25152			; ..
;
125130: 023727 012160 177775	cmp	@#12160,#177775		; W'p.}.
125136: 001003              	bne	25146			; ..
125140: 012700 127440       	mov	#127440,r0		; @. /
125144: 000402              	br	25152			; ..
;
125146: 012700 127262       	mov	#127262,r0		; @.2.
125152: 012703 000000       	mov	#0,r3			; C...
125156: 012702 000001       	mov	#1,r2			; B...
125162: 012701 000000       	mov	#0,r1			; A...
125166: 104403              	trap	3			; ..
125170: 000000              	halt				; ..
;
125172: 112737 000001 011451	movb	#1,@#11451		; _...).
125200: 000137 124546       	jmp	@#124546		; _.f)
;
125204: 004737 127212       	call	@#127212		; _...
125210: 005037 012160       	clr	@#12160			; ..p.
125214: 012703 000000       	mov	#0,r3			; C...
125220: 012702 000004       	mov	#4,r2			; B...
125224: 012701 000000       	mov	#0,r1			; A...
125230: 012700 012126       	mov	#12126,r0		; @.V.
125234: 104404              	trap	4			; ..
125236: 000000              	halt				; ..
;
125240: 005737 012160       	tst	@#12160			; _.p.
125244: 001102              	bne	25452			; B.
125246: 012700 000074       	mov	#74,r0			; @.<.
125252: 104410              	trap	10			; ..
125254: 016500 000044       	mov	44(r5),r0		; @.$.
125260: 026500 000042       	cmp	42(r5),r0		; @-".
125264: 001436              	beq	25362			; ..
125266: 105037 011452       	clrb	@#11452			; ..*.
125272: 016001 000006       	mov	6(r0),r1		; ....
125276: 001414              	beq	25330			; ..
125300: 004737 126460       	call	@#126460		; _.0-
125304: 010346              	mov	r3,-(r6)		; f.
125306: 063703 012122       	add	@#12122,r3		; CgR.
125312: 121327 000003       	cmpb	(r3),#3			; W"..
125316: 001002              	bne	25324			; ..
125320: 112713 000001       	movb	#1,(r3)			; K...
125324: 012603              	mov	(r6)+,r3		; ..
125326: 000415              	br	25362			; ..
;
125330: 004737 126460       	call	@#126460		; _.0-
125334: 010346              	mov	r3,-(r6)		; f.
125336: 063703 012122       	add	@#12122,r3		; CgR.
125342: 121327 000003       	cmpb	(r3),#3			; W"..
125346: 001004              	bne	25360			; ..
125350: 112713 000002       	movb	#2,(r3)			; K...
125354: 004737 126704       	call	@#126704		; _.D-
125360: 012603              	mov	(r6)+,r3		; ..
125362: 004737 126566       	call	@#126566		; _.v-
125366: 000724              	br	25240			; T.
;
125370: 010300              	mov	r3,r0			; @.
125372: 004737 126500       	call	@#126500		; _.@-
125376: 063703 012122       	add	@#12122,r3		; CgR.
125402: 112713 000003       	movb	#3,(r3)			; K...
125406: 112737 000001 011452	movb	#1,@#11452		; _...*.
125414: 012703 000000       	mov	#0,r3			; C...
125420: 012702 000002       	mov	#2,r2			; B...
125424: 013701 012124       	mov	@#12124,r1		; A.T.
125430: 104404              	trap	4			; ..
125432: 000000              	halt				; ..
;
125434: 004737 126624       	call	@#126624		; _..-
125440: 000677              	br	25240			; ?.
;
125442: 012700 000606       	mov	#606,r0			; @...
125446: 104410              	trap	10			; ..
125450: 000701              	br	25254			; A.
;
125452: 004737 127230       	call	@#127230		; _...
125456: 004737 127212       	call	@#127212		; _...
125462: 005037 012160       	clr	@#12160			; ..p.
125466: 012703 000000       	mov	#0,r3			; C...
125472: 012702 000004       	mov	#4,r2			; B...
125476: 012701 000000       	mov	#0,r1			; A...
125502: 012700 012126       	mov	#12126,r0		; @.V.
125506: 104404              	trap	4			; ..
125510: 000000              	halt				; ..
;
125512: 005737 012160       	tst	@#12160			; _.p.
125516: 001004              	bne	25530			; ..
125520: 012700 000006       	mov	#6,r0			; @...
125524: 104401              	trap	1			; ..
125526: 000771              	br	25512			; y.
;
125530: 004737 127230       	call	@#127230		; _...
125534: 004737 127212       	call	@#127212		; _...
125540: 112737 000012 020600	movb	#12,@#20600		; _....!
125546: 012737 012172 012126	mov	#12172,@#12126		; _.z.V.
125554: 042737 000006 012130	bic	#6,@#12130		; _E..X.
125562: 012702 000012       	mov	#12,r2			; B...
125566: 004737 125620       	call	@#125620		; _..+
125572: 004737 125456       	call	@#125456		; _..+
125576: 105237 020600       	incb	@#20600			; ...!
125602: 077207              	sob	r2,25566		; .~
125604: 004737 125770       	call	@#125770		; _.x+
125610: 004737 126704       	call	@#126704		; _.D-
125614: 004737 127230       	call	@#127230		; _...
125620: 004737 127212       	call	@#127212		; _...
125624: 113701 020600       	movb	@#20600,r1		; A..!
125630: 162701 000012       	sub	#12,r1			; Ae..
125634: 006301              	asl	r1			; A.
125636: 063701 012120       	add	@#12120,r1		; AgP.
125642: 011100              	mov	(r1),r0			; @.
125644: 012701 012172       	mov	#12172,r1		; A.z.
125650: 010102              	mov	r1,r2			; B.
125652: 113761 020600 000000	movb	@#20600,0(r1)		; q..!..
125660: 122761 000111 000006	cmpb	#111,6(r1)		; q%I...
125666: 001404              	beq	25700			; ..
125670: 122761 000112 000006	cmpb	#112,6(r1)		; q%J...
125676: 001007              	bne	25716			; ..
125700: 010061 000010       	mov	r0,10(r1)		; 1...
125704: 116103 000002       	movb	2(r1),r3		; C...
125710: 042703 177400       	bic	#177400,r3		; CE..
125714: 060300              	add	r3,r0			; @`
125716: 062702 000012       	add	#12,r2			; Be..
125722: 005761 000010       	tst	10(r1)			; q...
125726: 001011              	bne	25752			; ..
125730: 116103 000002       	movb	2(r1),r3		; C...
125734: 042703 177400       	bic	#177400,r3		; CE..
125740: 060302              	add	r3,r2			; B`
125742: 032702 000001       	bit	#1,r2			; B5..
125746: 001401              	beq	25752			; ..
125750: 005202              	inc	r2			; ..
125752: 010201              	mov	r2,r1			; ..
125754: 126127 000000 000027	cmpb	0(r1),#27		; W,....
125762: 002733              	blt	25652			; [.
125764: 004737 127230       	call	@#127230		; _...
125770: 004737 127212       	call	@#127212		; _...
125774: 010546              	mov	r5,-(r6)		; f.
125776: 010446              	mov	r4,-(r6)		; &.
126000: 123727 020600 000023	cmpb	@#20600,#23		; W'.!..
126006: 001076              	bne	26204			; >.
126010: 023727 012160 177743	cmp	@#12160,#177743		; W'p.c.
126016: 001010              	bne	26040			; ..
126020: 013704 012122       	mov	@#12122,r4		; D.R.
126024: 062704 000012       	add	#12,r4			; De..
126030: 005304              	dec	r4			; D.
126032: 121427 177777       	cmpb	(r4),#177777		; .#..
126036: 001462              	beq	26204			; 2.
126040: 013704 012122       	mov	@#12122,r4		; D.R.
126044: 105714              	tstb	(r4)			; L.
126046: 100413              	bmi	26076			; ..
126050: 005001              	clr	r1			; ..
126052: 012700 000004       	mov	#4,r0			; @...
126056: 013704 012122       	mov	@#12122,r4		; D.R.
126062: 060104              	add	r1,r4			; D`
126064: 121427 000001       	cmpb	(r4),#1			; .#..
126070: 001045              	bne	26204			; %.
126072: 005201              	inc	r1			; ..
126074: 077010              	sob	r0,26056		; .~
126076: 012703 000000       	mov	#0,r3			; C...
126102: 012702 000001       	mov	#1,r2			; B...
126106: 012701 000000       	mov	#0,r1			; A...
126112: 012700 127254       	mov	#127254,r0		; @.,.
126116: 104403              	trap	3			; ..
126120: 000000              	halt				; ..
;
126122: 013703 012122       	mov	@#12122,r3		; C.R.
126126: 010305              	mov	r3,r5			; E.
126130: 005205              	inc	r5			; ..
126132: 011604              	mov	(r6),r4			; ..
126134: 016400 000012       	mov	12(r4),r0		; ....
126140: 010001              	mov	r0,r1			; ..
126142: 062701 000002       	add	#2,r1			; Ae..
126146: 011046              	mov	(r0),-(r6)		; &.
126150: 012702 000012       	mov	#12,r2			; B...
126154: 005302              	dec	r2			; B.
126156: 012120              	mov	(r1)+,(r0)+		; P.
126160: 112523              	movb	(r5)+,(r3)+		; S.
126162: 077203              	sob	r2,26156		; .~
126164: 012610              	mov	(r6)+,(r0)		; ..
126166: 011001              	mov	(r0),r1			; ..
126170: 012700 000074       	mov	#74,r0			; @.<.
126174: 105021              	clrb	(r1)+			; ..
126176: 077002              	sob	r0,26174		; .~
126200: 112713 177777       	movb	#177777,(r3)		; K...
126204: 023727 012160 177743	cmp	@#12160,#177743		; W'p.c.
126212: 001403              	beq	26222			; ..
126214: 112737 000023 020600	movb	#23,@#20600		; _....!
126222: 012604              	mov	(r6)+,r4		; ..
126224: 012605              	mov	(r6)+,r5		; ..
126226: 004737 127230       	call	@#127230		; _...
126232: 004737 127212       	call	@#127212		; _...
126236: 010346              	mov	r3,-(r6)		; f.
126240: 113700 020600       	movb	@#20600,r0		; @..!
126244: 162700 000012       	sub	#12,r0			; @e..
126250: 010046              	mov	r0,-(r6)		; &.
126252: 006300              	asl	r0			; @.
126254: 010046              	mov	r0,-(r6)		; &.
126256: 013700 012120       	mov	@#12120,r0		; @.P.
126262: 061600              	add	(r6),r0			; .c
126264: 010016              	mov	r0,(r6)			; ..
126266: 013702 012122       	mov	@#12122,r2		; B.R.
126272: 066602 000002       	add	2(r6),r2		; .m..
126276: 010266 000002       	mov	r2,2(r6)		; 6...
126302: 123727 020600 000023	cmpb	@#20600,#23		; W'.!..
126310: 001453              	beq	26440			; +.
126312: 005737 012124       	tst	@#12124			; _.T.
126316: 001050              	bne	26440			; (.
126320: 011001              	mov	(r0),r1			; ..
126322: 126127 000053 000061	cmpb	53(r1),#61		; W,+.1.
126330: 001413              	beq	26360			; ..
126332: 105761 000053       	tstb	53(r1)			; q.+.
126336: 001411              	beq	26362			; ..
126340: 105012              	clrb	(r2)			; ..
126342: 005302              	dec	r2			; B.
126344: 005702              	tst	r2			; B.
126346: 100405              	bmi	26362			; ..
126350: 162700 000002       	sub	#2,r0			; @e..
126354: 011001              	mov	(r0),r1			; ..
126356: 000761              	br	26322			; q.
;
126360: 105012              	clrb	(r2)			; ..
126362: 011600              	mov	(r6),r0			; ..
126364: 062700 000002       	add	#2,r0			; @e..
126370: 011001              	mov	(r0),r1			; ..
126372: 016602 000002       	mov	2(r6),r2		; ....
126376: 005202              	inc	r2			; ..
126400: 126127 000053 000061	cmpb	53(r1),#61		; W,+.1.
126406: 001415              	beq	26442			; ..
126410: 105761 000053       	tstb	53(r1)			; q.+.
126414: 001412              	beq	26442			; ..
126416: 105012              	clrb	(r2)			; ..
126420: 005202              	inc	r2			; ..
126422: 020327 000012       	cmp	r3,#12			; W ..
126426: 001405              	beq	26442			; ..
126430: 062700 000002       	add	#2,r0			; @e..
126434: 011001              	mov	(r0),r1			; ..
126436: 000760              	br	26400			; p.
;
126440: 105012              	clrb	(r2)			; ..
126442: 004737 126704       	call	@#126704		; _.D-
126446: 005726              	tst	(r6)+			; V.
126450: 005726              	tst	(r6)+			; V.
126452: 012603              	mov	(r6)+,r3		; ..
126454: 004737 127230       	call	@#127230		; _...
126460: 004737 127212       	call	@#127212		; _...
126464: 016001 000004       	mov	4(r0),r1		; ....
126470: 016065 000000 000044	mov	0(r0),44(r5)		; 5...$.
126476: 000403              	br	26506			; ..
;
126500: 004737 127212       	call	@#127212		; _...
126504: 010001              	mov	r0,r1			; ..
126506: 012700 000012       	mov	#12,r0			; @...
126512: 005003              	clr	r3			; ..
126514: 013702 012120       	mov	@#12120,r2		; B.P.
126520: 020122              	cmp	r1,(r2)+		; R 
126522: 001417              	beq	26562			; ..
126524: 005203              	inc	r3			; ..
126526: 077004              	sob	r0,26520		; .~
126530: 012703 000000       	mov	#0,r3			; C...
126534: 012702 000001       	mov	#1,r2			; B...
126540: 012701 000000       	mov	#0,r1			; A...
126544: 012700 127542       	mov	#127542,r0		; @.b/
126550: 104403              	trap	3			; ..
126552: 000000              	halt				; ..
;
126554: 112737 000001 011451	movb	#1,@#11451		; _...).
126562: 004737 127230       	call	@#127230		; _...
126566: 004737 127212       	call	@#127212		; _...
126572: 010446              	mov	r4,-(r6)		; &.
126574: 012700 000012       	mov	#12,r0			; @...
126600: 005001              	clr	r1			; ..
126602: 013704 012122       	mov	@#12122,r4		; D.R.
126606: 060104              	add	r1,r4			; D`
126610: 121427 000003       	cmpb	(r4),#3			; .#..
126614: 001430              	beq	26676			; ..
126616: 005201              	inc	r1			; ..
126620: 077010              	sob	r0,26602		; .~
126622: 000403              	br	26632			; ..
;
126624: 004737 127212       	call	@#127212		; _...
126630: 010446              	mov	r4,-(r6)		; &.
126632: 012700 000012       	mov	#12,r0			; @...
126636: 005001              	clr	r1			; ..
126640: 013704 012122       	mov	@#12122,r4		; D.R.
126644: 060104              	add	r1,r4			; D`
126646: 105714              	tstb	(r4)			; L.
126650: 001403              	beq	26660			; ..
126652: 005201              	inc	r1			; ..
126654: 077007              	sob	r0,26640		; .~
126656: 000407              	br	26676			; ..
;
126660: 006301              	asl	r1			; A.
126662: 063701 012120       	add	@#12120,r1		; AgP.
126666: 011103              	mov	(r1),r3			; C.
126670: 062766 000002 000010	add	#2,10(r6)		; ve....
126676: 012604              	mov	(r6)+,r4		; ..
126700: 004737 127230       	call	@#127230		; _...
126704: 004737 127212       	call	@#127212		; _...
126710: 010446              	mov	r4,-(r6)		; &.
126712: 010546              	mov	r5,-(r6)		; f.
126714: 012704 000012       	mov	#12,r4			; D...
126720: 005005              	clr	r5			; ..
126722: 013700 012122       	mov	@#12122,r0		; @.R.
126726: 060500              	add	r5,r0			; @a
126730: 121027 000002       	cmpb	(r0),#2			; ."..
126734: 001025              	bne	27010			; ..
126736: 010500              	mov	r5,r0			; @.
126740: 062700 000012       	add	#12,r0			; @e..
126744: 012702 000002       	mov	#2,r2			; B...
126750: 010001              	mov	r0,r1			; ..
126752: 012700 011416       	mov	#11416,r0		; @...
126756: 004737 110430       	call	@#110430		; _...
126762: 012703 000030       	mov	#30,r3			; C...
126766: 012702 000001       	mov	#1,r2			; B...
126772: 012701 000000       	mov	#0,r1			; A...
126776: 012700 011404       	mov	#11404,r0		; @...
127002: 104403              	trap	3			; ..
127004: 000000              	halt				; ..
;
127006: 000424              	br	27060			; ..
;
127010: 010500              	mov	r5,r0			; @.
127012: 062700 000012       	add	#12,r0			; @e..
127016: 012702 000002       	mov	#2,r2			; B...
127022: 010001              	mov	r0,r1			; ..
127024: 012700 011440       	mov	#11440,r0		; @. .
127030: 004737 110430       	call	@#110430		; _...
127034: 012703 000030       	mov	#30,r3			; C...
127040: 012702 000001       	mov	#1,r2			; B...
127044: 012701 000000       	mov	#0,r1			; A...
127050: 012700 011430       	mov	#11430,r0		; @...
127054: 104403              	trap	3			; ..
127056: 000000              	halt				; ..
;
127060: 005205              	inc	r5			; ..
127062: 077461              	sob	r4,26722		; 1.
127064: 012605              	mov	(r6)+,r5		; ..
127066: 012604              	mov	(r6)+,r4		; ..
127070: 004737 127230       	call	@#127230		; _...
127074: 005077 004504       	clr	@33604			; ?.D.
127100: 012703 000074       	mov	#74,r3			; C.<.
127104: 012702 000001       	mov	#1,r2			; B...
127110: 012701 000000       	mov	#0,r1			; A...
127114: 012700 130020       	mov	#130020,r0		; @..0
127120: 104403              	trap	3			; ..
127122: 000000              	halt				; ..
;
127124: 012703 000000       	mov	#0,r3			; C...
127130: 012702 000000       	mov	#0,r2			; B...
127134: 012701 000000       	mov	#0,r1			; A...
127140: 012700 133604       	mov	#133604,r0		; @..7
127144: 104403              	trap	3			; ..
127146: 000000              	halt				; ..
;
127150: 104407              	trap	7			; ..
127152: 013701 133604       	mov	@#133604,r1		; A..7
127156: 012700 133576       	mov	#133576,r0		; @.~7
127162: 012702 000006       	mov	#6,r2			; B...
127166: 122120              	cmpb	(r1)+,(r0)+		; P$
127170: 001004              	bne	27202			; ..
127172: 077203              	sob	r2,27166		; .~
127174: 005037 013636       	clr	@#13636			; ....
127200: 000403              	br	27210			; ..
;
127202: 012737 000001 013636	mov	#1,@#13636		; _.....
127210: 000207              	ret				; ..
;
127212: 010146              	mov	r1,-(r6)		; f.
127214: 010046              	mov	r0,-(r6)		; &.
127216: 016646 000004       	mov	4(r6),-(r6)		; &...
127222: 010266 000006       	mov	r2,6(r6)		; 6...
127226: 000207              	ret				; ..
;
127230: 005726              	tst	(r6)+			; V.
127232: 012600              	mov	(r6)+,r0		; ..
127234: 012601              	mov	(r6)+,r1		; ..
127236: 012602              	mov	(r6)+,r2		; ..
127240: 000207              	ret				; ..
;
127242: 055433              	bis	@-(r4),@(r3)+		; .[
127244: 030061 031073       	bit	r0,31073(r1)		; 10;2
127250: 071060 000000       	div	0(r0),r0		; 0r..
127254: 042433              	bic	(r4)+,@(r3)+		; .E
127256: 042433              	bic	(r4)+,@(r3)+		; .E
127260: 000000              	halt				; ..
;
127262: 033433              	bit	@(r4)+,@(r3)+		; .7
127264: 055433              	bis	@-(r4),@(r3)+		; .[
127266: 031062 032073       	bit	(r0),32073(r2)		; 22;4
127272: 044060 055433       	bic	-(r0),55433(r0)		; 0H.[
127276: 045461 055433       	bic	@-(r4),55433(r1)	; 1K.[
127302: 031062 030473       	bit	(r0),30473(r2)		; 22;1
127306: 020110              	cmp	r1,(r0)			; H 
127310: 046111 042514       	bic	42514(r1),(r1)		; ILLE
127314: 040507              	bic	r5,r7			; GA
127316: 020114              	cmp	r1,(r4)			; L 
127320: 052123              	bis	(r1)+,(r3)+		; ST
127322: 052101              	bis	(r1)+,r1		; AT
127324: 051525              	bis	(r5),(r5)+		; US
127326: 051040              	bis	(r0),-(r0)		;  R
127330: 052105              	bis	(r1)+,r5		; ET
127332: 051125              	bis	(r1),(r5)+		; UR
127334: 042516              	bic	(r5)+,(r6)		; NE
127336: 020104              	cmp	r1,r4			; D 
127340: 051106              	bis	(r1),r6			; FR
127342: 046517 043040       	bic	43040(r5),(r7)		; OM F
127346: 051117              	bis	(r1),(r7)		; OR
127350: 051515              	bis	(r5),(r5)		; MS
127352: 015440              	mov	@-(r4),-(r0)		;  .
127354: 000070              	invalid opcode			; 8.
127356: 033433              	bit	@(r4)+,@(r3)+		; .7
127360: 055433              	bis	@-(r4),@(r3)+		; .[
127362: 031062 032073       	bit	(r0),32073(r2)		; 22;4
127366: 044060 055433       	bic	-(r0),55433(r0)		; 0H.[
127372: 045461 055433       	bic	@-(r4),55433(r1)	; 1K.[
127376: 031062 030473       	bit	(r0),30473(r2)		; 22;1
127402: 020110              	cmp	r1,(r0)			; H 
127404: 047111 040526       	bic	@40526(r1),(r1)		; INVA
127410: 044514              	bic	-(r5),(r4)		; LI
127412: 020104              	cmp	r1,r4			; D 
127414: 042504              	bic	(r5)+,r4		; DE
127416: 041523              	bic	(r5),(r3)+		; SC
127420: 044522              	bic	-(r5),(r2)+		; RI
127422: 052120              	bis	(r1)+,(r0)+		; PT
127424: 051117              	bis	(r1),(r7)		; OR
127426: 052040              	bis	(r0)+,-(r0)		;  T
127430: 041101              	bic	(r1),r1			; AB
127432: 042514              	bic	(r5)+,(r4)		; LE
127434: 015440              	mov	@-(r4),-(r0)		;  .
127436: 000070              	invalid opcode			; 8.
127440: 033433              	bit	@(r4)+,@(r3)+		; .7
127442: 055433              	bis	@-(r4),@(r3)+		; .[
127444: 031062 032073       	bit	(r0),32073(r2)		; 22;4
127450: 044060 055433       	bic	-(r0),55433(r0)		; 0H.[
127454: 045461 055433       	bic	@-(r4),55433(r1)	; 1K.[
127460: 031062 030473       	bit	(r0),30473(r2)		; 22;1
127464: 020110              	cmp	r1,(r0)			; H 
127466: 047125 053101       	bic	@53101(r1),(r5)+	; UNAV
127472: 046101 040511       	bic	40511(r1),r1		; ALIA
127476: 046102 020105       	bic	20105(r1),r2		; BLE 
127502: 040524              	bic	r5,(r4)+		; TA
127504: 046102 020105       	bic	20105(r1),r2		; BLE 
127510: 052123              	bis	(r1)+,(r3)+		; ST
127512: 051117              	bis	(r1),(r7)		; OR
127514: 043501              	bic	@(r5)+,r1		; AG
127516: 020105              	cmp	r1,r5			; E 
127520: 047111 043040       	bic	@43040(r1),(r1)		; IN F
127524: 051117              	bis	(r1),(r7)		; OR
127526: 020115              	cmp	r1,(r5)			; M 
127530: 051104              	bis	(r1),r4			; DR
127532: 053111              	bis	@(r1)+,(r1)		; IV
127534: 051105              	bis	(r1),r5			; ER
127536: 015440              	mov	@-(r4),-(r0)		;  .
127540: 000070              	invalid opcode			; 8.
127542: 033433              	bit	@(r4)+,@(r3)+		; .7
127544: 055433              	bis	@-(r4),@(r3)+		; .[
127546: 031062 032073       	bit	(r0),32073(r2)		; 22;4
127552: 044060 055433       	bic	-(r0),55433(r0)		; 0H.[
127556: 045461 055433       	bic	@-(r4),55433(r1)	; 1K.[
127562: 031062 030473       	bit	(r0),30473(r2)		; 22;1
127566: 020110              	cmp	r1,(r0)			; H 
127570: 052502              	bis	(r5)+,r2		; BU
127572: 043106              	bic	@(r1)+,r6		; FF
127574: 051105              	bis	(r1),r5			; ER
127576: 040440              	bic	r4,-(r0)		;  A
127600: 042104              	bic	(r1)+,r4		; DD
127602: 042522              	bic	(r5)+,(r2)+		; RE
127604: 051523              	bis	(r5),(r3)+		; SS
127606: 047040 052117       	bic	@52117(r0),-(r0)	;  NOT
127612: 043040              	bic	@(r0)+,-(r0)		;  F
127614: 052517              	bis	(r5)+,(r7)		; OU
127616: 042116              	bic	(r1)+,(r6)		; ND
127620: 044440              	bic	-(r4),-(r0)		;  I
127622: 020116              	cmp	r1,(r6)			; N 
127624: 047520 047111       	bic	@47111(r5),(r0)+	; POIN
127630: 042524              	bic	(r5)+,(r4)+		; TE
127632: 020122              	cmp	r1,(r2)+		; R 
127634: 040524              	bic	r5,(r4)+		; TA
127636: 046102 020105       	bic	20105(r1),r2		; BLE 
127642: 034033              	bit	-(r0),@(r3)+		; .8
127644: 000000              	halt				; ..
;
127646: 033433              	bit	@(r4)+,@(r3)+		; .7
127650: 055433              	bis	@-(r4),@(r3)+		; .[
127652: 031062 032073       	bit	(r0),32073(r2)		; 22;4
127656: 044060 055433       	bic	-(r0),55433(r0)		; 0H.[
127662: 045461 055433       	bic	@-(r4),55433(r1)	; 1K.[
127666: 031062 030473       	bit	(r0),30473(r2)		; 22;1
127672: 020110              	cmp	r1,(r0)			; H 
127674: 040527 052111       	bic	r5,#52111		; WAIT
127700: 047111 020107       	bic	@20107(r1),(r1)		; ING 
127704: 047506 020122       	bic	@20122(r5),r6		; FOR 
127710: 040523              	bic	r5,(r3)+		; SA
127712: 020103              	cmp	r1,r3			; C 
127714: 042522              	bic	(r5)+,(r2)+		; RE
127716: 050123              	bis	r1,(r3)+		; SP
127720: 047117 042523       	bic	@42523(r1),(r7)		; ONSE
127724: 015440              	mov	@-(r4),-(r0)		;  .
127726: 000070              	invalid opcode			; 8.
127730: 033433              	bit	@(r4)+,@(r3)+		; .7
127732: 055433              	bis	@-(r4),@(r3)+		; .[
127734: 031062 032073       	bit	(r0),32073(r2)		; 22;4
127740: 044060 055433       	bic	-(r0),55433(r0)		; 0H.[
127744: 045461 034033       	bic	@-(r4),34033(r1)	; 1K.8
127750: 000000              	halt				; ..
;
127752: 033433              	bit	@(r4)+,@(r3)+		; .7
127754: 055433              	bis	@-(r4),@(r3)+		; .[
127756: 035461 066465       	bit	@-(r4),66465(r1)	; 1;5m
127762: 055433              	bis	@-(r4),@(r3)+		; .[
127764: 000000              	halt				; ..
;
127766: 030473 042510       	bit	r4,@42510(r3)		; ;1HE
127772: 034033              	bit	-(r0),@(r3)+		; .8
127774: 000000              	halt				; ..
;
127776: 033433              	bit	@(r4)+,@(r3)+		; .7
130000: 055433              	bis	@-(r4),@(r3)+		; .[
130002: 066460 055433 000000	add	55433(r4),0(r0)		; 0m.[..
130010: 030473 020110       	bit	r4,@20110(r3)		; ;1H 
130014: 034033              	bit	-(r0),@(r3)+		; .8
130016: 000000              	halt				; ..
;
130020: 055433              	bis	@-(r4),@(r3)+		; .[
130022: 045062 055433       	bic	@-(r0),55433(r2)	; 2J.[
130026: 066460 055433 035461	add	55433(r4),35461(r0)	; 0m.[1;
130034: 044061 047105       	bic	-(r0),47105(r1)		; 1HEN
130040: 042524              	bic	(r5)+,(r4)+		; TE
130042: 020122              	cmp	r1,(r2)+		; R 
130044: 040520              	bic	r5,(r0)+		; PA
130046: 051523              	bis	(r5),(r3)+		; SS
130050: 047527 042122 000000	bic	@42122(r5),#0		; WORD..
130056: 005037 012060       	clr	@#12060			; ..0.
130062: 010537 011454       	mov	r5,@#11454		; _.,.
130066: 162705 002000       	sub	#2000,r5		; Ee..
130072: 005000              	clr	r0			; ..
130074: 162705 000100       	sub	#100,r5			; Ee@.
130100: 002402              	blt	30106			; ..
130102: 005200              	inc	r0			; ..
130104: 000773              	br	30074			; {.
;
130106: 010037 011456       	mov	r0,@#11456		; ....
130112: 005037 011460       	clr	@#11460			; ..0.
130116: 012700 000006       	mov	#6,r0			; @...
130122: 104401              	trap	1			; ..
130124: 004737 130632       	call	@#130632		; _..1
130130: 103372              	bcc	30116			; z.
130132: 022700 000040       	cmp	#40,r0			; @% .
130136: 001406              	beq	30154			; ..
130140: 113737 011461 011460	movb	@#11461,@#11460		; _.1.0.
130146: 110037 011461       	movb	r0,@#11461		; ..1.
130152: 000764              	br	30124			; t.
;
130154: 012700 011466       	mov	#11466,r0		; @.6.
130160: 005020              	clr	(r0)+			; ..
130162: 022700 011476       	cmp	#11476,r0		; @%>.
130166: 002374              	bge	30160			; |.
130170: 005037 011462       	clr	@#11462			; ..2.
130174: 012737 011466 011464	mov	#11466,@#11464		; _.6.4.
130202: 013700 011460       	mov	@#11460,r0		; @.0.
130206: 012701 130324       	mov	#130324,r1		; A.T0
130212: 011102              	mov	(r1),r2			; B.
130214: 001403              	beq	30224			; ..
130216: 022100              	cmp	(r1)+,r0		; @$
130220: 001444              	beq	30332			; $.
130222: 000773              	br	30212			; {.
;
130224: 004737 130712       	call	@#130712		; _.J1
130230: 013703 011464       	mov	@#11464,r3		; C.4.
130234: 022700 000015       	cmp	#15,r0			; @%..
130240: 001426              	beq	30316			; ..
130242: 022700 000056       	cmp	#56,r0			; @%..
130246: 001423              	beq	30316			; ..
130250: 010123              	mov	r1,(r3)+		; S.
130252: 010337 011464       	mov	r3,@#11464		; _.4.
130256: 005237 011462       	inc	@#11462			; ..2.
130262: 022737 000010 011462	cmp	#10,@#11462		; _%..2.
130270: 003541              	ble	30574			; a.
130272: 022700 000015       	cmp	#15,r0			; @%..
130276: 001474              	beq	30470			; <.
130300: 022700 000056       	cmp	#56,r0			; @%..
130304: 001471              	beq	30470			; 9.
130306: 022700 000054       	cmp	#54,r0			; @%,.
130312: 001744              	beq	30224			; d.
130314: 000465              	br	30470			; 5.
;
130316: 005702              	tst	r2			; B.
130320: 001353              	bne	30250			; k.
130322: 000462              	br	30470			; 2.
;
130324: 040504              	bic	r5,r4			; DA
130326: 044524              	bic	-(r5),(r4)+		; TI
130330: 000000              	halt				; ..
;
130332: 004737 131000       	call	@#131000		; _..2
130336: 013703 011464       	mov	@#11464,r3		; C.4.
130342: 022700 000056       	cmp	#56,r0			; @%..
130346: 001445              	beq	30462			; %.
130350: 022700 000015       	cmp	#15,r0			; @%..
130354: 001442              	beq	30462			; ".
130356: 010123              	mov	r1,(r3)+		; S.
130360: 010337 011464       	mov	r3,@#11464		; _.4.
130364: 005237 011462       	inc	@#11462			; ..2.
130370: 022737 000010 011462	cmp	#10,@#11462		; _%..2.
130376: 003476              	ble	30574			; >.
130400: 022700 000015       	cmp	#15,r0			; @%..
130404: 001431              	beq	30470			; ..
130406: 022700 000056       	cmp	#56,r0			; @%..
130412: 001426              	beq	30470			; ..
130414: 022700 000054       	cmp	#54,r0			; @%,.
130420: 001744              	beq	30332			; d.
130422: 022700 000057       	cmp	#57,r0			; @%/.
130426: 001005              	bne	30442			; ..
130430: 023737 011460 130324	cmp	@#11460,@#130324	; _'0.T0
130436: 001056              	bne	30574			; ..
130440: 000734              	br	30332			; \.
;
130442: 022700 000072       	cmp	#72,r0			; @%:.
130446: 001052              	bne	30574			; *.
130450: 023737 011460 130326	cmp	@#11460,@#130326	; _'0.V0
130456: 001046              	bne	30574			; &.
130460: 000724              	br	30332			; T.
;
130462: 005702              	tst	r2			; B.
130464: 001334              	bne	30356			; \.
130466: 000400              	br	30470			; ..
;
130470: 013700 011460       	mov	@#11460,r0		; @.0.
130474: 012701 130522       	mov	#130522,r1		; A.R1
130500: 021100              	cmp	(r1),r0			; @"
130502: 001405              	beq	30516			; ..
130504: 062701 000004       	add	#4,r1			; Ae..
130510: 005711              	tst	(r1)			; I.
130512: 001430              	beq	30574			; ..
130514: 000771              	br	30500			; y.
;
130516: 000171 000002       	jmp	@2(r1)			; y...
;
130522: 053511              	bis	@(r5)+,(r1)		; IW
130524: 131104              	bitb	(r1),r4			; D2
130526: 053504              	bis	@(r5)+,r4		; DW
130530: 131412              	bitb	(r4),(r2)		; .3
130532: 041104              	bic	(r1),r4			; DB
130534: 131606              	bitb	(r6),r6			; .3
130536: 053523              	bis	@(r5)+,(r3)+		; SW
130540: 131776 040504       	bitb	(r7),@40504(r6)		; ~3DA
130544: 132144              	bitb	(r1)+,-(r4)		; d4
130546: 044524              	bic	-(r5),(r4)+		; TI
130550: 132454              	bitb	(r4)+,@-(r4)		; ,5
130552: 052104              	bis	(r1)+,r4		; DT
130554: 132710 042120       	bitb	#42120,(r0)		; H5PD
130560: 132770 041111 133206	bitb	#41111,@133206(r0)	; x5IB.6
130566: 041123              	bic	(r1),(r3)+		; SB
130570: 133524              	bitb	@(r5)+,(r4)+		; T7
130572: 000000              	halt				; ..
;
130574: 012700 130624       	mov	#130624,r0		; @..1
130600: 005037 001742       	clr	@#1742			; ..b.
130604: 005037 011460       	clr	@#11460			; ..0.
130610: 004737 105372       	call	@#105372		; _.z.
130614: 005037 012060       	clr	@#12060			; ..0.
130620: 000137 130116       	jmp	@#130116		; _.N0
;
130624: 005015              	clr	(r5)			; ..
130626: 025040              	cmp	@-(r0),-(r0)		;  *
130630: 000000              	halt				; ..
;
130632: 013700 007002       	mov	@#7002,r0		; @...
130636: 023700 007000       	cmp	@#7000,r0		; @'..
130642: 001421              	beq	30706			; ..
130644: 112037 011506       	movb	(r0)+,@#11506		; ..F.
130650: 022700 007177       	cmp	#7177,r0		; @%..
130654: 002002              	bge	30662			; ..
130656: 012700 007004       	mov	#7004,r0		; @...
130662: 010037 007002       	mov	r0,@#7002		; ....
130666: 012700 011506       	mov	#11506,r0		; @.F.
130672: 004737 105372       	call	@#105372		; _.z.
130676: 013700 011506       	mov	@#11506,r0		; @.F.
130702: 000261              	sec				; 1.
130704: 000207              	ret				; ..
;
130706: 000241              	clc				; !.
130710: 000207              	ret				; ..
;
130712: 005001              	clr	r1			; ..
130714: 005002              	clr	r2			; ..
130716: 004737 130632       	call	@#130632		; _..1
130722: 103404              	bcs	30734			; ..
130724: 012700 000006       	mov	#6,r0			; @...
130730: 104401              	trap	1			; ..
130732: 000771              	br	30716			; y.
;
130734: 022700 000060       	cmp	#60,r0			; @%0.
130740: 003016              	bgt	30776			; ..
130742: 022700 000067       	cmp	#67,r0			; @%7.
130746: 002413              	blt	30776			; ..
130750: 162700 000060       	sub	#60,r0			; @e0.
130754: 012746 000003       	mov	#3,-(r6)		; f...
130760: 072126              	ash	(r6)+,r1		; Vt
130762: 042701 000007       	bic	#7,r1			; AE..
130766: 012702 000001       	mov	#1,r2			; B...
130772: 060001              	add	r0,r1			; .`
130774: 000750              	br	30716			; h.
;
130776: 000207              	ret				; ..
;
131000: 005001              	clr	r1			; ..
131002: 005002              	clr	r2			; ..
131004: 004737 130632       	call	@#130632		; _..1
131010: 103404              	bcs	31022			; ..
131012: 012700 000006       	mov	#6,r0			; @...
131016: 104401              	trap	1			; ..
131020: 000771              	br	31004			; y.
;
131022: 022700 000060       	cmp	#60,r0			; @%0.
131026: 003025              	bgt	31102			; ..
131030: 022700 000071       	cmp	#71,r0			; @%9.
131034: 002422              	blt	31102			; ..
131036: 162700 000060       	sub	#60,r0			; @e0.
131042: 012746 000001       	mov	#1,-(r6)		; f...
131046: 072126              	ash	(r6)+,r1		; Vt
131050: 010103              	mov	r1,r3			; C.
131052: 012746 000002       	mov	#2,-(r6)		; f...
131056: 072126              	ash	(r6)+,r1		; Vt
131060: 042701 000007       	bic	#7,r1			; AE..
131064: 042703 000001       	bic	#1,r3			; CE..
131070: 060301              	add	r3,r1			; A`
131072: 012702 000001       	mov	#1,r2			; B...
131076: 060001              	add	r0,r1			; .`
131100: 000741              	br	31004			; a.
;
131102: 000207              	ret				; ..
;
131104: 023727 011462 000001	cmp	@#11462,#1		; W'2...
131112: 001423              	beq	31162			; ..
131114: 023727 011462 000002	cmp	@#11462,#2		; W'2...
131122: 001401              	beq	31126			; ..
131124: 000623              	br	30574			; ..
;
131126: 023727 011466 000017	cmp	@#11466,#17		; W'6...
131134: 003217              	bgt	30574			; ..
131136: 013700 011466       	mov	@#11466,r0		; @.6.
131142: 060000              	add	r0,r0			; .`
131144: 062700 012060       	add	#12060,r0		; @e0.
131150: 011037 012060       	mov	(r0),@#12060		; ..0.
131154: 013737 011470 011466	mov	@#11470,@#11466		; _.8.6.
131162: 012700 011510       	mov	#11510,r0		; @.H.
131166: 112720 000015       	movb	#15,(r0)+		; P...
131172: 112720 000012       	movb	#12,(r0)+		; P...
131176: 012702 000006       	mov	#6,r2			; B...
131202: 013701 011466       	mov	@#11466,r1		; A.6.
131206: 004737 110366       	call	@#110366		; _.v.
131212: 060200              	add	r2,r0			; .`
131214: 112720 000040       	movb	#40,(r0)+		; P. .
131220: 112720 000040       	movb	#40,(r0)+		; P. .
131224: 063701 012060       	add	@#12060,r1		; Ag0.
131230: 004737 110366       	call	@#110366		; _.v.
131234: 060200              	add	r2,r0			; .`
131236: 112720 000040       	movb	#40,(r0)+		; P. .
131242: 112720 000040       	movb	#40,(r0)+		; P. .
131246: 011101              	mov	(r1),r1			; A.
131250: 004737 110366       	call	@#110366		; _.v.
131254: 060200              	add	r2,r0			; .`
131256: 112720 000040       	movb	#40,(r0)+		; P. .
131262: 112720 000040       	movb	#40,(r0)+		; P. .
131266: 112710 000000       	movb	#0,(r0)			; H...
131272: 012700 011510       	mov	#11510,r0		; @.H.
131276: 004737 105372       	call	@#105372		; _.z.
131302: 004737 130712       	call	@#130712		; _.J1
131306: 005702              	tst	r2			; B.
131310: 001421              	beq	31354			; ..
131312: 022700 000056       	cmp	#56,r0			; @%..
131316: 001411              	beq	31342			; ..
131320: 022700 000054       	cmp	#54,r0			; @%,.
131324: 001406              	beq	31342			; ..
131326: 022700 000015       	cmp	#15,r0			; @%..
131332: 001403              	beq	31342			; ..
131334: 022700 000012       	cmp	#12,r0			; @%..
131340: 001005              	bne	31354			; ..
131342: 013704 011466       	mov	@#11466,r4		; D.6.
131346: 063704 012060       	add	@#12060,r4		; Dg0.
131352: 010114              	mov	r1,(r4)			; L.
131354: 022700 000056       	cmp	#56,r0			; @%..
131360: 001002              	bne	31366			; ..
131362: 000137 130574       	jmp	@#130574		; _.|1
;
131366: 022700 000054       	cmp	#54,r0			; @%,.
131372: 001403              	beq	31402			; ..
131374: 022700 000012       	cmp	#12,r0			; @%..
131400: 001370              	bne	31362			; x.
131402: 062737 000002 011466	add	#2,@#11466		; _e..6.
131410: 000664              	br	31162			; 4.
;
131412: 005037 012046       	clr	@#12046			; ..&.
131416: 023727 011462 000002	cmp	@#11462,#2		; W'2...
131424: 001407              	beq	31444			; ..
131426: 005737 012046       	tst	@#12046			; _.&.
131432: 001402              	beq	31440			; ..
131434: 000137 133032       	jmp	@#133032		; _..6
;
131440: 000137 130574       	jmp	@#130574		; _.|1
;
131444: 013705 011466       	mov	@#11466,r5		; E.6.
131450: 042705 000017       	bic	#17,r5			; EE..
131454: 013704 011470       	mov	@#11470,r4		; D.8.
131460: 052704 000017       	bis	#17,r4			; DU..
131464: 020504              	cmp	r5,r4			; D!
131466: 101357              	bhi	31426			; o.
131470: 010537 012052       	mov	r5,@#12052		; _.*.
131474: 005737 001742       	tst	@#1742			; _.b.
131500: 001357              	bne	31440			; o.
131502: 010501              	mov	r5,r1			; A.
131504: 012702 000006       	mov	#6,r2			; B...
131510: 012700 011534       	mov	#11534,r0		; @.\.
131514: 012703 000050       	mov	#50,r3			; C.(.
131520: 012720 020040       	mov	#20040,(r0)+		; P.  
131524: 077303              	sob	r3,31520		; C~
131526: 012700 011534       	mov	#11534,r0		; @.\.
131532: 012720 006412       	mov	#6412,(r0)+		; P...
131536: 012703 000010       	mov	#10,r3			; C...
131542: 004737 110366       	call	@#110366		; _.v.
131546: 062700 000010       	add	#10,r0			; @e..
131552: 005703              	tst	r3			; C.
131554: 001403              	beq	31564			; ..
131556: 012501              	mov	(r5)+,r1		; A.
131560: 005303              	dec	r3			; C.
131562: 000767              	br	31542			; w.
;
131564: 112710 000000       	movb	#0,(r0)			; H...
131570: 012700 011534       	mov	#11534,r0		; @.\.
131574: 004737 105372       	call	@#105372		; _.z.
131600: 004737 133066       	call	@#133066		; _.66
131604: 000727              	br	31464			; W.
;
131606: 023727 011462 000002	cmp	@#11462,#2		; W'2...
131614: 001402              	beq	31622			; ..
131616: 000137 130574       	jmp	@#130574		; _.|1
;
131622: 013705 011466       	mov	@#11466,r5		; E.6.
131626: 042705 000017       	bic	#17,r5			; EE..
131632: 013704 011470       	mov	@#11470,r4		; D.8.
131636: 052704 000017       	bis	#17,r4			; DU..
131642: 020504              	cmp	r5,r4			; D!
131644: 101364              	bhi	31616			; t.
131646: 010537 012052       	mov	r5,@#12052		; _.*.
131652: 005737 001742       	tst	@#1742			; _.b.
131656: 001357              	bne	31616			; o.
131660: 010501              	mov	r5,r1			; A.
131662: 012702 000006       	mov	#6,r2			; B...
131666: 012700 011654       	mov	#11654,r0		; @.,.
131672: 012703 000050       	mov	#50,r3			; C.(.
131676: 012720 020040       	mov	#20040,(r0)+		; P.  
131702: 077303              	sob	r3,31676		; C~
131704: 012700 011654       	mov	#11654,r0		; @.,.
131710: 012720 006412       	mov	#6412,(r0)+		; P...
131714: 004737 110366       	call	@#110366		; _.v.
131720: 062700 000010       	add	#10,r0			; @e..
131724: 012702 000003       	mov	#3,r2			; B...
131730: 012703 000020       	mov	#20,r3			; C...
131734: 112501              	movb	(r5)+,r1		; A.
131736: 042701 177400       	bic	#177400,r1		; AE..
131742: 004737 110366       	call	@#110366		; _.v.
131746: 062700 000004       	add	#4,r0			; @e..
131752: 077310              	sob	r3,31734		; H~
131754: 112710 000000       	movb	#0,(r0)			; H...
131760: 012700 011654       	mov	#11654,r0		; @.,.
131764: 004737 105372       	call	@#105372		; _.z.
131770: 004737 133066       	call	@#133066		; _.66
131774: 000722              	br	31642			; R.
;
131776: 023727 011462 000004	cmp	@#11462,#4		; W'2...
132004: 001402              	beq	32012			; ..
132006: 000137 130574       	jmp	@#130574		; _.|1
;
132012: 013703 011470       	mov	@#11470,r3		; C.8.
132016: 005103              	com	r3			; C.
132020: 013704 011472       	mov	@#11472,r4		; D.:.
132024: 013705 011474       	mov	@#11474,r5		; E.<.
132030: 020405              	cmp	r4,r5			; .!
132032: 103401              	bcs	32036			; ..
132034: 000764              	br	32006			; t.
;
132036: 011400              	mov	(r4),r0			; ..
132040: 040300              	bic	r3,r0			; @@
132042: 020037 011466       	cmp	r0,@#11466		; . 6.
132046: 001031              	bne	32132			; ..
132050: 012700 011774       	mov	#11774,r0		; @.|.
132054: 012720 006412       	mov	#6412,(r0)+		; P...
132060: 012702 000006       	mov	#6,r2			; B...
132064: 010401              	mov	r4,r1			; ..
132066: 004737 110366       	call	@#110366		; _.v.
132072: 060200              	add	r2,r0			; .`
132074: 012720 020040       	mov	#20040,(r0)+		; P.  
132100: 011101              	mov	(r1),r1			; A.
132102: 004737 110366       	call	@#110366		; _.v.
132106: 060200              	add	r2,r0			; .`
132110: 012710 000000       	mov	#0,(r0)			; H...
132114: 012700 011774       	mov	#11774,r0		; @.|.
132120: 004737 105372       	call	@#105372		; _.z.
132124: 012700 000030       	mov	#30,r0			; @...
132130: 104401              	trap	1			; ..
132132: 005737 001742       	tst	@#1742			; _.b.
132136: 001323              	bne	32006			; S.
132140: 005724              	tst	(r4)+			; T.
132142: 000732              	br	32030			; Z.
;
132144: 023727 011462 000003	cmp	@#11462,#3		; W'2...
132152: 001402              	beq	32160			; ..
132154: 000137 130574       	jmp	@#130574		; _.|1
;
132160: 013700 011466       	mov	@#11466,r0		; @.6.
132164: 001773              	beq	32154			; {.
132166: 020027 000014       	cmp	r0,#14			; . ..
132172: 003370              	bgt	32154			; x.
132174: 013701 011470       	mov	@#11470,r1		; A.8.
132200: 001765              	beq	32154			; u.
132202: 013702 011472       	mov	@#11472,r2		; B.:.
132206: 022702 003675       	cmp	#3675,r2		; B%=.
132212: 003360              	bgt	32154			; p.
132214: 020227 004063       	cmp	r2,#4063		; . 3.
132220: 003355              	bgt	32154			; m.
132222: 022701 000035       	cmp	#35,r1			; A%..
132226: 003032              	bgt	32314			; ..
132230: 022700 000002       	cmp	#2,r0			; @%..
132234: 001012              	bne	32262			; ..
132236: 022701 000035       	cmp	#35,r1			; A%..
132242: 001344              	bne	32154			; d.
132244: 032702 000003       	bit	#3,r2			; B5..
132250: 001741              	beq	32154			; a.
132252: 022702 003720       	cmp	#3720,r2		; B%P.
132256: 001736              	beq	32154			; ^.
132260: 000415              	br	32314			; ..
;
132262: 022701 000036       	cmp	#36,r1			; A%..
132266: 002012              	bge	32314			; ..
132270: 022700 000007       	cmp	#7,r0			; @%..
132274: 002004              	bge	32306			; ..
132276: 032700 000001       	bit	#1,r0			; @5..
132302: 001404              	beq	32314			; ..
132304: 000723              	br	32154			; S.
;
132306: 032700 000001       	bit	#1,r0			; @5..
132312: 001720              	beq	32154			; P.
132314: 010037 001664       	mov	r0,@#1664		; ..4.
132320: 010137 001666       	mov	r1,@#1666		; _.6.
132324: 010237 001662       	mov	r2,@#1662		; ..2.
132330: 005737 001634       	tst	@#1634			; _...
132334: 001307              	bne	32154			; G.
132336: 010037 001646       	mov	r0,@#1646		; ..&.
132342: 010137 001650       	mov	r1,@#1650		; _.(.
132346: 010237 001644       	mov	r2,@#1644		; ..$.
132352: 012702 000002       	mov	#2,r2			; B...
132356: 013701 001646       	mov	@#1646,r1		; A.&.
132362: 012700 001634       	mov	#1634,r0		; @...
132366: 004737 110430       	call	@#110430		; _...
132372: 060200              	add	r2,r0			; .`
132374: 112720 000057       	movb	#57,(r0)+		; P./.
132400: 013701 001650       	mov	@#1650,r1		; A.(.
132404: 004737 110430       	call	@#110430		; _...
132410: 060200              	add	r2,r0			; .`
132412: 112720 000057       	movb	#57,(r0)+		; P./.
132416: 013701 001644       	mov	@#1644,r1		; A.$.
132422: 004737 110430       	call	@#110430		; _...
132426: 012700 001620       	mov	#1620,r0		; @...
132432: 005001              	clr	r1			; ..
132434: 062001              	add	(r0)+,r1		; .d
132436: 022700 001660       	cmp	#1660,r0		; @%0.
132442: 001374              	bne	32434			; |.
132444: 005401              	neg	r1			; ..
132446: 010137 001660       	mov	r1,@#1660		; _.0.
132452: 000640              	br	32154			;  .
;
132454: 023727 011462 000003	cmp	@#11462,#3		; W'2...
132462: 001402              	beq	32470			; ..
132464: 000137 130574       	jmp	@#130574		; _.|1
;
132470: 013700 011466       	mov	@#11466,r0		; @.6.
132474: 022700 000030       	cmp	#30,r0			; @%..
132500: 003771              	ble	32464			; y.
132502: 013701 011470       	mov	@#11470,r1		; A.8.
132506: 022701 000074       	cmp	#74,r1			; A%<.
132512: 003764              	ble	32464			; t.
132514: 013702 011472       	mov	@#11472,r2		; B.:.
132520: 022702 000074       	cmp	#74,r2			; B%<.
132524: 003757              	ble	32464			; o.
132526: 010037 001670       	mov	r0,@#1670		; ..8.
132532: 010137 001672       	mov	r1,@#1672		; _.:.
132536: 010237 001674       	mov	r2,@#1674		; ..<.
132542: 010004              	mov	r0,r4			; ..
132544: 012746 000074       	mov	#74,-(r6)		; f.<.
132550: 070426              	mul	(r6)+,r4		; .q
132552: 060105              	add	r1,r5			; E`
132554: 010504              	mov	r5,r4			; D.
132556: 012746 007020       	mov	#7020,-(r6)		; f...
132562: 070426              	mul	(r6)+,r4		; .q
132564: 010203              	mov	r2,r3			; ..
132566: 012746 000074       	mov	#74,-(r6)		; f.<.
132572: 070326              	mul	(r6)+,r3		; Vp
132574: 060305              	add	r3,r5			; E`
132576: 005504              	adc	r4			; D.
132600: 010437 001746       	mov	r4,@#1746		; ..f.
132604: 010537 001750       	mov	r5,@#1750		; _.h.
132610: 005737 001624       	tst	@#1624			; _...
132614: 001323              	bne	32464			; S.
132616: 010037 001652       	mov	r0,@#1652		; ..*.
132622: 010137 001654       	mov	r1,@#1654		; _.,.
132626: 010237 001656       	mov	r2,@#1656		; ....
132632: 012702 000002       	mov	#2,r2			; B...
132636: 013701 001652       	mov	@#1652,r1		; A.*.
132642: 012700 001624       	mov	#1624,r0		; @...
132646: 004737 110430       	call	@#110430		; _...
132652: 060200              	add	r2,r0			; .`
132654: 112720 000072       	movb	#72,(r0)+		; P.:.
132660: 013701 001654       	mov	@#1654,r1		; A.,.
132664: 004737 110430       	call	@#110430		; _...
132670: 060200              	add	r2,r0			; .`
132672: 112720 000072       	movb	#72,(r0)+		; P.:.
132676: 013701 001656       	mov	@#1656,r1		; A...
132702: 004737 110430       	call	@#110430		; _...
132706: 000647              	br	32426			; '.
;
132710: 005737 011462       	tst	@#11462			; _.2.
132714: 001402              	beq	32722			; ..
132716: 000137 130574       	jmp	@#130574		; _.|1
;
132722: 005037 012046       	clr	@#12046			; ..&.
132726: 012700 012020       	mov	#12020,r0		; @...
132732: 004737 105710       	call	@#105710		; _.H.
132736: 112760 000000 000023	movb	#0,23(r0)		; p.....
132744: 004737 105372       	call	@#105372		; _.z.
132750: 012700 000015       	mov	#15,r0			; @...
132754: 104401              	trap	1			; ..
132756: 005737 012046       	tst	@#12046			; _.&.
132762: 001755              	beq	32716			; m.
132764: 000137 131444       	jmp	@#131444		; _.$3
;
132770: 023727 011462 000004	cmp	@#11462,#4		; W'2...
132776: 001404              	beq	33010			; ..
133000: 005037 012046       	clr	@#12046			; ..&.
133004: 000137 130574       	jmp	@#130574		; _.|1
;
133010: 012737 000001 012046	mov	#1,@#12046		; _...&.
133016: 013737 011472 012050	mov	@#11472,@#12050		; _.:.(.
133024: 001765              	beq	33000			; u.
133026: 000137 132726       	jmp	@#132726		; _.V5
;
133032: 005337 012050       	dec	@#12050			; _.(.
133036: 001760              	beq	33000			; p.
133040: 013705 011474       	mov	@#11474,r5		; E.<.
133044: 012700 000060       	mov	#60,r0			; @.0.
133050: 104401              	trap	1			; ..
133052: 005737 001742       	tst	@#1742			; _.b.
133056: 001350              	bne	33000			; h.
133060: 077507              	sob	r5,33044		; G.
133062: 000137 132726       	jmp	@#132726		; _.V5
;
133066: 005003              	clr	r3			; ..
133070: 020504              	cmp	r5,r4			; D!
133072: 101015              	bhi	33126			; ..
133074: 010501              	mov	r5,r1			; A.
133076: 013700 012052       	mov	@#12052,r0		; @.*.
133102: 012702 000010       	mov	#10,r2			; B...
133106: 022021              	cmp	(r0)+,(r1)+		; .$
133110: 001006              	bne	33126			; ..
133112: 077203              	sob	r2,33106		; .~
133114: 012703 000001       	mov	#1,r3			; C...
133120: 062705 000020       	add	#20,r5			; Ee..
133124: 000760              	br	33066			; p.
;
133126: 010500              	mov	r5,r0			; @.
133130: 162700 000020       	sub	#20,r0			; @e..
133134: 023700 012052       	cmp	@#12052,r0		; @'*.
133140: 001411              	beq	33164			; ..
133142: 012700 012054       	mov	#12054,r0		; @.,.
133146: 012710 006412       	mov	#6412,(r0)		; H...
133152: 012760 000000 000002	mov	#0,2(r0)		; p.....
133160: 004737 105372       	call	@#105372		; _.z.
133164: 012700 000002       	mov	#2,r0			; @...
133170: 104401              	trap	1			; ..
133172: 000240              	nop				;  .
133174: 023737 007200 007202	cmp	@#7200,@#7202		; _'....
133202: 001370              	bne	33164			; x.
133204: 000207              	ret				; ..
;
133206: 023727 011462 000001	cmp	@#11462,#1		; W'2...
133214: 001423              	beq	33264			; ..
133216: 023727 011462 000002	cmp	@#11462,#2		; W'2...
133224: 001401              	beq	33230			; ..
133226: 000522              	br	33474			; R.
;
133230: 023727 011466 000017	cmp	@#11466,#17		; W'6...
133236: 003116              	bgt	33474			; N.
133240: 013700 011466       	mov	@#11466,r0		; @.6.
133244: 060000              	add	r0,r0			; .`
133246: 062700 012060       	add	#12060,r0		; @e0.
133252: 011037 012060       	mov	(r0),@#12060		; ..0.
133256: 013737 011470 011466	mov	@#11470,@#11466		; _.8.6.
133264: 012700 011510       	mov	#11510,r0		; @.H.
133270: 112720 000015       	movb	#15,(r0)+		; P...
133274: 112720 000012       	movb	#12,(r0)+		; P...
133300: 012702 000006       	mov	#6,r2			; B...
133304: 013701 011466       	mov	@#11466,r1		; A.6.
133310: 004737 110366       	call	@#110366		; _.v.
133314: 060200              	add	r2,r0			; .`
133316: 112720 000040       	movb	#40,(r0)+		; P. .
133322: 112720 000040       	movb	#40,(r0)+		; P. .
133326: 063701 012060       	add	@#12060,r1		; Ag0.
133332: 004737 110366       	call	@#110366		; _.v.
133336: 060200              	add	r2,r0			; .`
133340: 112720 000040       	movb	#40,(r0)+		; P. .
133344: 112720 000040       	movb	#40,(r0)+		; P. .
133350: 111101              	movb	(r1),r1			; A.
133352: 042701 177400       	bic	#177400,r1		; AE..
133356: 012702 000003       	mov	#3,r2			; B...
133362: 004737 110366       	call	@#110366		; _.v.
133366: 060200              	add	r2,r0			; .`
133370: 112720 000040       	movb	#40,(r0)+		; P. .
133374: 112720 000040       	movb	#40,(r0)+		; P. .
133400: 112710 000000       	movb	#0,(r0)			; H...
133404: 012700 011510       	mov	#11510,r0		; @.H.
133410: 004737 105372       	call	@#105372		; _.z.
133414: 004737 130712       	call	@#130712		; _.J1
133420: 005702              	tst	r2			; B.
133422: 001421              	beq	33466			; ..
133424: 022700 000056       	cmp	#56,r0			; @%..
133430: 001411              	beq	33454			; ..
133432: 022700 000054       	cmp	#54,r0			; @%,.
133436: 001406              	beq	33454			; ..
133440: 022700 000015       	cmp	#15,r0			; @%..
133444: 001403              	beq	33454			; ..
133446: 022700 000012       	cmp	#12,r0			; @%..
133452: 001005              	bne	33466			; ..
133454: 013704 011466       	mov	@#11466,r4		; D.6.
133460: 063704 012060       	add	@#12060,r4		; Dg0.
133464: 110114              	movb	r1,(r4)			; L.
133466: 022700 000056       	cmp	#56,r0			; @%..
133472: 001002              	bne	33500			; ..
133474: 000137 130574       	jmp	@#130574		; _.|1
;
133500: 022700 000054       	cmp	#54,r0			; @%,.
133504: 001403              	beq	33514			; ..
133506: 022700 000012       	cmp	#12,r0			; @%..
133512: 001370              	bne	33474			; x.
133514: 062737 000001 011466	add	#1,@#11466		; _e..6.
133522: 000660              	br	33264			; 0.
;
133524: 023727 011462 000002	cmp	@#11462,#2		; W'2...
133532: 001402              	beq	33540			; ..
133534: 000137 130574       	jmp	@#130574		; _.|1
;
133540: 023727 011466 000017	cmp	@#11466,#17		; W'6...
133546: 003372              	bgt	33534			; z.
133550: 013700 011466       	mov	@#11466,r0		; @.6.
133554: 060000              	add	r0,r0			; .`
133556: 062700 012060       	add	#12060,r0		; @e0.
133562: 013710 011470       	mov	@#11470,(r0)		; H.8.
133566: 000137 130574       	jmp	@#130574		; _.|1
;
133572: 026457 000056       	cmp	56(r4),@-(r7)		; /-..
133576: 042115              	bic	(r1)+,(r5)		; MD
133600: 042522              	bic	(r5)+,(r2)+		; RE
133602: 050065 013640       	bis	r0,13640(r5)		; 5P .
133606: 000006              	rtt				; ..
;
133610: 013646              	mov	@(r6)+,-(r6)		; &.
133612: 000000              	halt				; ..
;
133614: 137500 133714       	bitb	@133714(r5),r0		; @?L7
133620: 000036              	invalid opcode			; ..
133622: 013770 020530 013650	mov	@#20530,@13650(r0)	; x.X!(.
133630: 000362 015024       	swab	15024(r2)		; r...
133634: 140062 135404       	bicb	r0,135404(r2)		; 2@.;
133640: 000026              	invalid opcode			; ..
133642: 015120              	mov	@-(r1),(r0)+		; P.
133644: 020542              	cmp	r5,-(r2)		; b!
133646: 013674 000242       	mov	@(r6)+,@242(r4)		; <.".
133652: 016154 140324       	mov	140324(r1),@-(r4)	; l.T@
133656: 136234 000026       	bitb	26(r2),@(r4)+		; .<..
133662: 016250 020554       	mov	20554(r2),@-(r0)	; (.l!
133666: 013720 000216       	mov	@#216,(r0)+		; P...
133672: 017304 140542       	mov	@140542(r3),r4		; D.bA
133676: 137150 000026       	bitb	@26(r1),@-(r0)		; h>..
133702: 017400 020566       	mov	@20566(r4),r0		; ..v!
133706: 013744 000052       	mov	@#52,-(r4)		; d.*.
133712: 020434              	cmp	r4,@(r4)+		; .!
133714: 010001              	mov	r0,r1			; ..
133716: 004046              	jsr	r0,-(r6)		; &.
133720: 000000              	halt				; ..
;
133722: 040517              	bic	r5,(r7)			; OA
133724: 141714              	bicb	(r7),(r4)		; LC
133726: 010002              	mov	r0,r2			; ..
133730: 004046              	jsr	r0,-(r6)		; &.
133732: 000000              	halt				; ..
;
133734: 040517              	bic	r5,(r7)			; OA
133736: 141762 036004       	bicb	(r7),36004(r2)		; rC.<
133742: 000014              	invalid opcode			; ..
133744: 000000              	halt				; ..
;
133746: 041117              	bic	(r1),(r7)		; OB
133750: 000000              	halt				; ..
;
133752: 047504 052503       	bic	@52503(r5),r4		; DOCU
133756: 042515              	bic	(r5)+,(r5)		; ME
133760: 052116              	bis	(r1)+,(r6)		; NT
133762: 021440              	cmp	(r4),-(r0)		;  #
133764: 030462 000406       	bit	r4,406(r2)		; 21..
133770: 004042              	jsr	r0,-(r2)		; ".
133772: 000000              	halt				; ..
;
133774: 040517              	bic	r5,(r7)			; OA
133776: 000000              	halt				; ..
;
134000: 047111 042504       	bic	@42504(r1),(r1)		; INDE
134004: 020130              	cmp	r1,@(r0)+		; X 
134006: 055433              	bis	@-(r4),@(r3)+		; .[
134010: 041061 055433       	bic	(r0),55433(r1)		; 1B.[
134014: 042066 052516       	bic	(r0)+,52516(r6)		; 6DNU
134020: 041115              	bic	(r1),(r5)		; MB
134022: 051105              	bis	(r1),r5			; ER
134024: 055433              	bis	@-(r4),@(r3)+		; .[
134026: 041061 055433       	bic	(r0),55433(r1)		; 1B.[
134032: 042066 020040       	bic	(r0)+,20040(r6)		; 6D  
134036: 020040              	cmp	r0,-(r0)		;   
134040: 020040              	cmp	r0,-(r0)		;   
134042: 004406              	jsr	r4,r6			; ..
134044: 004050              	jsr	r0,@-(r0)		; (.
134046: 000000              	halt				; ..
;
134050: 040517              	bic	r5,(r7)			; OA
134052: 000000              	halt				; ..
;
134054: 041523              	bic	(r5),(r3)+		; SC
134056: 042510              	bic	(r5)+,(r0)		; HE
134060: 052504              	bis	(r5)+,r4		; DU
134062: 042514              	bic	(r5)+,(r4)		; LE
134064: 055433              	bis	@-(r4),@(r3)+		; .[
134066: 041061 055433       	bic	(r0),55433(r1)		; 1B.[
134072: 042070 052516       	bic	(r0)+,@52516(r0)	; 8DNU
134076: 041115              	bic	(r1),(r5)		; MB
134100: 051105              	bis	(r1),r5			; ER
134102: 020040              	cmp	r0,-(r0)		;   
134104: 055433              	bis	@-(r4),@(r3)+		; .[
134106: 041061 055433       	bic	(r0),55433(r1)		; 1B.[
134112: 042070 020040       	bic	(r0)+,@20040(r0)	; 8D  
134116: 020040              	cmp	r0,-(r0)		;   
134120: 020040              	cmp	r0,-(r0)		;   
134122: 020040              	cmp	r0,-(r0)		;   
134124: 011406              	mov	(r4),r6			; ..
134126: 004042              	jsr	r0,-(r2)		; ".
134130: 000000              	halt				; ..
;
134132: 040517              	bic	r5,(r7)			; OA
134134: 000000              	halt				; ..
;
134136: 047510 020124       	bic	@20124(r5),(r0)		; HOT 
134142: 020040              	cmp	r0,-(r0)		;   
134144: 055433              	bis	@-(r4),@(r3)+		; .[
134146: 041061 055433       	bic	(r0),55433(r1)		; 1B.[
134152: 042066 040502       	bic	(r0)+,40502(r6)		; 6DBA
134156: 042116              	bic	(r1)+,(r6)		; ND
134160: 020040              	cmp	r0,-(r0)		;   
134162: 055433              	bis	@-(r4),@(r3)+		; .[
134164: 041061 055433       	bic	(r0),55433(r1)		; 1B.[
134170: 042066 052516       	bic	(r0)+,52516(r6)		; 6DNU
134174: 041115              	bic	(r1),(r5)		; MB
134176: 051105              	bis	(r1),r5			; ER
134200: 017406 004042       	mov	@4042(r4),r6		; ..".
134204: 000000              	halt				; ..
;
134206: 040517              	bic	r5,(r7)			; OA
134210: 000000              	halt				; ..
;
134212: 047510 020124       	bic	@20124(r5),(r0)		; HOT 
134216: 020040              	cmp	r0,-(r0)		;   
134220: 055433              	bis	@-(r4),@(r3)+		; .[
134222: 041061 055433       	bic	(r0),55433(r1)		; 1B.[
134226: 042066 040502       	bic	(r0)+,40502(r6)		; 6DBA
134232: 042116              	bic	(r1)+,(r6)		; ND
134234: 020040              	cmp	r0,-(r0)		;   
134236: 055433              	bis	@-(r4),@(r3)+		; .[
134240: 041061 055433       	bic	(r0),55433(r1)		; 1B.[
134244: 042066 042527       	bic	(r0)+,42527(r6)		; 6DWE
134250: 043511              	bic	@(r5)+,(r1)		; IG
134252: 052110              	bis	(r1)+,(r0)		; HT
134254: 023406              	cmp	@(r4)+,r6		; .'
134256: 004045              	jsr	r0,-(r5)		; %.
134260: 000000              	halt				; ..
;
134262: 040517              	bic	r5,(r7)			; OA
134264: 000000              	halt				; ..
;
134266: 044520              	bic	-(r5),(r0)+		; PI
134270: 045503              	bic	@-(r5),r3		; CK
134272: 042514              	bic	(r5)+,(r4)		; LE
134274: 015522              	mov	@-(r5),(r2)+		; R.
134276: 030533              	bit	r5,@(r3)+		; [1
134300: 015502              	mov	@-(r5),r2		; B.
134302: 033533              	bit	@(r5)+,@(r3)+		; [7
134304: 051504              	bis	(r5),r4			; DS
134306: 044514              	bic	-(r5),(r4)		; LI
134310: 020124              	cmp	r1,(r4)+		; T 
134312: 020040              	cmp	r0,-(r0)		;   
134314: 055433              	bis	@-(r4),@(r3)+		; .[
134316: 041061 055433       	bic	(r0),55433(r1)		; 1B.[
134322: 042067 044527       	bic	(r0)+,1055		; 7DWI
134326: 052104              	bis	(r1)+,r4		; DT
134330: 020110              	cmp	r1,(r0)			; H 
134332: 020040              	cmp	r0,-(r0)		;   
134334: 030406              	bit	r4,r6			; .1
134336: 004037 000000       	jsr	r0,@#0			; ....
134342: 040517              	bic	r5,(r7)			; OA
134344: 000000              	halt				; ..
;
134346: 047510 020124       	bic	@20124(r5),(r0)		; HOT 
134352: 015440              	mov	@-(r4),-(r0)		;  .
134354: 030533              	bit	r5,@(r3)+		; [1
134356: 015502              	mov	@-(r5),r2		; B.
134360: 032533              	bit	(r5)+,@(r3)+		; [5
134362: 041104              	bic	(r1),r4			; DB
134364: 047101 020104       	bic	@20104(r1),r1		; AND 
134370: 055433              	bis	@-(r4),@(r3)+		; .[
134372: 041061 055433       	bic	(r0),55433(r1)		; 1B.[
134376: 042065 040507       	bic	(r0)+,40507(r5)		; 5DGA
134402: 043525              	bic	@(r5)+,(r5)+		; UG
134404: 020105              	cmp	r1,r5			; E 
134406: 035406              	bit	@-(r4),r6		; .;
134410: 004045              	jsr	r0,-(r5)		; %.
134412: 000000              	halt				; ..
;
134414: 040517              	bic	r5,(r7)			; OA
134416: 000000              	halt				; ..
;
134420: 044520              	bic	-(r5),(r0)+		; PI
134422: 045503              	bic	@-(r5),r3		; CK
134424: 042514              	bic	(r5)+,(r4)		; LE
134426: 015522              	mov	@-(r5),(r2)+		; R.
134430: 030533              	bit	r5,@(r3)+		; [1
134432: 015502              	mov	@-(r5),r2		; B.
134434: 033533              	bit	@(r5)+,@(r3)+		; [7
134436: 046104 047105       	bic	47105(r1),r4		; DLEN
134442: 044107              	bic	-(r1),r7		; GH
134444: 020124              	cmp	r1,(r4)+		; T 
134446: 055433              	bis	@-(r4),@(r3)+		; .[
134450: 041061 055433       	bic	(r0),55433(r1)		; 1B.[
134454: 042067 020040       	bic	(r0)+,154520		; 7D  
134460: 020040              	cmp	r0,-(r0)		;   
134462: 020040              	cmp	r0,-(r0)		;   
134464: 020040              	cmp	r0,-(r0)		;   
134466: 042006              	bic	(r0)+,r6		; .D
134470: 004045              	jsr	r0,-(r5)		; %.
134472: 000000              	halt				; ..
;
134474: 040517              	bic	r5,(r7)			; OA
134476: 000000              	halt				; ..
;
134500: 044520              	bic	-(r5),(r0)+		; PI
134502: 045503              	bic	@-(r5),r3		; CK
134504: 042514              	bic	(r5)+,(r4)		; LE
134506: 015522              	mov	@-(r5),(r2)+		; R.
134510: 030533              	bit	r5,@(r3)+		; [1
134512: 015502              	mov	@-(r5),r2		; B.
134514: 033533              	bit	@(r5)+,@(r3)+		; [7
134516: 053504              	bis	@(r5)+,r4		; DW
134520: 044505              	bic	-(r5),r5		; EI
134522: 044107              	bic	-(r1),r7		; GH
134524: 020124              	cmp	r1,(r4)+		; T 
134526: 055433              	bis	@-(r4),@(r3)+		; .[
134530: 041061 055433       	bic	(r0),55433(r1)		; 1B.[
134534: 042067 020040       	bic	(r0)+,154600		; 7D  
134540: 020040              	cmp	r0,-(r0)		;   
134542: 020040              	cmp	r0,-(r0)		;   
134544: 020040              	cmp	r0,-(r0)		;   
134546: 046406 004031       	bic	4031(r4),r6		; .M..
134552: 000000              	halt				; ..
;
134554: 040517              	bic	r5,(r7)			; OA
134556: 000000              	halt				; ..
;
134560: 047111 015440       	bic	@15440(r1),(r1)		; IN .
134564: 030533              	bit	r5,@(r3)+		; [1
134566: 015502              	mov	@-(r5),r2		; B.
134570: 031533              	bit	(r5),@(r3)+		; [3
134572: 047504 052125       	bic	@52125(r5),r4		; DOUT
134576: 055433              	bis	@-(r4),@(r3)+		; .[
134600: 041061 055433       	bic	(r0),55433(r1)		; 1B.[
134604: 042063 050123       	bic	(r0)+,50123(r3)		; 3DSP
134610: 020114              	cmp	r1,(r4)			; L 
134612: 051006              	bis	(r0),r6			; .R
134614: 004050              	jsr	r0,@-(r0)		; (.
134616: 000000              	halt				; ..
;
134620: 040517              	bic	r5,(r7)			; OA
134622: 000000              	halt				; ..
;
134624: 042523              	bic	(r5)+,(r3)+		; SE
134626: 052521              	bis	(r5)+,(r1)+		; QU
134630: 047105 042503       	bic	@42503(r1),r5		; ENCE
134634: 055433              	bis	@-(r4),@(r3)+		; .[
134636: 041061 055433       	bic	(r0),55433(r1)		; 1B.[
134642: 042070 047111       	bic	(r0)+,@47111(r0)	; 8DIN
134646: 041440              	bic	(r4),-(r0)		;  C
134650: 044517              	bic	-(r5),(r7)		; OI
134652: 020114              	cmp	r1,(r4)			; L 
134654: 055433              	bis	@-(r4),@(r3)+		; .[
134656: 041061 055433       	bic	(r0),55433(r1)		; 1B.[
134662: 042070 020040       	bic	(r0)+,@20040(r0)	; 8D  
134666: 020040              	cmp	r0,-(r0)		;   
134670: 020040              	cmp	r0,-(r0)		;   
134672: 020040              	cmp	r0,-(r0)		;   
134674: 056006 004045       	bis	4045(r0),r6		; .\%.
134700: 000000              	halt				; ..
;
134702: 040517              	bic	r5,(r7)			; OA
134704: 000000              	halt				; ..
;
134706: 044520              	bic	-(r5),(r0)+		; PI
134710: 045503              	bic	@-(r5),r3		; CK
134712: 042514              	bic	(r5)+,(r4)		; LE
134714: 015522              	mov	@-(r5),(r2)+		; R.
134716: 030533              	bit	r5,@(r3)+		; [1
134720: 015502              	mov	@-(r5),r2		; B.
134722: 033533              	bit	@(r5)+,@(r3)+		; [7
134724: 051104              	bis	(r1),r4			; DR
134726: 045105              	bic	@-(r1),r5		; EJ
134730: 041505              	bic	(r5),r5			; EC
134732: 020124              	cmp	r1,(r4)+		; T 
134734: 055433              	bis	@-(r4),@(r3)+		; .[
134736: 041061 055433       	bic	(r0),55433(r1)		; 1B.[
134742: 042067 042527       	bic	(r0)+,177475		; 7DWE
134746: 043511              	bic	@(r5)+,(r1)		; IG
134750: 052110              	bis	(r1)+,(r0)		; HT
134752: 020040              	cmp	r0,-(r0)		;   
134754: 062406              	add	(r4)+,r6		; .e
134756: 004026              	jsr	r0,(r6)+		; ..
134760: 000000              	halt				; ..
;
134762: 040517              	bic	r5,(r7)			; OA
134764: 000000              	halt				; ..
;
134766: 042504              	bic	(r5)+,r4		; DE
134770: 052123              	bis	(r1)+,(r3)+		; ST
134772: 047111 015455       	bic	@15455(r1),(r1)		; IN-.
134776: 030533              	bit	r5,@(r3)+		; [1
135000: 015502              	mov	@-(r5),r2		; B.
135002: 033533              	bit	@(r5)+,@(r3)+		; [7
135004: 040504              	bic	r5,r4			; DA
135006: 044524              	bic	-(r5),(r4)+		; TI
135010: 047117 020040       	bic	@20040(r1),(r7)		; ON  
135014: 062410              	add	(r4)+,(r0)		; .e
135016: 004007              	jsr	r0,r7			; ..
135020: 000000              	halt				; ..
;
135022: 040517              	bic	r5,(r7)			; OA
135024: 000000              	halt				; ..
;
135026: 020040              	cmp	r0,-(r0)		;   
135030: 020040              	cmp	r0,-(r0)		;   
135032: 020040              	cmp	r0,-(r0)		;   
135034: 020040              	cmp	r0,-(r0)		;   
135036: 067006 004005       	add	@4005(r0),r6		; .n..
135042: 000000              	halt				; ..
;
135044: 040517              	bic	r5,(r7)			; OA
135046: 000000              	halt				; ..
;
135050: 047515 052116       	bic	@52116(r5),(r5)		; MONT
135054: 020110              	cmp	r1,(r0)			; H 
135056: 067007 004022       	add	@4022(r0),r7		; .n..
135062: 000000              	halt				; ..
;
135064: 040517              	bic	r5,(r7)			; OA
135066: 000000              	halt				; ..
;
135070: 020040              	cmp	r0,-(r0)		;   
135072: 020040              	cmp	r0,-(r0)		;   
135074: 015440              	mov	@-(r4),-(r0)		;  .
135076: 030533              	bit	r5,@(r3)+		; [1
135100: 015502              	mov	@-(r5),r2		; B.
135102: 032533              	bit	(r5)+,@(r3)+		; [5
135104: 020104              	cmp	r1,r4			; D 
135106: 020040              	cmp	r0,-(r0)		;   
135110: 020040              	cmp	r0,-(r0)		;   
135112: 072406              	ash	r6,r4			; .u
135114: 004003              	jsr	r0,r3			; ..
135116: 000000              	halt				; ..
;
135120: 040517              	bic	r5,(r7)			; OA
135122: 000000              	halt				; ..
;
135124: 040504              	bic	r5,r4			; DA
135126: 020131              	cmp	r1,@(r1)+		; Y 
135130: 072407              	ash	r7,r4			; .u
135132: 004016              	jsr	r0,(r6)			; ..
135134: 000000              	halt				; ..
;
135136: 040517              	bic	r5,(r7)			; OA
135140: 000000              	halt				; ..
;
135142: 020040              	cmp	r0,-(r0)		;   
135144: 015440              	mov	@-(r4),-(r0)		;  .
135146: 030533              	bit	r5,@(r3)+		; [1
135150: 015502              	mov	@-(r5),r2		; B.
135152: 031533              	bit	(r5),@(r3)+		; [3
135154: 020104              	cmp	r1,r4			; D 
135156: 020040              	cmp	r0,-(r0)		;   
135160: 075006              	fadd	r6			; .z
135162: 004004              	jsr	r0,r4			; ..
135164: 000000              	halt				; ..
;
135166: 040517              	bic	r5,(r7)			; OA
135170: 000000              	halt				; ..
;
135172: 052524              	bis	(r5)+,(r4)+		; TU
135174: 047122 075007       	bic	@75007(r1),(r2)+	; RN.z
135200: 004004              	jsr	r0,r4			; ..
135202: 000000              	halt				; ..
;
135204: 040517              	bic	r5,(r7)			; OA
135206: 000000              	halt				; ..
;
135210: 020040              	cmp	r0,-(r0)		;   
135212: 020040              	cmp	r0,-(r0)		;   
135214: 075010              	fsub	r0			; .z
135216: 004004              	jsr	r0,r4			; ..
135220: 000000              	halt				; ..
;
135222: 040517              	bic	r5,(r7)			; OA
135224: 000000              	halt				; ..
;
135226: 020040              	cmp	r0,-(r0)		;   
135230: 020040              	cmp	r0,-(r0)		;   
135232: 100006              	bpl	35250			; ..
135234: 004004              	jsr	r0,r4			; ..
135236: 000000              	halt				; ..
;
135240: 040517              	bic	r5,(r7)			; OA
135242: 000000              	halt				; ..
;
135244: 045520              	bic	@-(r5),(r0)+		; PK
135246: 051114              	bis	(r1),(r4)		; LR
135250: 100007              	bpl	35270			; ..
135252: 004004              	jsr	r0,r4			; ..
135254: 000000              	halt				; ..
;
135256: 040517              	bic	r5,(r7)			; OA
135260: 000000              	halt				; ..
;
135262: 052516              	bis	(r5)+,(r6)		; NU
135264: 020115              	cmp	r1,(r5)			; M 
135266: 100010              	bpl	35310			; ..
135270: 004004              	jsr	r0,r4			; ..
135272: 000000              	halt				; ..
;
135274: 040517              	bic	r5,(r7)			; OA
135276: 000000              	halt				; ..
;
135300: 020040              	cmp	r0,-(r0)		;   
135302: 020040              	cmp	r0,-(r0)		;   
135304: 062026              	add	(r0)+,(r6)+		; .d
135306: 000016              	invalid opcode			; ..
135310: 000000              	halt				; ..
;
135312: 040517              	bic	r5,(r7)			; OA
135314: 000000              	halt				; ..
;
135316: 055433              	bis	@-(r4),@(r3)+		; .[
135320: 041061 071120       	bic	(r0),71120(r1)		; 1BPr
135324: 062157              	add	(r1)+,@-(r7)		; od
135326: 061565 020164       	add	(r5),20164(r5)		; uct 
135332: 063157              	add	@(r1)+,@-(r7)		; of
135334: 062026              	add	(r0)+,(r6)+		; .d
135336: 000034              	invalid opcode			; ..
135340: 000000              	halt				; ..
;
135342: 040517              	bic	r5,(r7)			; OA
135344: 000000              	halt				; ..
;
135346: 055433              	bis	@-(r4),@(r3)+		; .[
135350: 041062 067503       	bic	(r0),67503(r2)		; 2BCo
135354: 070155              	mul	@-(r5),r1		; mp
135356: 072165 071145       	ash	71145(r5),r1		; uter
135362: 050040              	bis	r0,-(r0)		;  P
135364: 067562 062543 071563	add	@62543(r5),71563(r2)	; rocess
135372: 041440              	bic	(r4),-(r0)		;  C
135374: 067157 071164       	add	@71164(r1),@-(r7)	; ontr
135400: 066157 000427       	add	427(r1),@-(r7)		; ol..
135404: 001401              	beq	35410			; ..
135406: 004046              	jsr	r0,-(r6)		; &.
135410: 000000              	halt				; ..
;
135412: 040517              	bic	r5,(r7)			; OA
135414: 141714              	bicb	(r7),(r4)		; LC
135416: 001402              	beq	35424			; ..
135420: 004046              	jsr	r0,-(r6)		; &.
135422: 000000              	halt				; ..
;
135424: 040517              	bic	r5,(r7)			; OA
135426: 141762 021004       	bicb	(r7),21004(r2)		; rC."
135432: 000014              	invalid opcode			; ..
135434: 000000              	halt				; ..
;
135436: 041117              	bic	(r1),(r7)		; OB
135440: 000000              	halt				; ..
;
135442: 047504 052503       	bic	@52503(r5),r4		; DOCU
135446: 042515              	bic	(r5)+,(r5)		; ME
135450: 052116              	bis	(r1)+,(r6)		; NT
135452: 021440              	cmp	(r4),-(r0)		;  #
135454: 031462 001006       	bit	(r4),1006(r2)		; 23..
135460: 004054              	jsr	r0,@-(r4)		; ,.
135462: 000000              	halt				; ..
;
135464: 040517              	bic	r5,(r7)			; OA
135466: 000000              	halt				; ..
;
135470: 020040              	cmp	r0,-(r0)		;   
135472: 044103              	bic	-(r1),r3		; CH
135474: 047101 042507       	bic	@42507(r1),r1		; ANGE
135500: 043040              	bic	@(r0)+,-(r0)		;  F
135502: 047522 020115       	bic	@20115(r5),(r2)+	; ROM 
135506: 015440              	mov	@-(r4),-(r0)		;  .
135510: 030533              	bit	r5,@(r3)+		; [1
135512: 015502              	mov	@-(r5),r2		; B.
135514: 030533              	bit	r5,@(r3)+		; [1
135516: 042065 040502       	bic	(r0)+,40502(r5)		; 5DBA
135522: 042116              	bic	(r1)+,(r6)		; ND
135524: 020040              	cmp	r0,-(r0)		;   
135526: 055433              	bis	@-(r4),@(r3)+		; .[
135530: 041061 055433       	bic	(r0),55433(r1)		; 1B.[
135534: 042066 052516       	bic	(r0)+,52516(r6)		; 6DNU
135540: 041115              	bic	(r1),(r5)		; MB
135542: 051105              	bis	(r1),r5			; ER
135544: 006007              	ror	r7			; ..
135546: 004022              	jsr	r0,(r2)+		; ..
135550: 000000              	halt				; ..
;
135552: 040517              	bic	r5,(r7)			; OA
135554: 000000              	halt				; ..
;
135556: 041523              	bic	(r5),(r3)+		; SC
135560: 042510              	bic	(r5)+,(r0)		; HE
135562: 015504              	mov	@-(r5),r4		; D.
135564: 030533              	bit	r5,@(r3)+		; [1
135566: 015502              	mov	@-(r5),r2		; B.
135570: 032533              	bit	(r5)+,@(r3)+		; [5
135572: 047104 046525       	bic	@46525(r1),r4		; DNUM
135576: 020040              	cmp	r0,-(r0)		;   
135600: 012006              	mov	(r0)+,r6		; ..
135602: 004052              	jsr	r0,@-(r2)		; *.
135604: 000000              	halt				; ..
;
135606: 040517              	bic	r5,(r7)			; OA
135610: 000000              	halt				; ..
;
135612: 020040              	cmp	r0,-(r0)		;   
135614: 041440              	bic	(r4),-(r0)		;  C
135616: 040510              	bic	r5,(r0)			; HA
135620: 043516              	bic	@(r5)+,(r6)		; NG
135622: 020105              	cmp	r1,r5			; E 
135624: 047524 020040       	bic	@20040(r5),(r4)+	; TO  
135630: 015440              	mov	@-(r4),-(r0)		;  .
135632: 030533              	bit	r5,@(r3)+		; [1
135634: 015502              	mov	@-(r5),r2		; B.
135636: 030533              	bit	r5,@(r3)+		; [1
135640: 042065 041523       	bic	(r0)+,41523(r5)		; 5DSC
135644: 042510              	bic	(r5)+,(r0)		; HE
135646: 015504              	mov	@-(r5),r4		; D.
135650: 030533              	bit	r5,@(r3)+		; [1
135652: 015502              	mov	@-(r5),r2		; B.
135654: 032533              	bit	(r5)+,@(r3)+		; [5
135656: 047104 046525       	bic	@46525(r1),r4		; DNUM
135662: 020040              	cmp	r0,-(r0)		;   
135664: 015407              	mov	@-(r4),r7		; ..
135666: 004030              	jsr	r0,@(r0)+		; ..
135670: 000000              	halt				; ..
;
135672: 040517              	bic	r5,(r7)			; OA
135674: 000000              	halt				; ..
;
135676: 045520              	bic	@-(r5),(r0)+		; PK
135700: 020114              	cmp	r1,(r4)			; L 
135702: 046123 052111       	bic	52111(r1),(r3)+		; SLIT
135706: 055433              	bis	@-(r4),@(r3)+		; .[
135710: 041061 055433       	bic	(r0),55433(r1)		; 1B.[
135714: 042070 044527       	bic	(r0)+,@44527(r0)	; 8DWI
135720: 052104              	bis	(r1)+,r4		; DT
135722: 020110              	cmp	r1,(r0)			; H 
135724: 020040              	cmp	r0,-(r0)		;   
135726: 022407              	cmp	(r4)+,r7		; .%
135730: 004030              	jsr	r0,@(r0)+		; ..
135732: 000000              	halt				; ..
;
135734: 040517              	bic	r5,(r7)			; OA
135736: 000000              	halt				; ..
;
135740: 047510 020124       	bic	@20124(r5),(r0)		; HOT 
135744: 040502              	bic	r5,r2			; BA
135746: 042116              	bic	(r1)+,(r6)		; ND
135750: 055433              	bis	@-(r4),@(r3)+		; .[
135752: 041061 055433       	bic	(r0),55433(r1)		; 1B.[
135756: 042070 040507       	bic	(r0)+,@40507(r0)	; 8DGA
135762: 043525              	bic	@(r5)+,(r5)+		; UG
135764: 020105              	cmp	r1,r5			; E 
135766: 020040              	cmp	r0,-(r0)		;   
135770: 027407 004030       	cmp	@4030(r4),r7		; ./..
135774: 000000              	halt				; ..
;
135776: 040517              	bic	r5,(r7)			; OA
136000: 000000              	halt				; ..
;
136002: 047510 020124       	bic	@20124(r5),(r0)		; HOT 
136006: 040502              	bic	r5,r2			; BA
136010: 042116              	bic	(r1)+,(r6)		; ND
136012: 055433              	bis	@-(r4),@(r3)+		; .[
136014: 041061 055433       	bic	(r0),55433(r1)		; 1B.[
136020: 042070 052516       	bic	(r0)+,@52516(r0)	; 8DNU
136024: 041115              	bic	(r1),(r5)		; MB
136026: 051105              	bis	(r1),r5			; ER
136030: 020040              	cmp	r0,-(r0)		;   
136032: 034407              	bit	-(r4),r7		; .9
136034: 004024              	jsr	r0,(r4)+		; ..
136036: 000000              	halt				; ..
;
136040: 040517              	bic	r5,(r7)			; OA
136042: 000000              	halt				; ..
;
136044: 047503 046111       	bic	@46111(r5),r3		; COIL
136050: 020040              	cmp	r0,-(r0)		;   
136052: 055433              	bis	@-(r4),@(r3)+		; .[
136054: 041061 055433       	bic	(r0),55433(r1)		; 1B.[
136060: 042066 042527       	bic	(r0)+,42527(r6)		; 6DWE
136064: 043511              	bic	@(r5)+,(r1)		; IG
136066: 052110              	bis	(r1)+,(r0)		; HT
136070: 040407              	bic	r4,r7			; .A
136072: 004007              	jsr	r0,r7			; ..
136074: 000000              	halt				; ..
;
136076: 040517              	bic	r5,(r7)			; OA
136100: 000000              	halt				; ..
;
136102: 044520              	bic	-(r5),(r0)+		; PI
136104: 045503              	bic	@-(r5),r3		; CK
136106: 042514              	bic	(r5)+,(r4)		; LE
136110: 020104              	cmp	r1,r4			; D 
136112: 040410              	bic	r4,(r0)			; .A
136114: 004007              	jsr	r0,r7			; ..
136116: 000000              	halt				; ..
;
136120: 040517              	bic	r5,(r7)			; OA
136122: 000000              	halt				; ..
;
136124: 042514              	bic	(r5)+,(r4)		; LE
136126: 043516              	bic	@(r5)+,(r6)		; NG
136130: 044124              	bic	-(r1),(r4)+		; TH
136132: 020040              	cmp	r0,-(r0)		;   
136134: 031026              	bit	(r0),(r6)+		; .2
136136: 000016              	invalid opcode			; ..
136140: 000000              	halt				; ..
;
136142: 040517              	bic	r5,(r7)			; OA
136144: 000000              	halt				; ..
;
136146: 055433              	bis	@-(r4),@(r3)+		; .[
136150: 041061 071120       	bic	(r0),71120(r1)		; 1BPr
136154: 062157              	add	(r1)+,@-(r7)		; od
136156: 061565 020164       	add	(r5),20164(r5)		; uct 
136162: 063157              	add	@(r1)+,@-(r7)		; of
136164: 031026              	bit	(r0),(r6)+		; .2
136166: 000034              	invalid opcode			; ..
136170: 000000              	halt				; ..
;
136172: 040517              	bic	r5,(r7)			; OA
136174: 000000              	halt				; ..
;
136176: 055433              	bis	@-(r4),@(r3)+		; .[
136200: 041062 067503       	bic	(r0),67503(r2)		; 2BCo
136204: 070155              	mul	@-(r5),r1		; mp
136206: 072165 071145       	ash	71145(r5),r1		; uter
136212: 050040              	bis	r0,-(r0)		;  P
136214: 067562 062543 071563	add	@62543(r5),71563(r2)	; rocess
136222: 041440              	bic	(r4),-(r0)		;  C
136224: 067157 071164       	add	@71164(r1),@-(r7)	; ontr
136230: 066157 000427       	add	427(r1),@-(r7)		; ol..
136234: 001401              	beq	36240			; ..
136236: 004046              	jsr	r0,-(r6)		; &.
136240: 000000              	halt				; ..
;
136242: 040517              	bic	r5,(r7)			; OA
136244: 141714              	bicb	(r7),(r4)		; LC
136246: 001402              	beq	36254			; ..
136250: 004046              	jsr	r0,-(r6)		; &.
136252: 000000              	halt				; ..
;
136254: 040517              	bic	r5,(r7)			; OA
136256: 141762 021004       	bicb	(r7),21004(r2)		; rC."
136262: 000014              	invalid opcode			; ..
136264: 000000              	halt				; ..
;
136266: 041117              	bic	(r1),(r7)		; OB
136270: 000000              	halt				; ..
;
136272: 047504 052503       	bic	@52503(r5),r4		; DOCU
136276: 042515              	bic	(r5)+,(r5)		; ME
136300: 052116              	bis	(r1)+,(r6)		; NT
136302: 021440              	cmp	(r4),-(r0)		;  #
136304: 032062 000406       	bit	(r0)+,406(r2)		; 24..
136310: 004060 000000       	jsr	r0,0(r0)		; 0...
136314: 040517              	bic	r5,(r7)			; OA
136316: 000000              	halt				; ..
;
136320: 042522              	bic	(r5)+,(r2)+		; RE
136322: 047515 042526       	bic	@42526(r5),(r5)		; MOVE
136326: 043040              	bic	@(r0)+,-(r0)		;  F
136330: 051117              	bis	(r1),(r7)		; OR
136332: 055433              	bis	@-(r4),@(r3)+		; .[
136334: 041061 055433       	bic	(r0),55433(r1)		; 1B.[
136340: 030061 042504       	bit	r0,42504(r1)		; 10DE
136344: 051122              	bis	(r1),(r2)+		; RR
136346: 051117              	bis	(r1),(r7)		; OR
136350: 020040              	cmp	r0,-(r0)		;   
136352: 020040              	cmp	r0,-(r0)		;   
136354: 015440              	mov	@-(r4),-(r0)		;  .
136356: 030533              	bit	r5,@(r3)+		; [1
136360: 015502              	mov	@-(r5),r2		; B.
136362: 030533              	bit	r5,@(r3)+		; [1
136364: 042060 047503       	bic	(r0)+,47503(r0)		; 0DCO
136370: 051122              	bis	(r1),(r2)+		; RR
136372: 041505              	bic	(r5),r5			; EC
136374: 044524              	bic	-(r5),(r4)+		; TI
136376: 047117 006406       	bic	@6406(r1),(r7)		; ON..
136402: 004063 000000       	jsr	r0,0(r3)		; 3...
136406: 040517              	bic	r5,(r7)			; OA
136410: 000000              	halt				; ..
;
136412: 042522              	bic	(r5)+,(r2)+		; RE
136414: 047515 042526       	bic	@42526(r5),(r5)		; MOVE
136420: 043040              	bic	@(r0)+,-(r0)		;  F
136422: 047522 015515       	bic	@15515(r5),(r2)+	; ROM.
136426: 030533              	bit	r5,@(r3)+		; [1
136430: 015502              	mov	@-(r5),r2		; B.
136432: 030533              	bit	r5,@(r3)+		; [1
136434: 042061 047111       	bic	(r0)+,47111(r1)		; 1DIN
136440: 042526              	bic	(r5)+,(r6)+		; VE
136442: 052116              	bis	(r1)+,(r6)		; NT
136444: 051117              	bis	(r1),(r7)		; OR
136446: 020131              	cmp	r1,@(r1)+		; Y 
136450: 015440              	mov	@-(r4),-(r0)		;  .
136452: 030533              	bit	r5,@(r3)+		; [1
136454: 015502              	mov	@-(r5),r2		; B.
136456: 030533              	bit	r5,@(r3)+		; [1
136460: 042061 047117       	bic	(r0)+,47117(r1)		; 1DON
136464: 054514              	bis	-(r5),(r4)		; LY
136466: 020040              	cmp	r0,-(r0)		;   
136470: 020040              	cmp	r0,-(r0)		;   
136472: 020040              	cmp	r0,-(r0)		;   
136474: 020040              	cmp	r0,-(r0)		;   
136476: 015006              	mov	@-(r0),r6		; ..
136500: 004063 000000       	jsr	r0,0(r3)		; 3...
136504: 040517              	bic	r5,(r7)			; OA
136506: 000000              	halt				; ..
;
136510: 047503 046111       	bic	@46111(r5),r3		; COIL
136514: 047040 046525       	bic	@46525(r0),-(r0)	;  NUM
136520: 042502              	bic	(r5)+,r2		; BE
136522: 015522              	mov	@-(r5),(r2)+		; R.
136524: 030533              	bit	r5,@(r3)+		; [1
136526: 015502              	mov	@-(r5),r2		; B.
136530: 030533              	bit	r5,@(r3)+		; [1
136532: 042061 047455       	bic	(r0)+,47455(r1)		; 1D-O
136536: 052125              	bis	(r1)+,(r5)+		; UT
136540: 051105              	bis	(r1),r5			; ER
136542: 053440              	bis	@(r4)+,-(r0)		;  W
136544: 040522              	bic	r5,(r2)+		; RA
136546: 015520              	mov	@-(r5),(r0)+		; P.
136550: 030533              	bit	r5,@(r3)+		; [1
136552: 015502              	mov	@-(r5),r2		; B.
136554: 030533              	bit	r5,@(r3)+		; [1
136556: 042061 040502       	bic	(r0)+,40502(r1)		; 1DBA
136562: 042116              	bic	(r1)+,(r6)		; ND
136564: 047040 046525       	bic	@46525(r0),-(r0)	;  NUM
136570: 042502              	bic	(r5)+,r2		; BE
136572: 020122              	cmp	r1,(r2)+		; R 
136574: 023406              	cmp	@(r4)+,r6		; .'
136576: 004032              	jsr	r0,@(r2)+		; ..
136600: 000000              	halt				; ..
;
136602: 040517              	bic	r5,(r7)			; OA
136604: 000000              	halt				; ..
;
136606: 042516              	bic	(r5)+,(r6)		; NE
136610: 052130              	bis	(r1)+,@(r0)+		; XT
136612: 041040              	bic	(r0),-(r0)		;  B
136614: 047101 015504       	bic	@15504(r1),r1		; AND.
136620: 030533              	bit	r5,@(r3)+		; [1
136622: 015502              	mov	@-(r5),r2		; B.
136624: 034533              	bit	-(r5),@(r3)+		; [9
136626: 047104 046525       	bic	@46525(r1),r4		; DNUM
136632: 042502              	bic	(r5)+,r2		; BE
136634: 020122              	cmp	r1,(r2)+		; R 
136636: 020040              	cmp	r0,-(r0)		;   
136640: 023410              	cmp	@(r4)+,(r0)		; .'
136642: 004011              	jsr	r0,(r1)			; ..
136644: 000000              	halt				; ..
;
136646: 040517              	bic	r5,(r7)			; OA
136650: 000000              	halt				; ..
;
136652: 020040              	cmp	r0,-(r0)		;   
136654: 020040              	cmp	r0,-(r0)		;   
136656: 020040              	cmp	r0,-(r0)		;   
136660: 020040              	cmp	r0,-(r0)		;   
136662: 020040              	cmp	r0,-(r0)		;   
136664: 031006              	bit	(r0),r6			; .2
136666: 004032              	jsr	r0,@(r2)+		; ..
136670: 000000              	halt				; ..
;
136672: 040517              	bic	r5,(r7)			; OA
136674: 000000              	halt				; ..
;
136676: 042516              	bic	(r5)+,(r6)		; NE
136700: 052130              	bis	(r1)+,@(r0)+		; XT
136702: 041040              	bic	(r0),-(r0)		;  B
136704: 047101 015504       	bic	@15504(r1),r1		; AND.
136710: 030533              	bit	r5,@(r3)+		; [1
136712: 015502              	mov	@-(r5),r2		; B.
136714: 034533              	bit	-(r5),@(r3)+		; [9
136716: 047104 046525       	bic	@46525(r1),r4		; DNUM
136722: 042502              	bic	(r5)+,r2		; BE
136724: 020122              	cmp	r1,(r2)+		; R 
136726: 020040              	cmp	r0,-(r0)		;   
136730: 031010              	bit	(r0),(r0)		; .2
136732: 004011              	jsr	r0,(r1)			; ..
136734: 000000              	halt				; ..
;
136736: 040517              	bic	r5,(r7)			; OA
136740: 000000              	halt				; ..
;
136742: 020040              	cmp	r0,-(r0)		;   
136744: 020040              	cmp	r0,-(r0)		;   
136746: 020040              	cmp	r0,-(r0)		;   
136750: 020040              	cmp	r0,-(r0)		;   
136752: 020040              	cmp	r0,-(r0)		;   
136754: 036406 004011       	bit	4011(r4),r6		; .=..
136760: 000000              	halt				; ..
;
136762: 040517              	bic	r5,(r7)			; OA
136764: 000000              	halt				; ..
;
136766: 042516              	bic	(r5)+,(r6)		; NE
136770: 052130              	bis	(r1)+,@(r0)+		; XT
136772: 041040              	bic	(r0),-(r0)		;  B
136774: 047101 020104       	bic	@20104(r1),r1		; AND 
137000: 036407 004011       	bit	4011(r4),r7		; .=..
137004: 000000              	halt				; ..
;
137006: 040517              	bic	r5,(r7)			; OA
137010: 000000              	halt				; ..
;
137012: 052516              	bis	(r5)+,(r6)		; NU
137014: 041115              	bic	(r1),(r5)		; MB
137016: 051105              	bis	(r1),r5			; ER
137020: 020040              	cmp	r0,-(r0)		;   
137022: 020040              	cmp	r0,-(r0)		;   
137024: 036410 004011       	bit	4011(r4),(r0)		; .=..
137030: 000000              	halt				; ..
;
137032: 040517              	bic	r5,(r7)			; OA
137034: 000000              	halt				; ..
;
137036: 020040              	cmp	r0,-(r0)		;   
137040: 020040              	cmp	r0,-(r0)		;   
137042: 020040              	cmp	r0,-(r0)		;   
137044: 020040              	cmp	r0,-(r0)		;   
137046: 020040              	cmp	r0,-(r0)		;   
137050: 031026              	bit	(r0),(r6)+		; .2
137052: 000016              	invalid opcode			; ..
137054: 000000              	halt				; ..
;
137056: 040517              	bic	r5,(r7)			; OA
137060: 000000              	halt				; ..
;
137062: 055433              	bis	@-(r4),@(r3)+		; .[
137064: 041061 071120       	bic	(r0),71120(r1)		; 1BPr
137070: 062157              	add	(r1)+,@-(r7)		; od
137072: 061565 020164       	add	(r5),20164(r5)		; uct 
137076: 063157              	add	@(r1)+,@-(r7)		; of
137100: 031026              	bit	(r0),(r6)+		; .2
137102: 000034              	invalid opcode			; ..
137104: 000000              	halt				; ..
;
137106: 040517              	bic	r5,(r7)			; OA
137110: 000000              	halt				; ..
;
137112: 055433              	bis	@-(r4),@(r3)+		; .[
137114: 041062 067503       	bic	(r0),67503(r2)		; 2BCo
137120: 070155              	mul	@-(r5),r1		; mp
137122: 072165 071145       	ash	71145(r5),r1		; uter
137126: 050040              	bis	r0,-(r0)		;  P
137130: 067562 062543 071563	add	@62543(r5),71563(r2)	; rocess
137136: 041440              	bic	(r4),-(r0)		;  C
137140: 067157 071164       	add	@71164(r1),@-(r7)	; ontr
137144: 066157 000427       	add	427(r1),@-(r7)		; ol..
137150: 001401              	beq	37154			; ..
137152: 004046              	jsr	r0,-(r6)		; &.
137154: 000000              	halt				; ..
;
137156: 040517              	bic	r5,(r7)			; OA
137160: 141714              	bicb	(r7),(r4)		; LC
137162: 001402              	beq	37170			; ..
137164: 004046              	jsr	r0,-(r6)		; &.
137166: 000000              	halt				; ..
;
137170: 040517              	bic	r5,(r7)			; OA
137172: 141762 021004       	bicb	(r7),21004(r2)		; rC."
137176: 000014              	invalid opcode			; ..
137200: 000000              	halt				; ..
;
137202: 041117              	bic	(r1),(r7)		; OB
137204: 000000              	halt				; ..
;
137206: 047504 052503       	bic	@52503(r5),r4		; DOCU
137212: 042515              	bic	(r5)+,(r5)		; ME
137214: 052116              	bis	(r1)+,(r6)		; NT
137216: 021440              	cmp	(r4),-(r0)		;  #
137220: 034462 000407       	bit	-(r4),407(r2)		; 29..
137224: 004026              	jsr	r0,(r6)+		; ..
137226: 000000              	halt				; ..
;
137230: 040517              	bic	r5,(r7)			; OA
137232: 000000              	halt				; ..
;
137234: 044520              	bic	-(r5),(r0)+		; PI
137236: 045503              	bic	@-(r5),r3		; CK
137240: 042514              	bic	(r5)+,(r4)		; LE
137242: 015522              	mov	@-(r5),(r2)+		; R.
137244: 030533              	bit	r5,@(r3)+		; [1
137246: 015502              	mov	@-(r5),r2		; B.
137250: 033533              	bit	@(r5)+,@(r3)+		; [7
137252: 047104 046525       	bic	@46525(r1),r4		; DNUM
137256: 042502              	bic	(r5)+,r2		; BE
137260: 020122              	cmp	r1,(r2)+		; R 
137262: 005007              	clr	r7			; ..
137264: 004022              	jsr	r0,(r2)+		; ..
137266: 000000              	halt				; ..
;
137270: 040517              	bic	r5,(r7)			; OA
137272: 000000              	halt				; ..
;
137274: 047515 052116       	bic	@52116(r5),(r5)		; MONT
137300: 015510              	mov	@-(r5),(r0)		; H.
137302: 030533              	bit	r5,@(r3)+		; [1
137304: 015502              	mov	@-(r5),r2		; B.
137306: 032533              	bit	(r5)+,@(r3)+		; [5
137310: 020104              	cmp	r1,r4			; D 
137312: 020040              	cmp	r0,-(r0)		;   
137314: 020040              	cmp	r0,-(r0)		;   
137316: 010407              	mov	r4,r7			; ..
137320: 004016              	jsr	r0,(r6)			; ..
137322: 000000              	halt				; ..
;
137324: 040517              	bic	r5,(r7)			; OA
137326: 000000              	halt				; ..
;
137330: 040504              	bic	r5,r4			; DA
137332: 015531              	mov	@-(r5),@(r1)+		; Y.
137334: 030533              	bit	r5,@(r3)+		; [1
137336: 015502              	mov	@-(r5),r2		; B.
137340: 031533              	bit	(r5),@(r3)+		; [3
137342: 020104              	cmp	r1,r4			; D 
137344: 020040              	cmp	r0,-(r0)		;   
137346: 013007              	mov	@(r0)+,r7		; ..
137350: 004020              	jsr	r0,(r0)+		; ..
137352: 000000              	halt				; ..
;
137354: 040517              	bic	r5,(r7)			; OA
137356: 000000              	halt				; ..
;
137360: 052524              	bis	(r5)+,(r4)+		; TU
137362: 047122 055433       	bic	@55433(r1),(r2)+	; RN.[
137366: 041061 055433       	bic	(r0),55433(r1)		; 1B.[
137372: 042064 020040       	bic	(r0)+,20040(r4)		; 4D  
137376: 020040              	cmp	r0,-(r0)		;   
137400: 031026              	bit	(r0),(r6)+		; .2
137402: 000016              	invalid opcode			; ..
137404: 000000              	halt				; ..
;
137406: 040517              	bic	r5,(r7)			; OA
137410: 000000              	halt				; ..
;
137412: 055433              	bis	@-(r4),@(r3)+		; .[
137414: 041061 071120       	bic	(r0),71120(r1)		; 1BPr
137420: 062157              	add	(r1)+,@-(r7)		; od
137422: 061565 020164       	add	(r5),20164(r5)		; uct 
137426: 063157              	add	@(r1)+,@-(r7)		; of
137430: 031026              	bit	(r0),(r6)+		; .2
137432: 000034              	invalid opcode			; ..
137434: 000000              	halt				; ..
;
137436: 040517              	bic	r5,(r7)			; OA
137440: 000000              	halt				; ..
;
137442: 055433              	bis	@-(r4),@(r3)+		; .[
137444: 041062 067503       	bic	(r0),67503(r2)		; 2BCo
137450: 070155              	mul	@-(r5),r1		; mp
137452: 072165 071145       	ash	71145(r5),r1		; uter
137456: 050040              	bis	r0,-(r0)		;  P
137460: 067562 062543 071563	add	@62543(r5),71563(r2)	; rocess
137466: 041440              	bic	(r4),-(r0)		;  C
137470: 067157 071164       	add	@71164(r1),@-(r7)	; ontr
137474: 066157 000427       	add	427(r1),@-(r7)		; ol..
137500: 001023              	bne	37550			; ..
137502: 050006              	bis	r0,r6			; .P
137504: 020602              	cmp	r6,r2			; .!
137506: 047112 000000       	bic	@0(r1),(r2)		; JN..
137512: 005023              	clr	(r3)+			; ..
137514: 020004              	cmp	r0,r4			; . 
137516: 020602              	cmp	r6,r2			; .!
137520: 047112 000000       	bic	@0(r1),(r2)		; JN..
137524: 011423              	mov	(r4),(r3)+		; ..
137526: 010002              	mov	r0,r2			; ..
137530: 000000              	halt				; ..
;
137532: 040512              	bic	r5,(r2)			; JA
137534: 000000              	halt				; ..
;
137536: 012423              	mov	(r4)+,(r3)+		; ..
137540: 010003              	mov	r0,r3			; ..
137542: 000000              	halt				; ..
;
137544: 047112 000000       	bic	@0(r1),(r2)		; JN..
137550: 014023              	mov	-(r0),(r3)+		; ..
137552: 000003              	bpt				; ..
137554: 000000              	halt				; ..
;
137556: 047112 000000       	bic	@0(r1),(r2)		; JN..
137562: 015423              	mov	@-(r4),(r3)+		; ..
137564: 000001              	wait				; ..
137566: 000000              	halt				; ..
;
137570: 040517              	bic	r5,(r7)			; OA
137572: 133573 016023       	bitb	@(r5)+,@16023(r3)	; {7..
137576: 000001              	wait				; ..
137600: 000000              	halt				; ..
;
137602: 047112 000000       	bic	@0(r1),(r2)		; JN..
137606: 017423 000005       	mov	@5(r4),(r3)+		; ....
137612: 000000              	halt				; ..
;
137614: 047112 000000       	bic	@0(r1),(r2)		; JN..
137620: 023423              	cmp	@(r4)+,(r3)+		; .'
137622: 020002              	cmp	r0,r2			; . 
137624: 020602              	cmp	r6,r2			; .!
137626: 047112 000000       	bic	@0(r1),(r2)		; JN..
137632: 025023              	cmp	@-(r0),(r3)+		; .*
137634: 020002              	cmp	r0,r2			; . 
137636: 020602              	cmp	r6,r2			; .!
137640: 047112 000000       	bic	@0(r1),(r2)		; JN..
137644: 026023 000001       	cmp	1(r0),(r3)+		; .,..
137650: 000000              	halt				; ..
;
137652: 040517              	bic	r5,(r7)			; OA
137654: 133572 026423       	bitb	@(r5)+,@26423(r2)	; z7.-
137660: 020002              	cmp	r0,r2			; . 
137662: 020602              	cmp	r6,r2			; .!
137664: 047112 000000       	bic	@0(r1),(r2)		; JN..
137670: 031423              	bit	(r4),(r3)+		; .3
137672: 000001              	wait				; ..
137674: 000000              	halt				; ..
;
137676: 040517              	bic	r5,(r7)			; OA
137700: 133574 032023       	bitb	@(r5)+,@32023(r4)	; |7.4
137704: 020003              	cmp	r0,r3			; . 
137706: 020602              	cmp	r6,r2			; .!
137710: 047112 000000       	bic	@0(r1),(r2)		; JN..
137714: 035423              	bit	@-(r4),(r3)+		; .;
137716: 000004              	iot				; ..
137720: 000000              	halt				; ..
;
137722: 047112 000000       	bic	@0(r1),(r2)		; JN..
137726: 042023              	bic	(r0)+,(r3)+		; .D
137730: 000005              	reset				; ..
137732: 000000              	halt				; ..
;
137734: 041112              	bic	(r1),(r2)		; JB
137736: 000000              	halt				; ..
;
137740: 046423 000001       	bic	1(r4),(r3)+		; .M..
137744: 000000              	halt				; ..
;
137746: 040512              	bic	r5,(r2)			; JA
137750: 000000              	halt				; ..
;
137752: 051423              	bis	(r4),(r3)+		; .S
137754: 000001              	wait				; ..
137756: 000000              	halt				; ..
;
137760: 047112 000000       	bic	@0(r1),(r2)		; JN..
137764: 056023 010005       	bis	10005(r0),(r3)+		; .\..
137770: 000000              	halt				; ..
;
137772: 041112              	bic	(r1),(r2)		; JB
137774: 000000              	halt				; ..
;
137776: 063023              	add	@(r0)+,(r3)+		; .f
140000: 010002              	mov	r0,r2			; ..
140002: 000000              	halt				; ..
;
140004: 041112              	bic	(r1),(r2)		; JB
140006: 000000              	halt				; ..
;
140010: 067023 010003       	add	@10003(r0),(r3)+	; .n..
140014: 000000              	halt				; ..
;
140016: 040512              	bic	r5,(r2)			; JA
140020: 000000              	halt				; ..
;
140022: 072423              	ash	(r3)+,r4		; .u
140024: 010002              	mov	r0,r2			; ..
140026: 000000              	halt				; ..
;
140030: 047112 000000       	bic	@0(r1),(r2)		; JN..
140034: 075423              	invalid opcode			; .{
140036: 010001              	mov	r0,r1			; ..
140040: 000000              	halt				; ..
;
140042: 047112 000000       	bic	@0(r1),(r2)		; JN..
140046: 100423              	bmi	40116			; ..
140050: 010001              	mov	r0,r1			; ..
140052: 000000              	halt				; ..
;
140054: 047112 000000       	bic	@0(r1),(r2)		; JN..
140060: 000427              	br	40140			; ..
;
140062: 001023              	bne	40132			; ..
140064: 000006              	rtt				; ..
;
140066: 000000              	halt				; ..
;
140070: 047112 000000       	bic	@0(r1),(r2)		; JN..
140074: 004023              	jsr	r0,(r3)+		; ..
140076: 000001              	wait				; ..
140100: 000000              	halt				; ..
;
140102: 040517              	bic	r5,(r7)			; OA
140104: 133573 004423       	bitb	@(r5)+,@4423(r3)	; {7..
140110: 000001              	wait				; ..
140112: 000000              	halt				; ..
;
140114: 047112 000000       	bic	@0(r1),(r2)		; JN..
140120: 006023              	ror	(r3)+			; ..
140122: 000004              	iot				; ..
140124: 000000              	halt				; ..
;
140126: 047112 000000       	bic	@0(r1),(r2)		; JN..
140132: 012023              	mov	(r0)+,(r3)+		; ..
140134: 000004              	iot				; ..
140136: 000000              	halt				; ..
;
140140: 041112              	bic	(r1),(r2)		; JB
140142: 000000              	halt				; ..
;
140144: 015423              	mov	@-(r4),(r3)+		; ..
140146: 000002              	rti				; ..
;
140150: 000000              	halt				; ..
;
140152: 041112              	bic	(r1),(r2)		; JB
140154: 000000              	halt				; ..
;
140156: 017023 000002       	mov	@2(r0),(r3)+		; ....
140162: 000000              	halt				; ..
;
140164: 041112              	bic	(r1),(r2)		; JB
140166: 000000              	halt				; ..
;
140170: 020023              	cmp	r0,(r3)+		; . 
140172: 000001              	wait				; ..
140174: 000000              	halt				; ..
;
140176: 040517              	bic	r5,(r7)			; OA
140200: 133572 020423       	bitb	@(r5)+,@20423(r2)	; z7.!
140204: 000002              	rti				; ..
;
140206: 000000              	halt				; ..
;
140210: 041112              	bic	(r1),(r2)		; JB
140212: 000000              	halt				; ..
;
140214: 023423              	cmp	@(r4)+,(r3)+		; .'
140216: 000001              	wait				; ..
140220: 000000              	halt				; ..
;
140222: 040517              	bic	r5,(r7)			; OA
140224: 133574 024023       	bitb	@(r5)+,@24023(r4)	; |7.(
140230: 000004              	iot				; ..
140232: 000000              	halt				; ..
;
140234: 041112              	bic	(r1),(r2)		; JB
140236: 000000              	halt				; ..
;
140240: 027423 000006       	cmp	@6(r4),(r3)+		; ./..
140244: 000000              	halt				; ..
;
140246: 041112              	bic	(r1),(r2)		; JB
140250: 000000              	halt				; ..
;
140252: 032423              	bit	(r4)+,(r3)+		; .5
140254: 000001              	wait				; ..
140256: 000000              	halt				; ..
;
140260: 040517              	bic	r5,(r7)			; OA
140262: 133573 033023       	bitb	@(r5)+,@33023(r3)	; {7.6
140266: 000001              	wait				; ..
140270: 000000              	halt				; ..
;
140272: 041112              	bic	(r1),(r2)		; JB
140274: 000000              	halt				; ..
;
140276: 034423              	bit	-(r4),(r3)+		; .9
140300: 000005              	reset				; ..
140302: 000000              	halt				; ..
;
140304: 041112              	bic	(r1),(r2)		; JB
140306: 000000              	halt				; ..
;
140310: 041023              	bic	(r0),(r3)+		; .B
140312: 000004              	iot				; ..
140314: 000000              	halt				; ..
;
140316: 041112              	bic	(r1),(r2)		; JB
140320: 000000              	halt				; ..
;
140322: 000427              	br	40402			; ..
;
140324: 002423              	blt	40374			; ..
140326: 000001              	wait				; ..
140330: 000000              	halt				; ..
;
140332: 041112              	bic	(r1),(r2)		; JB
140334: 000000              	halt				; ..
;
140336: 011023              	mov	(r0),(r3)+		; ..
140340: 000001              	wait				; ..
140342: 000000              	halt				; ..
;
140344: 041112              	bic	(r1),(r2)		; JB
140346: 000000              	halt				; ..
;
140350: 015023              	mov	@-(r0),(r3)+		; ..
140352: 000006              	rtt				; ..
;
140354: 000000              	halt				; ..
;
140356: 047112 000000       	bic	@0(r1),(r2)		; JN..
140362: 020023              	cmp	r0,(r3)+		; . 
140364: 000001              	wait				; ..
140366: 000000              	halt				; ..
;
140370: 040517              	bic	r5,(r7)			; OA
140372: 133573 020423       	bitb	@(r5)+,@20423(r3)	; {7.!
140376: 000001              	wait				; ..
140400: 000000              	halt				; ..
;
140402: 047112 000000       	bic	@0(r1),(r2)		; JN..
140406: 023423              	cmp	@(r4)+,(r3)+		; .'
140410: 000006              	rtt				; ..
;
140412: 000000              	halt				; ..
;
140414: 041112              	bic	(r1),(r2)		; JB
140416: 000000              	halt				; ..
;
140420: 026423 000001       	cmp	1(r4),(r3)+		; .-..
140424: 000000              	halt				; ..
;
140426: 040517              	bic	r5,(r7)			; OA
140430: 133573 027023       	bitb	@(r5)+,@27023(r3)	; {7..
140434: 000001              	wait				; ..
140436: 000000              	halt				; ..
;
140440: 041112              	bic	(r1),(r2)		; JB
140442: 000000              	halt				; ..
;
140444: 031023              	bit	(r0),(r3)+		; .2
140446: 000006              	rtt				; ..
;
140450: 000000              	halt				; ..
;
140452: 041112              	bic	(r1),(r2)		; JB
140454: 000000              	halt				; ..
;
140456: 034023              	bit	-(r0),(r3)+		; .8
140460: 000001              	wait				; ..
140462: 000000              	halt				; ..
;
140464: 040517              	bic	r5,(r7)			; OA
140466: 133573 034423       	bitb	@(r5)+,@34423(r3)	; {7.9
140472: 000001              	wait				; ..
140474: 000000              	halt				; ..
;
140476: 041112              	bic	(r1),(r2)		; JB
140500: 000000              	halt				; ..
;
140502: 036423 000006       	bit	6(r4),(r3)+		; .=..
140506: 000000              	halt				; ..
;
140510: 041112              	bic	(r1),(r2)		; JB
140512: 000000              	halt				; ..
;
140514: 041423              	bic	(r4),(r3)+		; .C
140516: 000001              	wait				; ..
140520: 000000              	halt				; ..
;
140522: 040517              	bic	r5,(r7)			; OA
140524: 133573 042023       	bitb	@(r5)+,@42023(r3)	; {7.D
140530: 000001              	wait				; ..
140532: 000000              	halt				; ..
;
140534: 041112              	bic	(r1),(r2)		; JB
140536: 000000              	halt				; ..
;
140540: 000427              	br	40620			; ..
;
140542: 001023              	bne	40612			; ..
140544: 010001              	mov	r0,r1			; ..
140546: 000000              	halt				; ..
;
140550: 047112 000000       	bic	@0(r1),(r2)		; JN..
140554: 005423              	neg	(r3)+			; ..
140556: 010002              	mov	r0,r2			; ..
140560: 000000              	halt				; ..
;
140562: 047112 000000       	bic	@0(r1),(r2)		; JN..
140566: 010423              	mov	r4,(r3)+		; ..
140570: 010002              	mov	r0,r2			; ..
140572: 000000              	halt				; ..
;
140574: 047112 000000       	bic	@0(r1),(r2)		; JN..
140600: 013423              	mov	@(r4)+,(r3)+		; ..
140602: 010001              	mov	r0,r1			; ..
140604: 000000              	halt				; ..
;
140606: 047112 000000       	bic	@0(r1),(r2)		; JN..
140612: 000427              	br	40672			; ..
;
140614: 001401              	beq	40620			; ..
140616: 004046              	jsr	r0,-(r6)		; &.
140620: 000000              	halt				; ..
;
140622: 040517              	bic	r5,(r7)			; OA
140624: 141714              	bicb	(r7),(r4)		; LC
140626: 001402              	beq	40634			; ..
140630: 004046              	jsr	r0,-(r6)		; &.
140632: 000000              	halt				; ..
;
140634: 040517              	bic	r5,(r7)			; OA
140636: 141762 011405       	bicb	(r7),11405(r2)		; rC..
140642: 002007              	bge	40662			; ..
140644: 000000              	halt				; ..
;
140646: 040517              	bic	r5,(r7)			; OA
140650: 142030              	bicb	(r0)+,@(r0)+		; .D
140652: 011406              	mov	(r4),r6			; ..
140654: 002007              	bge	40674			; ..
140656: 000000              	halt				; ..
;
140660: 040517              	bic	r5,(r7)			; OA
140662: 142040              	bicb	(r0)+,-(r0)		;  D
140664: 002411              	blt	40710			; ..
140666: 004002              	jsr	r0,r2			; ..
140670: 000000              	halt				; ..
;
140672: 047117 000000       	bic	@0(r1),(r7)		; ON..
140676: 020061 005011       	cmp	r0,5011(r1)		; 1 ..
140702: 000042              	invalid opcode			; ".
140704: 000000              	halt				; ..
;
140706: 041117              	bic	(r1),(r7)		; OB
140710: 000000              	halt				; ..
;
140712: 042101              	bic	(r1)+,r1		; AD
140714: 020104              	cmp	r1,r4			; D 
140716: 047503 046111       	bic	@46111(r5),r3		; COIL
140722: 020123              	cmp	r1,(r3)+		; S 
140724: 047524 050040       	bic	@50040(r5),(r4)+	; TO P
140730: 041511              	bic	(r5),(r1)		; IC
140732: 046113 042105       	bic	42105(r1),(r3)		; KLED
140736: 044440              	bic	-(r4),-(r0)		;  I
140740: 053116              	bis	@(r1)+,(r6)		; NV
140742: 047105 047524       	bic	@47524(r1),r5		; ENTO
140746: 054522              	bis	-(r5),(r2)+		; RY
140750: 036440 020076       	bit	20076(r4),-(r0)		;  => 
140754: 026411 004014       	cmp	4014(r4),(r1)		; .-..
140760: 000000              	halt				; ..
;
140762: 041117              	bic	(r1),(r7)		; OB
140764: 000000              	halt				; ..
;
140766: 047504 052503       	bic	@52503(r5),r4		; DOCU
140772: 042515              	bic	(r5)+,(r5)		; ME
140774: 052116              	bis	(r1)+,(r6)		; NT
140776: 021440              	cmp	(r4),-(r0)		;  #
141000: 030462 002413       	bit	r4,2413(r2)		; 21..
141004: 004002              	jsr	r0,r2			; ..
141006: 000000              	halt				; ..
;
141010: 047117 000000       	bic	@0(r1),(r7)		; ON..
141014: 020062 005013       	cmp	r0,5013(r2)		; 2 ..
141020: 000034              	invalid opcode			; ..
141022: 000000              	halt				; ..
;
141024: 041117              	bic	(r1),(r7)		; OB
141026: 000000              	halt				; ..
;
141030: 047503 051122       	bic	@51122(r5),r3		; CORR
141034: 041505              	bic	(r5),r5			; EC
141036: 020124              	cmp	r1,(r4)+		; T 
141040: 044520              	bic	-(r5),(r0)+		; PI
141042: 045503              	bic	@-(r5),r3		; CK
141044: 042514              	bic	(r5)+,(r4)		; LE
141046: 020104              	cmp	r1,r4			; D 
141050: 047111 042526       	bic	@42526(r1),(r1)		; INVE
141054: 052116              	bis	(r1)+,(r6)		; NT
141056: 051117              	bis	(r1),(r7)		; OR
141060: 020131              	cmp	r1,@(r1)+		; Y 
141062: 037075 024013 004014	bit	@24013(r0),@4014(r5)	; =>.(..
141070: 000000              	halt				; ..
;
141072: 041117              	bic	(r1),(r7)		; OB
141074: 000000              	halt				; ..
;
141076: 047504 052503       	bic	@52503(r5),r4		; DOCU
141102: 042515              	bic	(r5)+,(r5)		; ME
141104: 052116              	bis	(r1)+,(r6)		; NT
141106: 021440              	cmp	(r4),-(r0)		;  #
141110: 031462 002415       	bit	(r4),2415(r2)		; 23..
141114: 004002              	jsr	r0,r2			; ..
141116: 000000              	halt				; ..
;
141120: 047117 000000       	bic	@0(r1),(r7)		; ON..
141124: 020063 005015       	cmp	r0,5015(r3)		; 3 ..
141130: 000046              	invalid opcode			; &.
141132: 000000              	halt				; ..
;
141134: 041117              	bic	(r1),(r7)		; OB
141136: 000000              	halt				; ..
;
141140: 042522              	bic	(r5)+,(r2)+		; RE
141142: 047515 042526       	bic	@42526(r5),(r5)		; MOVE
141146: 041440              	bic	(r4),-(r0)		;  C
141150: 044517              	bic	-(r5),(r7)		; OI
141152: 051514              	bis	(r5),(r4)		; LS
141154: 043040              	bic	@(r0)+,-(r0)		;  F
141156: 047522 020115       	bic	@20115(r5),(r2)+	; ROM 
141162: 044520              	bic	-(r5),(r0)+		; PI
141164: 045503              	bic	@-(r5),r3		; CK
141166: 042514              	bic	(r5)+,(r4)		; LE
141170: 020104              	cmp	r1,r4			; D 
141172: 047111 042526       	bic	@42526(r1),(r1)		; INVE
141176: 052116              	bis	(r1)+,(r6)		; NT
141200: 051117              	bis	(r1),(r7)		; OR
141202: 020131              	cmp	r1,@(r1)+		; Y 
141204: 037075 031015 004014	bit	@31015(r0),@4014(r5)	; =>.2..
141212: 000000              	halt				; ..
;
141214: 041117              	bic	(r1),(r7)		; OB
141216: 000000              	halt				; ..
;
141220: 047504 052503       	bic	@52503(r5),r4		; DOCU
141224: 042515              	bic	(r5)+,(r5)		; ME
141226: 052116              	bis	(r1)+,(r6)		; NT
141230: 021440              	cmp	(r4),-(r0)		;  #
141232: 032062 002417       	bit	(r0)+,2417(r2)		; 24..
141236: 004002              	jsr	r0,r2			; ..
141240: 000000              	halt				; ..
;
141242: 047117 000000       	bic	@0(r1),(r7)		; ON..
141246: 020064 005017       	cmp	r0,5017(r4)		; 4 ..
141252: 000034              	invalid opcode			; ..
141254: 000000              	halt				; ..
;
141256: 041117              	bic	(r1),(r7)		; OB
141260: 000000              	halt				; ..
;
141262: 044520              	bic	-(r5),(r0)+		; PI
141264: 045503              	bic	@-(r5),r3		; CK
141266: 042514              	bic	(r5)+,(r4)		; LE
141270: 020122              	cmp	r1,(r2)+		; R 
141272: 051120              	bis	(r1),(r0)+		; PR
141274: 042117              	bic	(r1)+,(r7)		; OD
141276: 041525              	bic	(r5),(r5)+		; UC
141300: 044524              	bic	-(r5),(r4)+		; TI
141302: 047117 051040       	bic	@51040(r1),(r7)		; ON R
141306: 050105              	bis	r1,r5			; EP
141310: 051117              	bis	(r1),(r7)		; OR
141312: 020124              	cmp	r1,(r4)+		; T 
141314: 037075 024017 004014	bit	@24017(r0),@4014(r5)	; =>.(..
141322: 000000              	halt				; ..
;
141324: 041117              	bic	(r1),(r7)		; OB
141326: 000000              	halt				; ..
;
141330: 047504 052503       	bic	@52503(r5),r4		; DOCU
141334: 042515              	bic	(r5)+,(r5)		; ME
141336: 052116              	bis	(r1)+,(r6)		; NT
141340: 021440              	cmp	(r4),-(r0)		;  #
141342: 034462 002421       	bit	-(r4),2421(r2)		; 29..
141346: 004002              	jsr	r0,r2			; ..
141350: 000000              	halt				; ..
;
141352: 047117 000000       	bic	@0(r1),(r7)		; ON..
141356: 020065 005021       	cmp	r0,5021(r5)		; 5 ..
141362: 000010              	invalid opcode			; ..
141364: 000000              	halt				; ..
;
141366: 041117              	bic	(r1),(r7)		; OB
141370: 000000              	halt				; ..
;
141372: 042523              	bic	(r5)+,(r3)+		; SE
141374: 052503              	bis	(r5)+,r3		; CU
141376: 044522              	bic	-(r5),(r2)+		; RI
141400: 054524              	bis	-(r5),(r4)+		; TY
141402: 005023              	clr	(r3)+			; ..
141404: 004026              	jsr	r0,(r6)+		; ..
141406: 000000              	halt				; ..
;
141410: 040517              	bic	r5,(r7)			; OA
141412: 000000              	halt				; ..
;
141414: 047105 042524       	bic	@42524(r1),r5		; ENTE
141420: 020122              	cmp	r1,(r2)+		; R 
141422: 042523              	bic	(r5)+,(r3)+		; SE
141424: 042514              	bic	(r5)+,(r4)		; LE
141426: 052103              	bis	(r1)+,r3		; CT
141430: 047511 020116       	bic	@20116(r5),(r1)		; ION 
141434: 052516              	bis	(r5)+,(r6)		; NU
141436: 041115              	bic	(r1),(r5)		; MB
141440: 051105              	bis	(r1),r5			; ER
141442: 020423              	cmp	r4,(r3)+		; .!
141444: 000001              	wait				; ..
141446: 000000              	halt				; ..
;
141450: 042112              	bic	(r1)+,(r2)		; JD
141452: 012124              	mov	(r1)+,(r4)+		; T.
141454: 031026              	bit	(r0),(r6)+		; .2
141456: 000016              	invalid opcode			; ..
141460: 000000              	halt				; ..
;
141462: 040517              	bic	r5,(r7)			; OA
141464: 000000              	halt				; ..
;
141466: 055433              	bis	@-(r4),@(r3)+		; .[
141470: 041061 071120       	bic	(r0),71120(r1)		; 1BPr
141474: 062157              	add	(r1)+,@-(r7)		; od
141476: 061565 020164       	add	(r5),20164(r5)		; uct 
141502: 063157              	add	@(r1)+,@-(r7)		; of
141504: 031026              	bit	(r0),(r6)+		; .2
141506: 000034              	invalid opcode			; ..
141510: 000000              	halt				; ..
;
141512: 040517              	bic	r5,(r7)			; OA
141514: 000000              	halt				; ..
;
141516: 055433              	bis	@-(r4),@(r3)+		; .[
141520: 041062 067503       	bic	(r0),67503(r2)		; 2BCo
141524: 070155              	mul	@-(r5),r1		; mp
141526: 072165 071145       	ash	71145(r5),r1		; uter
141532: 050040              	bis	r0,-(r0)		;  P
141534: 067562 062543 071563	add	@62543(r5),71563(r2)	; rocess
141542: 041440              	bic	(r4),-(r0)		;  C
141544: 067157 071164       	add	@71164(r1),@-(r7)	; ontr
141550: 066157 000427       	add	427(r1),@-(r7)		; ol..
141554: 012704 142326       	mov	#142326,r4		; D.VD
141560: 012737 000001 013636	mov	#1,@#13636		; _.....
141566: 012400              	mov	(r4)+,r0		; ..
141570: 012401              	mov	(r4)+,r1		; ..
141572: 001403              	beq	41602			; ..
141574: 104400              	trap	0			; ..
141576: 000442              	br	41704			; ".
;
141600: 000772              	br	41566			; z.
;
141602: 012700 013770       	mov	#13770,r0		; @.x.
141606: 012701 004540       	mov	#4540,r1		; A.`.
141612: 105020              	clrb	(r0)+			; ..
141614: 077102              	sob	r1,41612		; B~
141616: 012700 013650       	mov	#13650,r0		; @.(.
141622: 005020              	clr	(r0)+			; ..
141624: 020027 013770       	cmp	r0,#13770		; . x.
141630: 002774              	blt	41622			; |.
141632: 012700 013650       	mov	#13650,r0		; @.(.
141636: 012701 013770       	mov	#13770,r1		; A.x.
141642: 010120              	mov	r1,(r0)+		; P.
141644: 062701 000074       	add	#74,r1			; Ae<.
141650: 020027 013770       	cmp	r0,#13770		; . x.
141654: 002772              	blt	41642			; z.
141656: 012700 000050       	mov	#50,r0			; @.(.
141662: 012701 020530       	mov	#20530,r1		; A.X!
141666: 112721 177777       	movb	#177777,(r1)+		; Q...
141672: 077003              	sob	r0,41666		; .~
141674: 012701 142116       	mov	#142116,r1		; A.ND
141700: 104413              	trap	13			; ..
141702: 104406              	trap	6			; ..
141704: 012701 142050       	mov	#142050,r1		; A.(D
141710: 104413              	trap	13			; ..
141712: 000725              	br	41566			; U.
;
141714: 021433              	cmp	(r4),@(r3)+		; .#
141716: 020063 051120       	cmp	r0,51120(r3)		; 3 PR
141722: 042117              	bic	(r1)+,(r7)		; OD
141724: 041525              	bic	(r5),(r5)+		; UC
141726: 044524              	bic	-(r5),(r4)+		; TI
141730: 047117 051040       	bic	@51040(r1),(r7)		; ON R
141734: 050105              	bis	r1,r5			; EP
141736: 051117              	bis	(r1),(r7)		; OR
141740: 044524              	bic	-(r5),(r4)+		; TI
141742: 043516              	bic	@(r5)+,(r6)		; NG
141744: 040440              	bic	r4,-(r0)		;  A
141746: 042116              	bic	(r1)+,(r6)		; ND
141750: 050040              	bis	r0,-(r0)		;  P
141752: 040514              	bic	r5,(r4)			; LA
141754: 047116 047111       	bic	@47111(r1),(r6)		; NNIN
141760: 020107              	cmp	r1,r7			; G 
141762: 021433              	cmp	(r4),@(r3)+		; .#
141764: 020064 051120       	cmp	r0,51120(r4)		; 4 PR
141770: 042117              	bic	(r1)+,(r7)		; OD
141772: 041525              	bic	(r5),(r5)+		; UC
141774: 044524              	bic	-(r5),(r4)+		; TI
141776: 047117 051040       	bic	@51040(r1),(r7)		; ON R
142002: 050105              	bis	r1,r5			; EP
142004: 051117              	bis	(r1),(r7)		; OR
142006: 044524              	bic	-(r5),(r4)+		; TI
142010: 043516              	bic	@(r5)+,(r6)		; NG
142012: 040440              	bic	r4,-(r0)		;  A
142014: 042116              	bic	(r1)+,(r6)		; ND
142016: 050040              	bis	r0,-(r0)		;  P
142020: 040514              	bic	r5,(r4)			; LA
142022: 047116 047111       	bic	@47111(r1),(r6)		; NNIN
142026: 020107              	cmp	r1,r7			; G 
142030: 021433              	cmp	(r4),@(r3)+		; .#
142032: 046463 047105 000125	bic	47105(r4),125(r3)	; 3MENU.
142040: 021433              	cmp	(r4),@(r3)+		; .#
142042: 046464 047105 000125	bic	47105(r4),125(r4)	; 4MENU.
142050: 052123              	bis	(r1)+,(r3)+		; ST
142052: 051101              	bis	(r1),r1			; AR
142054: 052524              	bis	(r5)+,(r4)+		; TU
142056: 020120              	cmp	r1,(r0)+		; P 
142060: 044502              	bic	-(r5),r2		; BI
142062: 020104              	cmp	r1,r4			; D 
142064: 051105              	bis	(r1),r5			; ER
142066: 047522 020122       	bic	@20122(r5),(r2)+	; ROR 
142072: 044502              	bic	-(r5),r2		; BI
142074: 042104              	bic	(r1)+,r4		; DD
142076: 047111 020107       	bic	@20107(r1),(r1)		; ING 
142102: 040524              	bic	r5,(r4)+		; TA
142104: 045523              	bic	@-(r5),(r3)+		; SK
142106: 024040              	cmp	-(r0),-(r0)		;  (
142110: 030122              	bit	r1,(r2)+		; R0
142112: 006451              	mark	51			; ).
142114: 000012              	invalid opcode			; ..
142116: 005015              	clr	(r5)			; ..
142120: 020040              	cmp	r0,-(r0)		;   
142122: 042527 051111       	bic	(r5)+,#51111		; WEIR
142126: 047524 020116       	bic	@20116(r5),(r4)+	; TON 
142132: 052123              	bis	(r1)+,(r3)+		; ST
142134: 042505              	bic	(r5)+,r5		; EE
142136: 020114              	cmp	r1,(r4)			; L 
142140: 047503 050115       	bic	@50115(r5),r3		; COMP
142144: 047101 020131       	bic	@20131(r1),r1		; ANY 
142150: 006440              	mark	40			;  .
142152: 020012              	cmp	r0,(r2)			; . 
142154: 046440 051101       	bic	51101(r4),-(r0)		;  MAR
142160: 020113              	cmp	r1,(r3)			; K 
142162: 047504 052503       	bic	@52503(r5),r4		; DOCU
142166: 042515              	bic	(r5)+,(r5)		; ME
142170: 052116              	bis	(r1)+,(r6)		; NT
142172: 051040              	bis	(r0),-(r0)		;  R
142174: 040505              	bic	r5,r5			; EA
142176: 042504              	bic	(r5)+,r4		; DE
142200: 020122              	cmp	r1,(r2)+		; R 
142202: 046505 046125       	bic	46125(r5),r5		; EMUL
142206: 052101              	bis	(r1)+,r1		; AT
142210: 051117              	bis	(r1),(r7)		; OR
142212: 051440              	bis	(r4),-(r0)		;  S
142214: 051531              	bis	(r5),@(r1)+		; YS
142216: 042524              	bic	(r5)+,(r4)+		; TE
142220: 020115              	cmp	r1,(r5)			; M 
142222: 005015              	clr	(r5)			; ..
142224: 005015              	clr	(r5)			; ..
142226: 042040              	bic	(r0)+,-(r0)		;  D
142230: 041105              	bic	(r1),r5			; EB
142232: 043525              	bic	@(r5)+,(r5)+		; UG
142234: 040440              	bic	r4,-(r0)		;  A
142236: 040526              	bic	r5,(r6)+		; VA
142240: 046111 041101       	bic	41101(r1),(r1)		; ILAB
142244: 042514              	bic	(r5)+,(r4)		; LE
142246: 044440              	bic	-(r4),-(r0)		;  I
142250: 020116              	cmp	r1,(r6)			; N 
142252: 020065 042523       	cmp	r0,42523(r5)		; 5 SE
142256: 047503 042116       	bic	@42116(r5),r3		; COND
142262: 020123              	cmp	r1,(r3)+		; S 
142264: 005015              	clr	(r5)			; ..
142266: 050040              	bis	r0,-(r0)		;  P
142270: 042514              	bic	(r5)+,(r4)		; LE
142272: 051501              	bis	(r5),r1			; AS
142274: 020105              	cmp	r1,r5			; E 
142276: 047105 042524       	bic	@42524(r1),r5		; ENTE
142302: 020122              	cmp	r1,(r2)+		; R 
142304: 040504              	bic	r5,r4			; DA
142306: 042524              	bic	(r5)+,(r4)+		; TE
142310: 040440              	bic	r4,-(r0)		;  A
142312: 042116              	bic	(r1)+,(r6)		; ND
142314: 052040              	bis	(r0)+,-(r0)		;  T
142316: 046511 020105       	bic	20105(r5),(r1)		; IME 
142322: 005015              	clr	(r5)			; ..
142324: 000000              	halt				; ..
;
142326: 000001              	wait				; ..
142330: 001130              	bne	42612			; X.
142332: 000002              	rti				; ..
;
142334: 001130              	bne	42616			; X.
142336: 000003              	bpt				; ..
142340: 001130              	bne	42622			; X.
142342: 000004              	iot				; ..
142344: 001130              	bne	42626			; X.
142346: 000005              	reset				; ..
142350: 001604              	beq	41762			; ..
142352: 000000              	halt				; ..
142354: 000000              	halt				; ..
142356: 000000              	halt				; ..
142360: 000000              	halt				; ..
142362: 000000              	halt				; ..
142364: 000000              	halt				; ..
142366: 000000              	halt				; ..
142370: 000000              	halt				; ..
142372: 000000              	halt				; ..
142374: 000000              	halt				; ..
142376: 000000              	halt				; ..
142400: 000000              	halt				; ..
142402: 000000              	halt				; ..
142404: 000000              	halt				; ..
142406: 000000              	halt				; ..
142410: 000000              	halt				; ..
142412: 000000              	halt				; ..
142414: 000000              	halt				; ..
142416: 000000              	halt				; ..
142420: 000000              	halt				; ..
142422: 000000              	halt				; ..
142424: 000000              	halt				; ..
142426: 000000              	halt				; ..
142430: 000000              	halt				; ..
142432: 000000              	halt				; ..
142434: 000000              	halt				; ..
142436: 000000              	halt				; ..
142440: 000000              	halt				; ..
142442: 000000              	halt				; ..
142444: 000000              	halt				; ..
142446: 000000              	halt				; ..
142450: 000000              	halt				; ..
142452: 000000              	halt				; ..
142454: 000000              	halt				; ..
142456: 000000              	halt				; ..
142460: 000000              	halt				; ..
142462: 000000              	halt				; ..
142464: 000000              	halt				; ..
142466: 000000              	halt				; ..
142470: 000000              	halt				; ..
142472: 000000              	halt				; ..
142474: 000000              	halt				; ..
142476: 000000              	halt				; ..
142500: 000000              	halt				; ..
142502: 000000              	halt				; ..
142504: 000000              	halt				; ..
142506: 000000              	halt				; ..
142510: 000000              	halt				; ..
142512: 000000              	halt				; ..
142514: 000000              	halt				; ..
142516: 000000              	halt				; ..
142520: 000000              	halt				; ..
142522: 000000              	halt				; ..
142524: 000000              	halt				; ..
142526: 000000              	halt				; ..
142530: 000000              	halt				; ..
142532: 000000              	halt				; ..
142534: 000000              	halt				; ..
142536: 000000              	halt				; ..
142540: 000000              	halt				; ..
142542: 000000              	halt				; ..
142544: 000000              	halt				; ..
142546: 000000              	halt				; ..
142550: 000000              	halt				; ..
142552: 000000              	halt				; ..
142554: 000000              	halt				; ..
142556: 000000              	halt				; ..
142560: 000000              	halt				; ..
142562: 000000              	halt				; ..
142564: 000000              	halt				; ..
142566: 000000              	halt				; ..
142570: 000000              	halt				; ..
142572: 000000              	halt				; ..
142574: 000000              	halt				; ..
142576: 000000              	halt				; ..
142600: 000000              	halt				; ..
142602: 000000              	halt				; ..
142604: 000000              	halt				; ..
142606: 000000              	halt				; ..
142610: 000000              	halt				; ..
142612: 000000              	halt				; ..
142614: 000000              	halt				; ..
142616: 000000              	halt				; ..
142620: 000000              	halt				; ..
142622: 000000              	halt				; ..
142624: 000000              	halt				; ..
142626: 000000              	halt				; ..
142630: 000000              	halt				; ..
142632: 000000              	halt				; ..
142634: 000000              	halt				; ..
142636: 000000              	halt				; ..
142640: 000000              	halt				; ..
142642: 000000              	halt				; ..
142644: 000000              	halt				; ..
142646: 000000              	halt				; ..
142650: 000000              	halt				; ..
142652: 000000              	halt				; ..
142654: 000000              	halt				; ..
142656: 000000              	halt				; ..
142660: 000000              	halt				; ..
142662: 000000              	halt				; ..
142664: 000000              	halt				; ..
142666: 000000              	halt				; ..
142670: 000000              	halt				; ..
142672: 000000              	halt				; ..
142674: 000000              	halt				; ..
142676: 000000              	halt				; ..
142700: 000000              	halt				; ..
142702: 000000              	halt				; ..
142704: 000000              	halt				; ..
142706: 000000              	halt				; ..
142710: 000000              	halt				; ..
142712: 000000              	halt				; ..
142714: 000000              	halt				; ..
142716: 000000              	halt				; ..
142720: 000000              	halt				; ..
142722: 000000              	halt				; ..
142724: 000000              	halt				; ..
142726: 000000              	halt				; ..
142730: 000000              	halt				; ..
142732: 000000              	halt				; ..
142734: 000000              	halt				; ..
142736: 000000              	halt				; ..
142740: 000000              	halt				; ..
142742: 000000              	halt				; ..
142744: 000000              	halt				; ..
142746: 000000              	halt				; ..
142750: 000000              	halt				; ..
142752: 000000              	halt				; ..
142754: 000000              	halt				; ..
142756: 000000              	halt				; ..
142760: 000000              	halt				; ..
142762: 000000              	halt				; ..
142764: 000000              	halt				; ..
142766: 000000              	halt				; ..
142770: 000000              	halt				; ..
142772: 000000              	halt				; ..
142774: 000000              	halt				; ..
142776: 000000              	halt				; ..
;
143000: 106427 000340       	mtps	#340			; ..`.
143004: 012706 100000       	mov	#100000,r6		; F...
143010: 000137 100000       	jmp	@#100000		; _...
;
143014: 000000              	halt				; ..
143016: 000000              	halt				; ..
143020: 000000              	halt				; ..
143022: 000000              	halt				; ..
143024: 000000              	halt				; ..
143026: 000000              	halt				; ..
143030: 000000              	halt				; ..
143032: 000000              	halt				; ..
143034: 000000              	halt				; ..
143036: 000000              	halt				; ..
143040: 000000              	halt				; ..
143042: 000000              	halt				; ..
143044: 000000              	halt				; ..
143046: 000000              	halt				; ..
143050: 000000              	halt				; ..
143052: 000000              	halt				; ..
143054: 000000              	halt				; ..
143056: 000000              	halt				; ..
143060: 000000              	halt				; ..
143062: 000000              	halt				; ..
143064: 000000              	halt				; ..
143066: 000000              	halt				; ..
143070: 000000              	halt				; ..
143072: 000000              	halt				; ..
143074: 000000              	halt				; ..
143076: 000000              	halt				; ..
143100: 000000              	halt				; ..
143102: 000000              	halt				; ..
143104: 000000              	halt				; ..
143106: 000000              	halt				; ..
143110: 000000              	halt				; ..
143112: 000000              	halt				; ..
143114: 000000              	halt				; ..
143116: 000000              	halt				; ..
143120: 000000              	halt				; ..
143122: 000000              	halt				; ..
143124: 000000              	halt				; ..
143126: 000000              	halt				; ..
143130: 000000              	halt				; ..
143132: 000000              	halt				; ..
143134: 000000              	halt				; ..
143136: 000000              	halt				; ..
143140: 000000              	halt				; ..
143142: 000000              	halt				; ..
143144: 000000              	halt				; ..
143146: 000000              	halt				; ..
143150: 000000              	halt				; ..
143152: 000000              	halt				; ..
143154: 000000              	halt				; ..
143156: 000000              	halt				; ..
143160: 000000              	halt				; ..
143162: 000000              	halt				; ..
143164: 000000              	halt				; ..
143166: 000000              	halt				; ..
143170: 000000              	halt				; ..
143172: 000000              	halt				; ..
143174: 000000              	halt				; ..
143176: 000000              	halt				; ..
143200: 000000              	halt				; ..
143202: 000000              	halt				; ..
143204: 000000              	halt				; ..
143206: 000000              	halt				; ..
143210: 000000              	halt				; ..
143212: 000000              	halt				; ..
143214: 000000              	halt				; ..
143216: 000000              	halt				; ..
143220: 000000              	halt				; ..
143222: 000000              	halt				; ..
143224: 000000              	halt				; ..
143226: 000000              	halt				; ..
143230: 000000              	halt				; ..
143232: 000000              	halt				; ..
143234: 000000              	halt				; ..
143236: 000000              	halt				; ..
143240: 000000              	halt				; ..
143242: 000000              	halt				; ..
143244: 000000              	halt				; ..
143246: 000000              	halt				; ..
143250: 000000              	halt				; ..
143252: 000000              	halt				; ..
143254: 000000              	halt				; ..
143256: 000000              	halt				; ..
143260: 000000              	halt				; ..
143262: 000000              	halt				; ..
143264: 000000              	halt				; ..
143266: 000000              	halt				; ..
143270: 000000              	halt				; ..
143272: 000000              	halt				; ..
143274: 000000              	halt				; ..
143276: 000000              	halt				; ..
143300: 000000              	halt				; ..
143302: 000000              	halt				; ..
143304: 000000              	halt				; ..
143306: 000000              	halt				; ..
143310: 000000              	halt				; ..
143312: 000000              	halt				; ..
143314: 000000              	halt				; ..
143316: 000000              	halt				; ..
143320: 000000              	halt				; ..
143322: 000000              	halt				; ..
143324: 000000              	halt				; ..
143326: 000000              	halt				; ..
143330: 000000              	halt				; ..
143332: 000000              	halt				; ..
143334: 000000              	halt				; ..
143336: 000000              	halt				; ..
143340: 000000              	halt				; ..
143342: 000000              	halt				; ..
143344: 000000              	halt				; ..
143346: 000000              	halt				; ..
143350: 000000              	halt				; ..
143352: 000000              	halt				; ..
143354: 000000              	halt				; ..
143356: 000000              	halt				; ..
143360: 000000              	halt				; ..
143362: 000000              	halt				; ..
143364: 000000              	halt				; ..
143366: 000000              	halt				; ..
143370: 000000              	halt				; ..
143372: 000000              	halt				; ..
143374: 000000              	halt				; ..
143376: 000000              	halt				; ..
143400: 000000              	halt				; ..
143402: 000000              	halt				; ..
143404: 000000              	halt				; ..
143406: 000000              	halt				; ..
143410: 000000              	halt				; ..
143412: 000000              	halt				; ..
143414: 000000              	halt				; ..
143416: 000000              	halt				; ..
143420: 000000              	halt				; ..
143422: 000000              	halt				; ..
143424: 000000              	halt				; ..
143426: 000000              	halt				; ..
143430: 000000              	halt				; ..
143432: 000000              	halt				; ..
143434: 000000              	halt				; ..
143436: 000000              	halt				; ..
143440: 000000              	halt				; ..
143442: 000000              	halt				; ..
143444: 000000              	halt				; ..
143446: 000000              	halt				; ..
143450: 000000              	halt				; ..
143452: 000000              	halt				; ..
143454: 000000              	halt				; ..
143456: 000000              	halt				; ..
143460: 000000              	halt				; ..
143462: 000000              	halt				; ..
143464: 000000              	halt				; ..
143466: 000000              	halt				; ..
143470: 000000              	halt				; ..
143472: 000000              	halt				; ..
143474: 000000              	halt				; ..
143476: 000000              	halt				; ..
143500: 000000              	halt				; ..
143502: 000000              	halt				; ..
143504: 000000              	halt				; ..
143506: 000000              	halt				; ..
143510: 000000              	halt				; ..
143512: 000000              	halt				; ..
143514: 000000              	halt				; ..
143516: 000000              	halt				; ..
143520: 000000              	halt				; ..
143522: 000000              	halt				; ..
143524: 000000              	halt				; ..
143526: 000000              	halt				; ..
143530: 000000              	halt				; ..
143532: 000000              	halt				; ..
143534: 000000              	halt				; ..
143536: 000000              	halt				; ..
143540: 000000              	halt				; ..
143542: 000000              	halt				; ..
143544: 000000              	halt				; ..
143546: 000000              	halt				; ..
143550: 000000              	halt				; ..
143552: 000000              	halt				; ..
143554: 000000              	halt				; ..
143556: 000000              	halt				; ..
143560: 000000              	halt				; ..
143562: 000000              	halt				; ..
143564: 000000              	halt				; ..
143566: 000000              	halt				; ..
143570: 000000              	halt				; ..
143572: 000000              	halt				; ..
143574: 000000              	halt				; ..
143576: 000000              	halt				; ..
143600: 000000              	halt				; ..
143602: 000000              	halt				; ..
143604: 000000              	halt				; ..
143606: 000000              	halt				; ..
143610: 000000              	halt				; ..
143612: 000000              	halt				; ..
143614: 000000              	halt				; ..
143616: 000000              	halt				; ..
143620: 000000              	halt				; ..
143622: 000000              	halt				; ..
143624: 000000              	halt				; ..
143626: 000000              	halt				; ..
143630: 000000              	halt				; ..
143632: 000000              	halt				; ..
143634: 000000              	halt				; ..
143636: 000000              	halt				; ..
143640: 000000              	halt				; ..
143642: 000000              	halt				; ..
143644: 000000              	halt				; ..
143646: 000000              	halt				; ..
143650: 000000              	halt				; ..
143652: 000000              	halt				; ..
143654: 000000              	halt				; ..
143656: 000000              	halt				; ..
143660: 000000              	halt				; ..
143662: 000000              	halt				; ..
143664: 000000              	halt				; ..
143666: 000000              	halt				; ..
143670: 000000              	halt				; ..
143672: 000000              	halt				; ..
143674: 000000              	halt				; ..
143676: 000000              	halt				; ..
143700: 000000              	halt				; ..
143702: 000000              	halt				; ..
143704: 000000              	halt				; ..
143706: 000000              	halt				; ..
143710: 000000              	halt				; ..
143712: 000000              	halt				; ..
143714: 000000              	halt				; ..
143716: 000000              	halt				; ..
143720: 000000              	halt				; ..
143722: 000000              	halt				; ..
143724: 000000              	halt				; ..
143726: 000000              	halt				; ..
143730: 000000              	halt				; ..
143732: 000000              	halt				; ..
143734: 000000              	halt				; ..
143736: 000000              	halt				; ..
143740: 000000              	halt				; ..
143742: 000000              	halt				; ..
143744: 000000              	halt				; ..
143746: 000000              	halt				; ..
143750: 000000              	halt				; ..
143752: 000000              	halt				; ..
143754: 000000              	halt				; ..
143756: 000000              	halt				; ..
143760: 000000              	halt				; ..
143762: 000000              	halt				; ..
143764: 000000              	halt				; ..
143766: 000000              	halt				; ..
143770: 000000              	halt				; ..
143772: 000000              	halt				; ..
143774: 000000              	halt				; ..
143776: 000000              	halt				; ..
144000: 000000              	halt				; ..
144002: 000000              	halt				; ..
144004: 000000              	halt				; ..
144006: 000000              	halt				; ..
144010: 000000              	halt				; ..
144012: 000000              	halt				; ..
144014: 000000              	halt				; ..
144016: 000000              	halt				; ..
144020: 000000              	halt				; ..
144022: 000000              	halt				; ..
144024: 000000              	halt				; ..
144026: 000000              	halt				; ..
144030: 000000              	halt				; ..
144032: 000000              	halt				; ..
144034: 000000              	halt				; ..
144036: 000000              	halt				; ..
144040: 000000              	halt				; ..
144042: 000000              	halt				; ..
144044: 000000              	halt				; ..
144046: 000000              	halt				; ..
144050: 000000              	halt				; ..
144052: 000000              	halt				; ..
144054: 000000              	halt				; ..
144056: 000000              	halt				; ..
144060: 000000              	halt				; ..
144062: 000000              	halt				; ..
144064: 000000              	halt				; ..
144066: 000000              	halt				; ..
144070: 000000              	halt				; ..
144072: 000000              	halt				; ..
144074: 000000              	halt				; ..
144076: 000000              	halt				; ..
144100: 000000              	halt				; ..
144102: 000000              	halt				; ..
144104: 000000              	halt				; ..
144106: 000000              	halt				; ..
144110: 000000              	halt				; ..
144112: 000000              	halt				; ..
144114: 000000              	halt				; ..
144116: 000000              	halt				; ..
144120: 000000              	halt				; ..
144122: 000000              	halt				; ..
144124: 000000              	halt				; ..
144126: 000000              	halt				; ..
144130: 000000              	halt				; ..
144132: 000000              	halt				; ..
144134: 000000              	halt				; ..
144136: 000000              	halt				; ..
144140: 000000              	halt				; ..
144142: 000000              	halt				; ..
144144: 000000              	halt				; ..
144146: 000000              	halt				; ..
144150: 000000              	halt				; ..
144152: 000000              	halt				; ..
144154: 000000              	halt				; ..
144156: 000000              	halt				; ..
144160: 000000              	halt				; ..
144162: 000000              	halt				; ..
144164: 000000              	halt				; ..
144166: 000000              	halt				; ..
144170: 000000              	halt				; ..
144172: 000000              	halt				; ..
144174: 000000              	halt				; ..
144176: 000000              	halt				; ..
144200: 000000              	halt				; ..
144202: 000000              	halt				; ..
144204: 000000              	halt				; ..
144206: 000000              	halt				; ..
144210: 000000              	halt				; ..
144212: 000000              	halt				; ..
144214: 000000              	halt				; ..
144216: 000000              	halt				; ..
144220: 000000              	halt				; ..
144222: 000000              	halt				; ..
144224: 000000              	halt				; ..
144226: 000000              	halt				; ..
144230: 000000              	halt				; ..
144232: 000000              	halt				; ..
144234: 000000              	halt				; ..
144236: 000000              	halt				; ..
144240: 000000              	halt				; ..
144242: 000000              	halt				; ..
144244: 000000              	halt				; ..
144246: 000000              	halt				; ..
144250: 000000              	halt				; ..
144252: 000000              	halt				; ..
144254: 000000              	halt				; ..
144256: 000000              	halt				; ..
144260: 000000              	halt				; ..
144262: 000000              	halt				; ..
144264: 000000              	halt				; ..
144266: 000000              	halt				; ..
144270: 000000              	halt				; ..
144272: 000000              	halt				; ..
144274: 000000              	halt				; ..
144276: 000000              	halt				; ..
144300: 000000              	halt				; ..
144302: 000000              	halt				; ..
144304: 000000              	halt				; ..
144306: 000000              	halt				; ..
144310: 000000              	halt				; ..
144312: 000000              	halt				; ..
144314: 000000              	halt				; ..
144316: 000000              	halt				; ..
144320: 000000              	halt				; ..
144322: 000000              	halt				; ..
144324: 000000              	halt				; ..
144326: 000000              	halt				; ..
144330: 000000              	halt				; ..
144332: 000000              	halt				; ..
144334: 000000              	halt				; ..
144336: 000000              	halt				; ..
144340: 000000              	halt				; ..
144342: 000000              	halt				; ..
144344: 000000              	halt				; ..
144346: 000000              	halt				; ..
144350: 000000              	halt				; ..
144352: 000000              	halt				; ..
144354: 000000              	halt				; ..
144356: 000000              	halt				; ..
144360: 000000              	halt				; ..
144362: 000000              	halt				; ..
144364: 000000              	halt				; ..
144366: 000000              	halt				; ..
144370: 000000              	halt				; ..
144372: 000000              	halt				; ..
144374: 000000              	halt				; ..
144376: 000000              	halt				; ..
144400: 000000              	halt				; ..
144402: 000000              	halt				; ..
144404: 000000              	halt				; ..
144406: 000000              	halt				; ..
144410: 000000              	halt				; ..
144412: 000000              	halt				; ..
144414: 000000              	halt				; ..
144416: 000000              	halt				; ..
144420: 000000              	halt				; ..
144422: 000000              	halt				; ..
144424: 000000              	halt				; ..
144426: 000000              	halt				; ..
144430: 000000              	halt				; ..
144432: 000000              	halt				; ..
144434: 000000              	halt				; ..
144436: 000000              	halt				; ..
144440: 000000              	halt				; ..
144442: 000000              	halt				; ..
144444: 000000              	halt				; ..
144446: 000000              	halt				; ..
144450: 000000              	halt				; ..
144452: 000000              	halt				; ..
144454: 000000              	halt				; ..
144456: 000000              	halt				; ..
144460: 000000              	halt				; ..
144462: 000000              	halt				; ..
144464: 000000              	halt				; ..
144466: 000000              	halt				; ..
144470: 000000              	halt				; ..
144472: 000000              	halt				; ..
144474: 000000              	halt				; ..
144476: 000000              	halt				; ..
144500: 000000              	halt				; ..
144502: 000000              	halt				; ..
144504: 000000              	halt				; ..
144506: 000000              	halt				; ..
144510: 000000              	halt				; ..
144512: 000000              	halt				; ..
144514: 000000              	halt				; ..
144516: 000000              	halt				; ..
144520: 000000              	halt				; ..
144522: 000000              	halt				; ..
144524: 000000              	halt				; ..
144526: 000000              	halt				; ..
144530: 000000              	halt				; ..
144532: 000000              	halt				; ..
144534: 000000              	halt				; ..
144536: 000000              	halt				; ..
144540: 000000              	halt				; ..
144542: 000000              	halt				; ..
144544: 000000              	halt				; ..
144546: 000000              	halt				; ..
144550: 000000              	halt				; ..
144552: 000000              	halt				; ..
144554: 000000              	halt				; ..
144556: 000000              	halt				; ..
144560: 000000              	halt				; ..
144562: 000000              	halt				; ..
144564: 000000              	halt				; ..
144566: 000000              	halt				; ..
144570: 000000              	halt				; ..
144572: 000000              	halt				; ..
144574: 000000              	halt				; ..
144576: 000000              	halt				; ..
144600: 000000              	halt				; ..
144602: 000000              	halt				; ..
144604: 000000              	halt				; ..
144606: 000000              	halt				; ..
144610: 000000              	halt				; ..
144612: 000000              	halt				; ..
144614: 000000              	halt				; ..
144616: 000000              	halt				; ..
144620: 000000              	halt				; ..
144622: 000000              	halt				; ..
144624: 000000              	halt				; ..
144626: 000000              	halt				; ..
144630: 000000              	halt				; ..
144632: 000000              	halt				; ..
144634: 000000              	halt				; ..
144636: 000000              	halt				; ..
144640: 000000              	halt				; ..
144642: 000000              	halt				; ..
144644: 000000              	halt				; ..
144646: 000000              	halt				; ..
144650: 000000              	halt				; ..
144652: 000000              	halt				; ..
144654: 000000              	halt				; ..
144656: 000000              	halt				; ..
144660: 000000              	halt				; ..
144662: 000000              	halt				; ..
144664: 000000              	halt				; ..
144666: 000000              	halt				; ..
144670: 000000              	halt				; ..
144672: 000000              	halt				; ..
144674: 000000              	halt				; ..
144676: 000000              	halt				; ..
144700: 000000              	halt				; ..
144702: 000000              	halt				; ..
144704: 000000              	halt				; ..
144706: 000000              	halt				; ..
144710: 000000              	halt				; ..
144712: 000000              	halt				; ..
144714: 000000              	halt				; ..
144716: 000000              	halt				; ..
144720: 000000              	halt				; ..
144722: 000000              	halt				; ..
144724: 000000              	halt				; ..
144726: 000000              	halt				; ..
144730: 000000              	halt				; ..
144732: 000000              	halt				; ..
144734: 000000              	halt				; ..
144736: 000000              	halt				; ..
144740: 000000              	halt				; ..
144742: 000000              	halt				; ..
144744: 000000              	halt				; ..
144746: 000000              	halt				; ..
144750: 000000              	halt				; ..
144752: 000000              	halt				; ..
144754: 000000              	halt				; ..
144756: 000000              	halt				; ..
144760: 000000              	halt				; ..
144762: 000000              	halt				; ..
144764: 000000              	halt				; ..
144766: 000000              	halt				; ..
144770: 000000              	halt				; ..
144772: 000000              	halt				; ..
144774: 000000              	halt				; ..
144776: 000000              	halt				; ..
145000: 000000              	halt				; ..
145002: 000000              	halt				; ..
145004: 000000              	halt				; ..
145006: 000000              	halt				; ..
145010: 000000              	halt				; ..
145012: 000000              	halt				; ..
145014: 000000              	halt				; ..
145016: 000000              	halt				; ..
145020: 000000              	halt				; ..
145022: 000000              	halt				; ..
145024: 000000              	halt				; ..
145026: 000000              	halt				; ..
145030: 000000              	halt				; ..
145032: 000000              	halt				; ..
145034: 000000              	halt				; ..
145036: 000000              	halt				; ..
145040: 000000              	halt				; ..
145042: 000000              	halt				; ..
145044: 000000              	halt				; ..
145046: 000000              	halt				; ..
145050: 000000              	halt				; ..
145052: 000000              	halt				; ..
145054: 000000              	halt				; ..
145056: 000000              	halt				; ..
145060: 000000              	halt				; ..
145062: 000000              	halt				; ..
145064: 000000              	halt				; ..
145066: 000000              	halt				; ..
145070: 000000              	halt				; ..
145072: 000000              	halt				; ..
145074: 000000              	halt				; ..
145076: 000000              	halt				; ..
145100: 000000              	halt				; ..
145102: 000000              	halt				; ..
145104: 000000              	halt				; ..
145106: 000000              	halt				; ..
145110: 000000              	halt				; ..
145112: 000000              	halt				; ..
145114: 000000              	halt				; ..
145116: 000000              	halt				; ..
145120: 000000              	halt				; ..
145122: 000000              	halt				; ..
145124: 000000              	halt				; ..
145126: 000000              	halt				; ..
145130: 000000              	halt				; ..
145132: 000000              	halt				; ..
145134: 000000              	halt				; ..
145136: 000000              	halt				; ..
145140: 000000              	halt				; ..
145142: 000000              	halt				; ..
145144: 000000              	halt				; ..
145146: 000000              	halt				; ..
145150: 000000              	halt				; ..
145152: 000000              	halt				; ..
145154: 000000              	halt				; ..
145156: 000000              	halt				; ..
145160: 000000              	halt				; ..
145162: 000000              	halt				; ..
145164: 000000              	halt				; ..
145166: 000000              	halt				; ..
145170: 000000              	halt				; ..
145172: 000000              	halt				; ..
145174: 000000              	halt				; ..
145176: 000000              	halt				; ..
145200: 000000              	halt				; ..
145202: 000000              	halt				; ..
145204: 000000              	halt				; ..
145206: 000000              	halt				; ..
145210: 000000              	halt				; ..
145212: 000000              	halt				; ..
145214: 000000              	halt				; ..
145216: 000000              	halt				; ..
145220: 000000              	halt				; ..
145222: 000000              	halt				; ..
145224: 000000              	halt				; ..
145226: 000000              	halt				; ..
145230: 000000              	halt				; ..
145232: 000000              	halt				; ..
145234: 000000              	halt				; ..
145236: 000000              	halt				; ..
145240: 000000              	halt				; ..
145242: 000000              	halt				; ..
145244: 000000              	halt				; ..
145246: 000000              	halt				; ..
145250: 000000              	halt				; ..
145252: 000000              	halt				; ..
145254: 000000              	halt				; ..
145256: 000000              	halt				; ..
145260: 000000              	halt				; ..
145262: 000000              	halt				; ..
145264: 000000              	halt				; ..
145266: 000000              	halt				; ..
145270: 000000              	halt				; ..
145272: 000000              	halt				; ..
145274: 000000              	halt				; ..
145276: 000000              	halt				; ..
145300: 000000              	halt				; ..
145302: 000000              	halt				; ..
145304: 000000              	halt				; ..
145306: 000000              	halt				; ..
145310: 000000              	halt				; ..
145312: 000000              	halt				; ..
145314: 000000              	halt				; ..
145316: 000000              	halt				; ..
145320: 000000              	halt				; ..
145322: 000000              	halt				; ..
145324: 000000              	halt				; ..
145326: 000000              	halt				; ..
145330: 000000              	halt				; ..
145332: 000000              	halt				; ..
145334: 000000              	halt				; ..
145336: 000000              	halt				; ..
145340: 000000              	halt				; ..
145342: 000000              	halt				; ..
145344: 000000              	halt				; ..
145346: 000000              	halt				; ..
145350: 000000              	halt				; ..
145352: 000000              	halt				; ..
145354: 000000              	halt				; ..
145356: 000000              	halt				; ..
145360: 000000              	halt				; ..
145362: 000000              	halt				; ..
145364: 000000              	halt				; ..
145366: 000000              	halt				; ..
145370: 000000              	halt				; ..
145372: 000000              	halt				; ..
145374: 000000              	halt				; ..
145376: 000000              	halt				; ..
145400: 000000              	halt				; ..
145402: 000000              	halt				; ..
145404: 000000              	halt				; ..
145406: 000000              	halt				; ..
145410: 000000              	halt				; ..
145412: 000000              	halt				; ..
145414: 000000              	halt				; ..
145416: 000000              	halt				; ..
145420: 000000              	halt				; ..
145422: 000000              	halt				; ..
145424: 000000              	halt				; ..
145426: 000000              	halt				; ..
145430: 000000              	halt				; ..
145432: 000000              	halt				; ..
145434: 000000              	halt				; ..
145436: 000000              	halt				; ..
145440: 000000              	halt				; ..
145442: 000000              	halt				; ..
145444: 000000              	halt				; ..
145446: 000000              	halt				; ..
145450: 000000              	halt				; ..
145452: 000000              	halt				; ..
145454: 000000              	halt				; ..
145456: 000000              	halt				; ..
145460: 000000              	halt				; ..
145462: 000000              	halt				; ..
145464: 000000              	halt				; ..
145466: 000000              	halt				; ..
145470: 000000              	halt				; ..
145472: 000000              	halt				; ..
145474: 000000              	halt				; ..
145476: 000000              	halt				; ..
145500: 000000              	halt				; ..
145502: 000000              	halt				; ..
145504: 000000              	halt				; ..
145506: 000000              	halt				; ..
145510: 000000              	halt				; ..
145512: 000000              	halt				; ..
145514: 000000              	halt				; ..
145516: 000000              	halt				; ..
145520: 000000              	halt				; ..
145522: 000000              	halt				; ..
145524: 000000              	halt				; ..
145526: 000000              	halt				; ..
145530: 000000              	halt				; ..
145532: 000000              	halt				; ..
145534: 000000              	halt				; ..
145536: 000000              	halt				; ..
145540: 000000              	halt				; ..
145542: 000000              	halt				; ..
145544: 000000              	halt				; ..
145546: 000000              	halt				; ..
145550: 000000              	halt				; ..
145552: 000000              	halt				; ..
145554: 000000              	halt				; ..
145556: 000000              	halt				; ..
145560: 000000              	halt				; ..
145562: 000000              	halt				; ..
145564: 000000              	halt				; ..
145566: 000000              	halt				; ..
145570: 000000              	halt				; ..
145572: 000000              	halt				; ..
145574: 000000              	halt				; ..
145576: 000000              	halt				; ..
145600: 000000              	halt				; ..
145602: 000000              	halt				; ..
145604: 000000              	halt				; ..
145606: 000000              	halt				; ..
145610: 000000              	halt				; ..
145612: 000000              	halt				; ..
145614: 000000              	halt				; ..
145616: 000000              	halt				; ..
145620: 000000              	halt				; ..
145622: 000000              	halt				; ..
145624: 000000              	halt				; ..
145626: 000000              	halt				; ..
145630: 000000              	halt				; ..
145632: 000000              	halt				; ..
145634: 000000              	halt				; ..
145636: 000000              	halt				; ..
145640: 000000              	halt				; ..
145642: 000000              	halt				; ..
145644: 000000              	halt				; ..
145646: 000000              	halt				; ..
145650: 000000              	halt				; ..
145652: 000000              	halt				; ..
145654: 000000              	halt				; ..
145656: 000000              	halt				; ..
145660: 000000              	halt				; ..
145662: 000000              	halt				; ..
145664: 000000              	halt				; ..
145666: 000000              	halt				; ..
145670: 000000              	halt				; ..
145672: 000000              	halt				; ..
145674: 000000              	halt				; ..
145676: 000000              	halt				; ..
145700: 000000              	halt				; ..
145702: 000000              	halt				; ..
145704: 000000              	halt				; ..
145706: 000000              	halt				; ..
145710: 000000              	halt				; ..
145712: 000000              	halt				; ..
145714: 000000              	halt				; ..
145716: 000000              	halt				; ..
145720: 000000              	halt				; ..
145722: 000000              	halt				; ..
145724: 000000              	halt				; ..
145726: 000000              	halt				; ..
145730: 000000              	halt				; ..
145732: 000000              	halt				; ..
145734: 000000              	halt				; ..
145736: 000000              	halt				; ..
145740: 000000              	halt				; ..
145742: 000000              	halt				; ..
145744: 000000              	halt				; ..
145746: 000000              	halt				; ..
145750: 000000              	halt				; ..
145752: 000000              	halt				; ..
145754: 000000              	halt				; ..
145756: 000000              	halt				; ..
145760: 000000              	halt				; ..
145762: 000000              	halt				; ..
145764: 000000              	halt				; ..
145766: 000000              	halt				; ..
145770: 000000              	halt				; ..
145772: 000000              	halt				; ..
145774: 000000              	halt				; ..
145776: 000000              	halt				; ..
146000: 000000              	halt				; ..
146002: 000000              	halt				; ..
146004: 000000              	halt				; ..
146006: 000000              	halt				; ..
146010: 000000              	halt				; ..
146012: 000000              	halt				; ..
146014: 000000              	halt				; ..
146016: 000000              	halt				; ..
146020: 000000              	halt				; ..
146022: 000000              	halt				; ..
146024: 000000              	halt				; ..
146026: 000000              	halt				; ..
146030: 000000              	halt				; ..
146032: 000000              	halt				; ..
146034: 000000              	halt				; ..
146036: 000000              	halt				; ..
146040: 000000              	halt				; ..
146042: 000000              	halt				; ..
146044: 000000              	halt				; ..
146046: 000000              	halt				; ..
146050: 000000              	halt				; ..
146052: 000000              	halt				; ..
146054: 000000              	halt				; ..
146056: 000000              	halt				; ..
146060: 000000              	halt				; ..
146062: 000000              	halt				; ..
146064: 000000              	halt				; ..
146066: 000000              	halt				; ..
146070: 000000              	halt				; ..
146072: 000000              	halt				; ..
146074: 000000              	halt				; ..
146076: 000000              	halt				; ..
146100: 000000              	halt				; ..
146102: 000000              	halt				; ..
146104: 000000              	halt				; ..
146106: 000000              	halt				; ..
146110: 000000              	halt				; ..
146112: 000000              	halt				; ..
146114: 000000              	halt				; ..
146116: 000000              	halt				; ..
146120: 000000              	halt				; ..
146122: 000000              	halt				; ..
146124: 000000              	halt				; ..
146126: 000000              	halt				; ..
146130: 000000              	halt				; ..
146132: 000000              	halt				; ..
146134: 000000              	halt				; ..
146136: 000000              	halt				; ..
146140: 000000              	halt				; ..
146142: 000000              	halt				; ..
146144: 000000              	halt				; ..
146146: 000000              	halt				; ..
146150: 000000              	halt				; ..
146152: 000000              	halt				; ..
146154: 000000              	halt				; ..
146156: 000000              	halt				; ..
146160: 000000              	halt				; ..
146162: 000000              	halt				; ..
146164: 000000              	halt				; ..
146166: 000000              	halt				; ..
146170: 000000              	halt				; ..
146172: 000000              	halt				; ..
146174: 000000              	halt				; ..
146176: 000000              	halt				; ..
146200: 000000              	halt				; ..
146202: 000000              	halt				; ..
146204: 000000              	halt				; ..
146206: 000000              	halt				; ..
146210: 000000              	halt				; ..
146212: 000000              	halt				; ..
146214: 000000              	halt				; ..
146216: 000000              	halt				; ..
146220: 000000              	halt				; ..
146222: 000000              	halt				; ..
146224: 000000              	halt				; ..
146226: 000000              	halt				; ..
146230: 000000              	halt				; ..
146232: 000000              	halt				; ..
146234: 000000              	halt				; ..
146236: 000000              	halt				; ..
146240: 000000              	halt				; ..
146242: 000000              	halt				; ..
146244: 000000              	halt				; ..
146246: 000000              	halt				; ..
146250: 000000              	halt				; ..
146252: 000000              	halt				; ..
146254: 000000              	halt				; ..
146256: 000000              	halt				; ..
146260: 000000              	halt				; ..
146262: 000000              	halt				; ..
146264: 000000              	halt				; ..
146266: 000000              	halt				; ..
146270: 000000              	halt				; ..
146272: 000000              	halt				; ..
146274: 000000              	halt				; ..
146276: 000000              	halt				; ..
146300: 000000              	halt				; ..
146302: 000000              	halt				; ..
146304: 000000              	halt				; ..
146306: 000000              	halt				; ..
146310: 000000              	halt				; ..
146312: 000000              	halt				; ..
146314: 000000              	halt				; ..
146316: 000000              	halt				; ..
146320: 000000              	halt				; ..
146322: 000000              	halt				; ..
146324: 000000              	halt				; ..
146326: 000000              	halt				; ..
146330: 000000              	halt				; ..
146332: 000000              	halt				; ..
146334: 000000              	halt				; ..
146336: 000000              	halt				; ..
146340: 000000              	halt				; ..
146342: 000000              	halt				; ..
146344: 000000              	halt				; ..
146346: 000000              	halt				; ..
146350: 000000              	halt				; ..
146352: 000000              	halt				; ..
146354: 000000              	halt				; ..
146356: 000000              	halt				; ..
146360: 000000              	halt				; ..
146362: 000000              	halt				; ..
146364: 000000              	halt				; ..
146366: 000000              	halt				; ..
146370: 000000              	halt				; ..
146372: 000000              	halt				; ..
146374: 000000              	halt				; ..
146376: 000000              	halt				; ..
146400: 000000              	halt				; ..
146402: 000000              	halt				; ..
146404: 000000              	halt				; ..
146406: 000000              	halt				; ..
146410: 000000              	halt				; ..
146412: 000000              	halt				; ..
146414: 000000              	halt				; ..
146416: 000000              	halt				; ..
146420: 000000              	halt				; ..
146422: 000000              	halt				; ..
146424: 000000              	halt				; ..
146426: 000000              	halt				; ..
146430: 000000              	halt				; ..
146432: 000000              	halt				; ..
146434: 000000              	halt				; ..
146436: 000000              	halt				; ..
146440: 000000              	halt				; ..
146442: 000000              	halt				; ..
146444: 000000              	halt				; ..
146446: 000000              	halt				; ..
146450: 000000              	halt				; ..
146452: 000000              	halt				; ..
146454: 000000              	halt				; ..
146456: 000000              	halt				; ..
146460: 000000              	halt				; ..
146462: 000000              	halt				; ..
146464: 000000              	halt				; ..
146466: 000000              	halt				; ..
146470: 000000              	halt				; ..
146472: 000000              	halt				; ..
146474: 000000              	halt				; ..
146476: 000000              	halt				; ..
146500: 000000              	halt				; ..
146502: 000000              	halt				; ..
146504: 000000              	halt				; ..
146506: 000000              	halt				; ..
146510: 000000              	halt				; ..
146512: 000000              	halt				; ..
146514: 000000              	halt				; ..
146516: 000000              	halt				; ..
146520: 000000              	halt				; ..
146522: 000000              	halt				; ..
146524: 000000              	halt				; ..
146526: 000000              	halt				; ..
146530: 000000              	halt				; ..
146532: 000000              	halt				; ..
146534: 000000              	halt				; ..
146536: 000000              	halt				; ..
146540: 000000              	halt				; ..
146542: 000000              	halt				; ..
146544: 000000              	halt				; ..
146546: 000000              	halt				; ..
146550: 000000              	halt				; ..
146552: 000000              	halt				; ..
146554: 000000              	halt				; ..
146556: 000000              	halt				; ..
146560: 000000              	halt				; ..
146562: 000000              	halt				; ..
146564: 000000              	halt				; ..
146566: 000000              	halt				; ..
146570: 000000              	halt				; ..
146572: 000000              	halt				; ..
146574: 000000              	halt				; ..
146576: 000000              	halt				; ..
146600: 000000              	halt				; ..
146602: 000000              	halt				; ..
146604: 000000              	halt				; ..
146606: 000000              	halt				; ..
146610: 000000              	halt				; ..
146612: 000000              	halt				; ..
146614: 000000              	halt				; ..
146616: 000000              	halt				; ..
146620: 000000              	halt				; ..
146622: 000000              	halt				; ..
146624: 000000              	halt				; ..
146626: 000000              	halt				; ..
146630: 000000              	halt				; ..
146632: 000000              	halt				; ..
146634: 000000              	halt				; ..
146636: 000000              	halt				; ..
146640: 000000              	halt				; ..
146642: 000000              	halt				; ..
146644: 000000              	halt				; ..
146646: 000000              	halt				; ..
146650: 000000              	halt				; ..
146652: 000000              	halt				; ..
146654: 000000              	halt				; ..
146656: 000000              	halt				; ..
146660: 000000              	halt				; ..
146662: 000000              	halt				; ..
146664: 000000              	halt				; ..
146666: 000000              	halt				; ..
146670: 000000              	halt				; ..
146672: 000000              	halt				; ..
146674: 000000              	halt				; ..
146676: 000000              	halt				; ..
146700: 000000              	halt				; ..
146702: 000000              	halt				; ..
146704: 000000              	halt				; ..
146706: 000000              	halt				; ..
146710: 000000              	halt				; ..
146712: 000000              	halt				; ..
146714: 000000              	halt				; ..
146716: 000000              	halt				; ..
146720: 000000              	halt				; ..
146722: 000000              	halt				; ..
146724: 000000              	halt				; ..
146726: 000000              	halt				; ..
146730: 000000              	halt				; ..
146732: 000000              	halt				; ..
146734: 000000              	halt				; ..
146736: 000000              	halt				; ..
146740: 000000              	halt				; ..
146742: 000000              	halt				; ..
146744: 000000              	halt				; ..
146746: 000000              	halt				; ..
146750: 000000              	halt				; ..
146752: 000000              	halt				; ..
146754: 000000              	halt				; ..
146756: 000000              	halt				; ..
146760: 000000              	halt				; ..
146762: 000000              	halt				; ..
146764: 000000              	halt				; ..
146766: 000000              	halt				; ..
146770: 000000              	halt				; ..
146772: 000000              	halt				; ..
146774: 000000              	halt				; ..
146776: 000000              	halt				; ..
147000: 000000              	halt				; ..
147002: 000000              	halt				; ..
147004: 000000              	halt				; ..
147006: 000000              	halt				; ..
147010: 000000              	halt				; ..
147012: 000000              	halt				; ..
147014: 000000              	halt				; ..
147016: 000000              	halt				; ..
147020: 000000              	halt				; ..
147022: 000000              	halt				; ..
147024: 000000              	halt				; ..
147026: 000000              	halt				; ..
147030: 000000              	halt				; ..
147032: 000000              	halt				; ..
147034: 000000              	halt				; ..
147036: 000000              	halt				; ..
147040: 000000              	halt				; ..
147042: 000000              	halt				; ..
147044: 000000              	halt				; ..
147046: 000000              	halt				; ..
147050: 000000              	halt				; ..
147052: 000000              	halt				; ..
147054: 000000              	halt				; ..
147056: 000000              	halt				; ..
147060: 000000              	halt				; ..
147062: 000000              	halt				; ..
147064: 000000              	halt				; ..
147066: 000000              	halt				; ..
147070: 000000              	halt				; ..
147072: 000000              	halt				; ..
147074: 000000              	halt				; ..
147076: 000000              	halt				; ..
147100: 000000              	halt				; ..
147102: 000000              	halt				; ..
147104: 000000              	halt				; ..
147106: 000000              	halt				; ..
147110: 000000              	halt				; ..
147112: 000000              	halt				; ..
147114: 000000              	halt				; ..
147116: 000000              	halt				; ..
147120: 000000              	halt				; ..
147122: 000000              	halt				; ..
147124: 000000              	halt				; ..
147126: 000000              	halt				; ..
147130: 000000              	halt				; ..
147132: 000000              	halt				; ..
147134: 000000              	halt				; ..
147136: 000000              	halt				; ..
147140: 000000              	halt				; ..
147142: 000000              	halt				; ..
147144: 000000              	halt				; ..
147146: 000000              	halt				; ..
147150: 000000              	halt				; ..
147152: 000000              	halt				; ..
147154: 000000              	halt				; ..
147156: 000000              	halt				; ..
147160: 000000              	halt				; ..
147162: 000000              	halt				; ..
147164: 000000              	halt				; ..
147166: 000000              	halt				; ..
147170: 000000              	halt				; ..
147172: 000000              	halt				; ..
147174: 000000              	halt				; ..
147176: 000000              	halt				; ..
147200: 000000              	halt				; ..
147202: 000000              	halt				; ..
147204: 000000              	halt				; ..
147206: 000000              	halt				; ..
147210: 000000              	halt				; ..
147212: 000000              	halt				; ..
147214: 000000              	halt				; ..
147216: 000000              	halt				; ..
147220: 000000              	halt				; ..
147222: 000000              	halt				; ..
147224: 000000              	halt				; ..
147226: 000000              	halt				; ..
147230: 000000              	halt				; ..
147232: 000000              	halt				; ..
147234: 000000              	halt				; ..
147236: 000000              	halt				; ..
147240: 000000              	halt				; ..
147242: 000000              	halt				; ..
147244: 000000              	halt				; ..
147246: 000000              	halt				; ..
147250: 000000              	halt				; ..
147252: 000000              	halt				; ..
147254: 000000              	halt				; ..
147256: 000000              	halt				; ..
147260: 000000              	halt				; ..
147262: 000000              	halt				; ..
147264: 000000              	halt				; ..
147266: 000000              	halt				; ..
147270: 000000              	halt				; ..
147272: 000000              	halt				; ..
147274: 000000              	halt				; ..
147276: 000000              	halt				; ..
147300: 000000              	halt				; ..
147302: 000000              	halt				; ..
147304: 000000              	halt				; ..
147306: 000000              	halt				; ..
147310: 000000              	halt				; ..
147312: 000000              	halt				; ..
147314: 000000              	halt				; ..
147316: 000000              	halt				; ..
147320: 000000              	halt				; ..
147322: 000000              	halt				; ..
147324: 000000              	halt				; ..
147326: 000000              	halt				; ..
147330: 000000              	halt				; ..
147332: 000000              	halt				; ..
147334: 000000              	halt				; ..
147336: 000000              	halt				; ..
147340: 000000              	halt				; ..
147342: 000000              	halt				; ..
147344: 000000              	halt				; ..
147346: 000000              	halt				; ..
147350: 000000              	halt				; ..
147352: 000000              	halt				; ..
147354: 000000              	halt				; ..
147356: 000000              	halt				; ..
147360: 000000              	halt				; ..
147362: 000000              	halt				; ..
147364: 000000              	halt				; ..
147366: 000000              	halt				; ..
147370: 000000              	halt				; ..
147372: 000000              	halt				; ..
147374: 000000              	halt				; ..
147376: 000000              	halt				; ..
147400: 000000              	halt				; ..
147402: 000000              	halt				; ..
147404: 000000              	halt				; ..
147406: 000000              	halt				; ..
147410: 000000              	halt				; ..
147412: 000000              	halt				; ..
147414: 000000              	halt				; ..
147416: 000000              	halt				; ..
147420: 000000              	halt				; ..
147422: 000000              	halt				; ..
147424: 000000              	halt				; ..
147426: 000000              	halt				; ..
147430: 000000              	halt				; ..
147432: 000000              	halt				; ..
147434: 000000              	halt				; ..
147436: 000000              	halt				; ..
147440: 000000              	halt				; ..
147442: 000000              	halt				; ..
147444: 000000              	halt				; ..
147446: 000000              	halt				; ..
147450: 000000              	halt				; ..
147452: 000000              	halt				; ..
147454: 000000              	halt				; ..
147456: 000000              	halt				; ..
147460: 000000              	halt				; ..
147462: 000000              	halt				; ..
147464: 000000              	halt				; ..
147466: 000000              	halt				; ..
147470: 000000              	halt				; ..
147472: 000000              	halt				; ..
147474: 000000              	halt				; ..
147476: 000000              	halt				; ..
147500: 000000              	halt				; ..
147502: 000000              	halt				; ..
147504: 000000              	halt				; ..
147506: 000000              	halt				; ..
147510: 000000              	halt				; ..
147512: 000000              	halt				; ..
147514: 000000              	halt				; ..
147516: 000000              	halt				; ..
147520: 000000              	halt				; ..
147522: 000000              	halt				; ..
147524: 000000              	halt				; ..
147526: 000000              	halt				; ..
147530: 000000              	halt				; ..
147532: 000000              	halt				; ..
147534: 000000              	halt				; ..
147536: 000000              	halt				; ..
147540: 000000              	halt				; ..
147542: 000000              	halt				; ..
147544: 000000              	halt				; ..
147546: 000000              	halt				; ..
147550: 000000              	halt				; ..
147552: 000000              	halt				; ..
147554: 000000              	halt				; ..
147556: 000000              	halt				; ..
147560: 000000              	halt				; ..
147562: 000000              	halt				; ..
147564: 000000              	halt				; ..
147566: 000000              	halt				; ..
147570: 000000              	halt				; ..
147572: 000000              	halt				; ..
147574: 000000              	halt				; ..
147576: 000000              	halt				; ..
147600: 000000              	halt				; ..
147602: 000000              	halt				; ..
147604: 000000              	halt				; ..
147606: 000000              	halt				; ..
147610: 000000              	halt				; ..
147612: 000000              	halt				; ..
147614: 000000              	halt				; ..
147616: 000000              	halt				; ..
147620: 000000              	halt				; ..
147622: 000000              	halt				; ..
147624: 000000              	halt				; ..
147626: 000000              	halt				; ..
147630: 000000              	halt				; ..
147632: 000000              	halt				; ..
147634: 000000              	halt				; ..
147636: 000000              	halt				; ..
147640: 000000              	halt				; ..
147642: 000000              	halt				; ..
147644: 000000              	halt				; ..
147646: 000000              	halt				; ..
147650: 000000              	halt				; ..
147652: 000000              	halt				; ..
147654: 000000              	halt				; ..
147656: 000000              	halt				; ..
147660: 000000              	halt				; ..
147662: 000000              	halt				; ..
147664: 000000              	halt				; ..
147666: 000000              	halt				; ..
147670: 000000              	halt				; ..
147672: 000000              	halt				; ..
147674: 000000              	halt				; ..
147676: 000000              	halt				; ..
147700: 000000              	halt				; ..
147702: 000000              	halt				; ..
147704: 000000              	halt				; ..
147706: 000000              	halt				; ..
147710: 000000              	halt				; ..
147712: 000000              	halt				; ..
147714: 000000              	halt				; ..
147716: 000000              	halt				; ..
147720: 000000              	halt				; ..
147722: 000000              	halt				; ..
147724: 000000              	halt				; ..
147726: 000000              	halt				; ..
147730: 000000              	halt				; ..
147732: 000000              	halt				; ..
147734: 000000              	halt				; ..
147736: 000000              	halt				; ..
147740: 000000              	halt				; ..
147742: 000000              	halt				; ..
147744: 000000              	halt				; ..
147746: 000000              	halt				; ..
147750: 000000              	halt				; ..
147752: 000000              	halt				; ..
147754: 000000              	halt				; ..
147756: 000000              	halt				; ..
147760: 000000              	halt				; ..
147762: 000000              	halt				; ..
147764: 000000              	halt				; ..
147766: 000000              	halt				; ..
147770: 000000              	halt				; ..
147772: 000000              	halt				; ..
147774: 000000              	halt				; ..
147776: 000000              	halt				; ..
150000: 000000              	halt				; ..
150002: 000000              	halt				; ..
150004: 000000              	halt				; ..
150006: 000000              	halt				; ..
150010: 000000              	halt				; ..
150012: 000000              	halt				; ..
150014: 000000              	halt				; ..
150016: 000000              	halt				; ..
150020: 000000              	halt				; ..
150022: 000000              	halt				; ..
150024: 000000              	halt				; ..
150026: 000000              	halt				; ..
150030: 000000              	halt				; ..
150032: 000000              	halt				; ..
150034: 000000              	halt				; ..
150036: 000000              	halt				; ..
150040: 000000              	halt				; ..
150042: 000000              	halt				; ..
150044: 000000              	halt				; ..
150046: 000000              	halt				; ..
150050: 000000              	halt				; ..
150052: 000000              	halt				; ..
150054: 000000              	halt				; ..
150056: 000000              	halt				; ..
150060: 000000              	halt				; ..
150062: 000000              	halt				; ..
150064: 000000              	halt				; ..
150066: 000000              	halt				; ..
150070: 000000              	halt				; ..
150072: 000000              	halt				; ..
150074: 000000              	halt				; ..
150076: 000000              	halt				; ..
150100: 000000              	halt				; ..
150102: 000000              	halt				; ..
150104: 000000              	halt				; ..
150106: 000000              	halt				; ..
150110: 000000              	halt				; ..
150112: 000000              	halt				; ..
150114: 000000              	halt				; ..
150116: 000000              	halt				; ..
150120: 000000              	halt				; ..
150122: 000000              	halt				; ..
150124: 000000              	halt				; ..
150126: 000000              	halt				; ..
150130: 000000              	halt				; ..
150132: 000000              	halt				; ..
150134: 000000              	halt				; ..
150136: 000000              	halt				; ..
150140: 000000              	halt				; ..
150142: 000000              	halt				; ..
150144: 000000              	halt				; ..
150146: 000000              	halt				; ..
150150: 000000              	halt				; ..
150152: 000000              	halt				; ..
150154: 000000              	halt				; ..
150156: 000000              	halt				; ..
150160: 000000              	halt				; ..
150162: 000000              	halt				; ..
150164: 000000              	halt				; ..
150166: 000000              	halt				; ..
150170: 000000              	halt				; ..
150172: 000000              	halt				; ..
150174: 000000              	halt				; ..
150176: 000000              	halt				; ..
150200: 000000              	halt				; ..
150202: 000000              	halt				; ..
150204: 000000              	halt				; ..
150206: 000000              	halt				; ..
150210: 000000              	halt				; ..
150212: 000000              	halt				; ..
150214: 000000              	halt				; ..
150216: 000000              	halt				; ..
150220: 000000              	halt				; ..
150222: 000000              	halt				; ..
150224: 000000              	halt				; ..
150226: 000000              	halt				; ..
150230: 000000              	halt				; ..
150232: 000000              	halt				; ..
150234: 000000              	halt				; ..
150236: 000000              	halt				; ..
150240: 000000              	halt				; ..
150242: 000000              	halt				; ..
150244: 000000              	halt				; ..
150246: 000000              	halt				; ..
150250: 000000              	halt				; ..
150252: 000000              	halt				; ..
150254: 000000              	halt				; ..
150256: 000000              	halt				; ..
150260: 000000              	halt				; ..
150262: 000000              	halt				; ..
150264: 000000              	halt				; ..
150266: 000000              	halt				; ..
150270: 000000              	halt				; ..
150272: 000000              	halt				; ..
150274: 000000              	halt				; ..
150276: 000000              	halt				; ..
150300: 000000              	halt				; ..
150302: 000000              	halt				; ..
150304: 000000              	halt				; ..
150306: 000000              	halt				; ..
150310: 000000              	halt				; ..
150312: 000000              	halt				; ..
150314: 000000              	halt				; ..
150316: 000000              	halt				; ..
150320: 000000              	halt				; ..
150322: 000000              	halt				; ..
150324: 000000              	halt				; ..
150326: 000000              	halt				; ..
150330: 000000              	halt				; ..
150332: 000000              	halt				; ..
150334: 000000              	halt				; ..
150336: 000000              	halt				; ..
150340: 000000              	halt				; ..
150342: 000000              	halt				; ..
150344: 000000              	halt				; ..
150346: 000000              	halt				; ..
150350: 000000              	halt				; ..
150352: 000000              	halt				; ..
150354: 000000              	halt				; ..
150356: 000000              	halt				; ..
150360: 000000              	halt				; ..
150362: 000000              	halt				; ..
150364: 000000              	halt				; ..
150366: 000000              	halt				; ..
150370: 000000              	halt				; ..
150372: 000000              	halt				; ..
150374: 000000              	halt				; ..
150376: 000000              	halt				; ..
150400: 000000              	halt				; ..
150402: 000000              	halt				; ..
150404: 000000              	halt				; ..
150406: 000000              	halt				; ..
150410: 000000              	halt				; ..
150412: 000000              	halt				; ..
150414: 000000              	halt				; ..
150416: 000000              	halt				; ..
150420: 000000              	halt				; ..
150422: 000000              	halt				; ..
150424: 000000              	halt				; ..
150426: 000000              	halt				; ..
150430: 000000              	halt				; ..
150432: 000000              	halt				; ..
150434: 000000              	halt				; ..
150436: 000000              	halt				; ..
150440: 000000              	halt				; ..
150442: 000000              	halt				; ..
150444: 000000              	halt				; ..
150446: 000000              	halt				; ..
150450: 000000              	halt				; ..
150452: 000000              	halt				; ..
150454: 000000              	halt				; ..
150456: 000000              	halt				; ..
150460: 000000              	halt				; ..
150462: 000000              	halt				; ..
150464: 000000              	halt				; ..
150466: 000000              	halt				; ..
150470: 000000              	halt				; ..
150472: 000000              	halt				; ..
150474: 000000              	halt				; ..
150476: 000000              	halt				; ..
150500: 000000              	halt				; ..
150502: 000000              	halt				; ..
150504: 000000              	halt				; ..
150506: 000000              	halt				; ..
150510: 000000              	halt				; ..
150512: 000000              	halt				; ..
150514: 000000              	halt				; ..
150516: 000000              	halt				; ..
150520: 000000              	halt				; ..
150522: 000000              	halt				; ..
150524: 000000              	halt				; ..
150526: 000000              	halt				; ..
150530: 000000              	halt				; ..
150532: 000000              	halt				; ..
150534: 000000              	halt				; ..
150536: 000000              	halt				; ..
150540: 000000              	halt				; ..
150542: 000000              	halt				; ..
150544: 000000              	halt				; ..
150546: 000000              	halt				; ..
150550: 000000              	halt				; ..
150552: 000000              	halt				; ..
150554: 000000              	halt				; ..
150556: 000000              	halt				; ..
150560: 000000              	halt				; ..
150562: 000000              	halt				; ..
150564: 000000              	halt				; ..
150566: 000000              	halt				; ..
150570: 000000              	halt				; ..
150572: 000000              	halt				; ..
150574: 000000              	halt				; ..
150576: 000000              	halt				; ..
150600: 000000              	halt				; ..
150602: 000000              	halt				; ..
150604: 000000              	halt				; ..
150606: 000000              	halt				; ..
150610: 000000              	halt				; ..
150612: 000000              	halt				; ..
150614: 000000              	halt				; ..
150616: 000000              	halt				; ..
150620: 000000              	halt				; ..
150622: 000000              	halt				; ..
150624: 000000              	halt				; ..
150626: 000000              	halt				; ..
150630: 000000              	halt				; ..
150632: 000000              	halt				; ..
150634: 000000              	halt				; ..
150636: 000000              	halt				; ..
150640: 000000              	halt				; ..
150642: 000000              	halt				; ..
150644: 000000              	halt				; ..
150646: 000000              	halt				; ..
150650: 000000              	halt				; ..
150652: 000000              	halt				; ..
150654: 000000              	halt				; ..
150656: 000000              	halt				; ..
150660: 000000              	halt				; ..
150662: 000000              	halt				; ..
150664: 000000              	halt				; ..
150666: 000000              	halt				; ..
150670: 000000              	halt				; ..
150672: 000000              	halt				; ..
150674: 000000              	halt				; ..
150676: 000000              	halt				; ..
150700: 000000              	halt				; ..
150702: 000000              	halt				; ..
150704: 000000              	halt				; ..
150706: 000000              	halt				; ..
150710: 000000              	halt				; ..
150712: 000000              	halt				; ..
150714: 000000              	halt				; ..
150716: 000000              	halt				; ..
150720: 000000              	halt				; ..
150722: 000000              	halt				; ..
150724: 000000              	halt				; ..
150726: 000000              	halt				; ..
150730: 000000              	halt				; ..
150732: 000000              	halt				; ..
150734: 000000              	halt				; ..
150736: 000000              	halt				; ..
150740: 000000              	halt				; ..
150742: 000000              	halt				; ..
150744: 000000              	halt				; ..
150746: 000000              	halt				; ..
150750: 000000              	halt				; ..
150752: 000000              	halt				; ..
150754: 000000              	halt				; ..
150756: 000000              	halt				; ..
150760: 000000              	halt				; ..
150762: 000000              	halt				; ..
150764: 000000              	halt				; ..
150766: 000000              	halt				; ..
150770: 000000              	halt				; ..
150772: 000000              	halt				; ..
150774: 000000              	halt				; ..
150776: 000000              	halt				; ..
151000: 000000              	halt				; ..
151002: 000000              	halt				; ..
151004: 000000              	halt				; ..
151006: 000000              	halt				; ..
151010: 000000              	halt				; ..
151012: 000000              	halt				; ..
151014: 000000              	halt				; ..
151016: 000000              	halt				; ..
151020: 000000              	halt				; ..
151022: 000000              	halt				; ..
151024: 000000              	halt				; ..
151026: 000000              	halt				; ..
151030: 000000              	halt				; ..
151032: 000000              	halt				; ..
151034: 000000              	halt				; ..
151036: 000000              	halt				; ..
151040: 000000              	halt				; ..
151042: 000000              	halt				; ..
151044: 000000              	halt				; ..
151046: 000000              	halt				; ..
151050: 000000              	halt				; ..
151052: 000000              	halt				; ..
151054: 000000              	halt				; ..
151056: 000000              	halt				; ..
151060: 000000              	halt				; ..
151062: 000000              	halt				; ..
151064: 000000              	halt				; ..
151066: 000000              	halt				; ..
151070: 000000              	halt				; ..
151072: 000000              	halt				; ..
151074: 000000              	halt				; ..
151076: 000000              	halt				; ..
151100: 000000              	halt				; ..
151102: 000000              	halt				; ..
151104: 000000              	halt				; ..
151106: 000000              	halt				; ..
151110: 000000              	halt				; ..
151112: 000000              	halt				; ..
151114: 000000              	halt				; ..
151116: 000000              	halt				; ..
151120: 000000              	halt				; ..
151122: 000000              	halt				; ..
151124: 000000              	halt				; ..
151126: 000000              	halt				; ..
151130: 000000              	halt				; ..
151132: 000000              	halt				; ..
151134: 000000              	halt				; ..
151136: 000000              	halt				; ..
151140: 000000              	halt				; ..
151142: 000000              	halt				; ..
151144: 000000              	halt				; ..
151146: 000000              	halt				; ..
151150: 000000              	halt				; ..
151152: 000000              	halt				; ..
151154: 000000              	halt				; ..
151156: 000000              	halt				; ..
151160: 000000              	halt				; ..
151162: 000000              	halt				; ..
151164: 000000              	halt				; ..
151166: 000000              	halt				; ..
151170: 000000              	halt				; ..
151172: 000000              	halt				; ..
151174: 000000              	halt				; ..
151176: 000000              	halt				; ..
151200: 000000              	halt				; ..
151202: 000000              	halt				; ..
151204: 000000              	halt				; ..
151206: 000000              	halt				; ..
151210: 000000              	halt				; ..
151212: 000000              	halt				; ..
151214: 000000              	halt				; ..
151216: 000000              	halt				; ..
151220: 000000              	halt				; ..
151222: 000000              	halt				; ..
151224: 000000              	halt				; ..
151226: 000000              	halt				; ..
151230: 000000              	halt				; ..
151232: 000000              	halt				; ..
151234: 000000              	halt				; ..
151236: 000000              	halt				; ..
151240: 000000              	halt				; ..
151242: 000000              	halt				; ..
151244: 000000              	halt				; ..
151246: 000000              	halt				; ..
151250: 000000              	halt				; ..
151252: 000000              	halt				; ..
151254: 000000              	halt				; ..
151256: 000000              	halt				; ..
151260: 000000              	halt				; ..
151262: 000000              	halt				; ..
151264: 000000              	halt				; ..
151266: 000000              	halt				; ..
151270: 000000              	halt				; ..
151272: 000000              	halt				; ..
151274: 000000              	halt				; ..
151276: 000000              	halt				; ..
151300: 000000              	halt				; ..
151302: 000000              	halt				; ..
151304: 000000              	halt				; ..
151306: 000000              	halt				; ..
151310: 000000              	halt				; ..
151312: 000000              	halt				; ..
151314: 000000              	halt				; ..
151316: 000000              	halt				; ..
151320: 000000              	halt				; ..
151322: 000000              	halt				; ..
151324: 000000              	halt				; ..
151326: 000000              	halt				; ..
151330: 000000              	halt				; ..
151332: 000000              	halt				; ..
151334: 000000              	halt				; ..
151336: 000000              	halt				; ..
151340: 000000              	halt				; ..
151342: 000000              	halt				; ..
151344: 000000              	halt				; ..
151346: 000000              	halt				; ..
151350: 000000              	halt				; ..
151352: 000000              	halt				; ..
151354: 000000              	halt				; ..
151356: 000000              	halt				; ..
151360: 000000              	halt				; ..
151362: 000000              	halt				; ..
151364: 000000              	halt				; ..
151366: 000000              	halt				; ..
151370: 000000              	halt				; ..
151372: 000000              	halt				; ..
151374: 000000              	halt				; ..
151376: 000000              	halt				; ..
151400: 000000              	halt				; ..
151402: 000000              	halt				; ..
151404: 000000              	halt				; ..
151406: 000000              	halt				; ..
151410: 000000              	halt				; ..
151412: 000000              	halt				; ..
151414: 000000              	halt				; ..
151416: 000000              	halt				; ..
151420: 000000              	halt				; ..
151422: 000000              	halt				; ..
151424: 000000              	halt				; ..
151426: 000000              	halt				; ..
151430: 000000              	halt				; ..
151432: 000000              	halt				; ..
151434: 000000              	halt				; ..
151436: 000000              	halt				; ..
151440: 000000              	halt				; ..
151442: 000000              	halt				; ..
151444: 000000              	halt				; ..
151446: 000000              	halt				; ..
151450: 000000              	halt				; ..
151452: 000000              	halt				; ..
151454: 000000              	halt				; ..
151456: 000000              	halt				; ..
151460: 000000              	halt				; ..
151462: 000000              	halt				; ..
151464: 000000              	halt				; ..
151466: 000000              	halt				; ..
151470: 000000              	halt				; ..
151472: 000000              	halt				; ..
151474: 000000              	halt				; ..
151476: 000000              	halt				; ..
151500: 000000              	halt				; ..
151502: 000000              	halt				; ..
151504: 000000              	halt				; ..
151506: 000000              	halt				; ..
151510: 000000              	halt				; ..
151512: 000000              	halt				; ..
151514: 000000              	halt				; ..
151516: 000000              	halt				; ..
151520: 000000              	halt				; ..
151522: 000000              	halt				; ..
151524: 000000              	halt				; ..
151526: 000000              	halt				; ..
151530: 000000              	halt				; ..
151532: 000000              	halt				; ..
151534: 000000              	halt				; ..
151536: 000000              	halt				; ..
151540: 000000              	halt				; ..
151542: 000000              	halt				; ..
151544: 000000              	halt				; ..
151546: 000000              	halt				; ..
151550: 000000              	halt				; ..
151552: 000000              	halt				; ..
151554: 000000              	halt				; ..
151556: 000000              	halt				; ..
151560: 000000              	halt				; ..
151562: 000000              	halt				; ..
151564: 000000              	halt				; ..
151566: 000000              	halt				; ..
151570: 000000              	halt				; ..
151572: 000000              	halt				; ..
151574: 000000              	halt				; ..
151576: 000000              	halt				; ..
151600: 000000              	halt				; ..
151602: 000000              	halt				; ..
151604: 000000              	halt				; ..
151606: 000000              	halt				; ..
151610: 000000              	halt				; ..
151612: 000000              	halt				; ..
151614: 000000              	halt				; ..
151616: 000000              	halt				; ..
151620: 000000              	halt				; ..
151622: 000000              	halt				; ..
151624: 000000              	halt				; ..
151626: 000000              	halt				; ..
151630: 000000              	halt				; ..
151632: 000000              	halt				; ..
151634: 000000              	halt				; ..
151636: 000000              	halt				; ..
151640: 000000              	halt				; ..
151642: 000000              	halt				; ..
151644: 000000              	halt				; ..
151646: 000000              	halt				; ..
151650: 000000              	halt				; ..
151652: 000000              	halt				; ..
151654: 000000              	halt				; ..
151656: 000000              	halt				; ..
151660: 000000              	halt				; ..
151662: 000000              	halt				; ..
151664: 000000              	halt				; ..
151666: 000000              	halt				; ..
151670: 000000              	halt				; ..
151672: 000000              	halt				; ..
151674: 000000              	halt				; ..
151676: 000000              	halt				; ..
151700: 000000              	halt				; ..
151702: 000000              	halt				; ..
151704: 000000              	halt				; ..
151706: 000000              	halt				; ..
151710: 000000              	halt				; ..
151712: 000000              	halt				; ..
151714: 000000              	halt				; ..
151716: 000000              	halt				; ..
151720: 000000              	halt				; ..
151722: 000000              	halt				; ..
151724: 000000              	halt				; ..
151726: 000000              	halt				; ..
151730: 000000              	halt				; ..
151732: 000000              	halt				; ..
151734: 000000              	halt				; ..
151736: 000000              	halt				; ..
151740: 000000              	halt				; ..
151742: 000000              	halt				; ..
151744: 000000              	halt				; ..
151746: 000000              	halt				; ..
151750: 000000              	halt				; ..
151752: 000000              	halt				; ..
151754: 000000              	halt				; ..
151756: 000000              	halt				; ..
151760: 000000              	halt				; ..
151762: 000000              	halt				; ..
151764: 000000              	halt				; ..
151766: 000000              	halt				; ..
151770: 000000              	halt				; ..
151772: 000000              	halt				; ..
151774: 000000              	halt				; ..
151776: 000000              	halt				; ..
152000: 000000              	halt				; ..
152002: 000000              	halt				; ..
152004: 000000              	halt				; ..
152006: 000000              	halt				; ..
152010: 000000              	halt				; ..
152012: 000000              	halt				; ..
152014: 000000              	halt				; ..
152016: 000000              	halt				; ..
152020: 000000              	halt				; ..
152022: 000000              	halt				; ..
152024: 000000              	halt				; ..
152026: 000000              	halt				; ..
152030: 000000              	halt				; ..
152032: 000000              	halt				; ..
152034: 000000              	halt				; ..
152036: 000000              	halt				; ..
152040: 000000              	halt				; ..
152042: 000000              	halt				; ..
152044: 000000              	halt				; ..
152046: 000000              	halt				; ..
152050: 000000              	halt				; ..
152052: 000000              	halt				; ..
152054: 000000              	halt				; ..
152056: 000000              	halt				; ..
152060: 000000              	halt				; ..
152062: 000000              	halt				; ..
152064: 000000              	halt				; ..
152066: 000000              	halt				; ..
152070: 000000              	halt				; ..
152072: 000000              	halt				; ..
152074: 000000              	halt				; ..
152076: 000000              	halt				; ..
152100: 000000              	halt				; ..
152102: 000000              	halt				; ..
152104: 000000              	halt				; ..
152106: 000000              	halt				; ..
152110: 000000              	halt				; ..
152112: 000000              	halt				; ..
152114: 000000              	halt				; ..
152116: 000000              	halt				; ..
152120: 000000              	halt				; ..
152122: 000000              	halt				; ..
152124: 000000              	halt				; ..
152126: 000000              	halt				; ..
152130: 000000              	halt				; ..
152132: 000000              	halt				; ..
152134: 000000              	halt				; ..
152136: 000000              	halt				; ..
152140: 000000              	halt				; ..
152142: 000000              	halt				; ..
152144: 000000              	halt				; ..
152146: 000000              	halt				; ..
152150: 000000              	halt				; ..
152152: 000000              	halt				; ..
152154: 000000              	halt				; ..
152156: 000000              	halt				; ..
152160: 000000              	halt				; ..
152162: 000000              	halt				; ..
152164: 000000              	halt				; ..
152166: 000000              	halt				; ..
152170: 000000              	halt				; ..
152172: 000000              	halt				; ..
152174: 000000              	halt				; ..
152176: 000000              	halt				; ..
152200: 000000              	halt				; ..
152202: 000000              	halt				; ..
152204: 000000              	halt				; ..
152206: 000000              	halt				; ..
152210: 000000              	halt				; ..
152212: 000000              	halt				; ..
152214: 000000              	halt				; ..
152216: 000000              	halt				; ..
152220: 000000              	halt				; ..
152222: 000000              	halt				; ..
152224: 000000              	halt				; ..
152226: 000000              	halt				; ..
152230: 000000              	halt				; ..
152232: 000000              	halt				; ..
152234: 000000              	halt				; ..
152236: 000000              	halt				; ..
152240: 000000              	halt				; ..
152242: 000000              	halt				; ..
152244: 000000              	halt				; ..
152246: 000000              	halt				; ..
152250: 000000              	halt				; ..
152252: 000000              	halt				; ..
152254: 000000              	halt				; ..
152256: 000000              	halt				; ..
152260: 000000              	halt				; ..
152262: 000000              	halt				; ..
152264: 000000              	halt				; ..
152266: 000000              	halt				; ..
152270: 000000              	halt				; ..
152272: 000000              	halt				; ..
152274: 000000              	halt				; ..
152276: 000000              	halt				; ..
152300: 000000              	halt				; ..
152302: 000000              	halt				; ..
152304: 000000              	halt				; ..
152306: 000000              	halt				; ..
152310: 000000              	halt				; ..
152312: 000000              	halt				; ..
152314: 000000              	halt				; ..
152316: 000000              	halt				; ..
152320: 000000              	halt				; ..
152322: 000000              	halt				; ..
152324: 000000              	halt				; ..
152326: 000000              	halt				; ..
152330: 000000              	halt				; ..
152332: 000000              	halt				; ..
152334: 000000              	halt				; ..
152336: 000000              	halt				; ..
152340: 000000              	halt				; ..
152342: 000000              	halt				; ..
152344: 000000              	halt				; ..
152346: 000000              	halt				; ..
152350: 000000              	halt				; ..
152352: 000000              	halt				; ..
152354: 000000              	halt				; ..
152356: 000000              	halt				; ..
152360: 000000              	halt				; ..
152362: 000000              	halt				; ..
152364: 000000              	halt				; ..
152366: 000000              	halt				; ..
152370: 000000              	halt				; ..
152372: 000000              	halt				; ..
152374: 000000              	halt				; ..
152376: 000000              	halt				; ..
152400: 000000              	halt				; ..
152402: 000000              	halt				; ..
152404: 000000              	halt				; ..
152406: 000000              	halt				; ..
152410: 000000              	halt				; ..
152412: 000000              	halt				; ..
152414: 000000              	halt				; ..
152416: 000000              	halt				; ..
152420: 000000              	halt				; ..
152422: 000000              	halt				; ..
152424: 000000              	halt				; ..
152426: 000000              	halt				; ..
152430: 000000              	halt				; ..
152432: 000000              	halt				; ..
152434: 000000              	halt				; ..
152436: 000000              	halt				; ..
152440: 000000              	halt				; ..
152442: 000000              	halt				; ..
152444: 000000              	halt				; ..
152446: 000000              	halt				; ..
152450: 000000              	halt				; ..
152452: 000000              	halt				; ..
152454: 000000              	halt				; ..
152456: 000000              	halt				; ..
152460: 000000              	halt				; ..
152462: 000000              	halt				; ..
152464: 000000              	halt				; ..
152466: 000000              	halt				; ..
152470: 000000              	halt				; ..
152472: 000000              	halt				; ..
152474: 000000              	halt				; ..
152476: 000000              	halt				; ..
152500: 000000              	halt				; ..
152502: 000000              	halt				; ..
152504: 000000              	halt				; ..
152506: 000000              	halt				; ..
152510: 000000              	halt				; ..
152512: 000000              	halt				; ..
152514: 000000              	halt				; ..
152516: 000000              	halt				; ..
152520: 000000              	halt				; ..
152522: 000000              	halt				; ..
152524: 000000              	halt				; ..
152526: 000000              	halt				; ..
152530: 000000              	halt				; ..
152532: 000000              	halt				; ..
152534: 000000              	halt				; ..
152536: 000000              	halt				; ..
152540: 000000              	halt				; ..
152542: 000000              	halt				; ..
152544: 000000              	halt				; ..
152546: 000000              	halt				; ..
152550: 000000              	halt				; ..
152552: 000000              	halt				; ..
152554: 000000              	halt				; ..
152556: 000000              	halt				; ..
152560: 000000              	halt				; ..
152562: 000000              	halt				; ..
152564: 000000              	halt				; ..
152566: 000000              	halt				; ..
152570: 000000              	halt				; ..
152572: 000000              	halt				; ..
152574: 000000              	halt				; ..
152576: 000000              	halt				; ..
152600: 000000              	halt				; ..
152602: 000000              	halt				; ..
152604: 000000              	halt				; ..
152606: 000000              	halt				; ..
152610: 000000              	halt				; ..
152612: 000000              	halt				; ..
152614: 000000              	halt				; ..
152616: 000000              	halt				; ..
152620: 000000              	halt				; ..
152622: 000000              	halt				; ..
152624: 000000              	halt				; ..
152626: 000000              	halt				; ..
152630: 000000              	halt				; ..
152632: 000000              	halt				; ..
152634: 000000              	halt				; ..
152636: 000000              	halt				; ..
152640: 000000              	halt				; ..
152642: 000000              	halt				; ..
152644: 000000              	halt				; ..
152646: 000000              	halt				; ..
152650: 000000              	halt				; ..
152652: 000000              	halt				; ..
152654: 000000              	halt				; ..
152656: 000000              	halt				; ..
152660: 000000              	halt				; ..
152662: 000000              	halt				; ..
152664: 000000              	halt				; ..
152666: 000000              	halt				; ..
152670: 000000              	halt				; ..
152672: 000000              	halt				; ..
152674: 000000              	halt				; ..
152676: 000000              	halt				; ..
152700: 000000              	halt				; ..
152702: 000000              	halt				; ..
152704: 000000              	halt				; ..
152706: 000000              	halt				; ..
152710: 000000              	halt				; ..
152712: 000000              	halt				; ..
152714: 000000              	halt				; ..
152716: 000000              	halt				; ..
152720: 000000              	halt				; ..
152722: 000000              	halt				; ..
152724: 000000              	halt				; ..
152726: 000000              	halt				; ..
152730: 000000              	halt				; ..
152732: 000000              	halt				; ..
152734: 000000              	halt				; ..
152736: 000000              	halt				; ..
152740: 000000              	halt				; ..
152742: 000000              	halt				; ..
152744: 000000              	halt				; ..
152746: 000000              	halt				; ..
152750: 000000              	halt				; ..
152752: 000000              	halt				; ..
152754: 000000              	halt				; ..
152756: 000000              	halt				; ..
152760: 000000              	halt				; ..
152762: 000000              	halt				; ..
152764: 000000              	halt				; ..
152766: 000000              	halt				; ..
152770: 000000              	halt				; ..
152772: 000000              	halt				; ..
152774: 000000              	halt				; ..
152776: 000000              	halt				; ..
153000: 000000              	halt				; ..
153002: 000000              	halt				; ..
153004: 000000              	halt				; ..
153006: 000000              	halt				; ..
153010: 000000              	halt				; ..
153012: 000000              	halt				; ..
153014: 000000              	halt				; ..
153016: 000000              	halt				; ..
153020: 000000              	halt				; ..
153022: 000000              	halt				; ..
153024: 000000              	halt				; ..
153026: 000000              	halt				; ..
153030: 000000              	halt				; ..
153032: 000000              	halt				; ..
153034: 000000              	halt				; ..
153036: 000000              	halt				; ..
153040: 000000              	halt				; ..
153042: 000000              	halt				; ..
153044: 000000              	halt				; ..
153046: 000000              	halt				; ..
153050: 000000              	halt				; ..
153052: 000000              	halt				; ..
153054: 000000              	halt				; ..
153056: 000000              	halt				; ..
153060: 000000              	halt				; ..
153062: 000000              	halt				; ..
153064: 000000              	halt				; ..
153066: 000000              	halt				; ..
153070: 000000              	halt				; ..
153072: 000000              	halt				; ..
153074: 000000              	halt				; ..
153076: 000000              	halt				; ..
153100: 000000              	halt				; ..
153102: 000000              	halt				; ..
153104: 000000              	halt				; ..
153106: 000000              	halt				; ..
153110: 000000              	halt				; ..
153112: 000000              	halt				; ..
153114: 000000              	halt				; ..
153116: 000000              	halt				; ..
153120: 000000              	halt				; ..
153122: 000000              	halt				; ..
153124: 000000              	halt				; ..
153126: 000000              	halt				; ..
153130: 000000              	halt				; ..
153132: 000000              	halt				; ..
153134: 000000              	halt				; ..
153136: 000000              	halt				; ..
153140: 000000              	halt				; ..
153142: 000000              	halt				; ..
153144: 000000              	halt				; ..
153146: 000000              	halt				; ..
153150: 000000              	halt				; ..
153152: 000000              	halt				; ..
153154: 000000              	halt				; ..
153156: 000000              	halt				; ..
153160: 000000              	halt				; ..
153162: 000000              	halt				; ..
153164: 000000              	halt				; ..
153166: 000000              	halt				; ..
153170: 000000              	halt				; ..
153172: 000000              	halt				; ..
153174: 000000              	halt				; ..
153176: 000000              	halt				; ..
153200: 000000              	halt				; ..
153202: 000000              	halt				; ..
153204: 000000              	halt				; ..
153206: 000000              	halt				; ..
153210: 000000              	halt				; ..
153212: 000000              	halt				; ..
153214: 000000              	halt				; ..
153216: 000000              	halt				; ..
153220: 000000              	halt				; ..
153222: 000000              	halt				; ..
153224: 000000              	halt				; ..
153226: 000000              	halt				; ..
153230: 000000              	halt				; ..
153232: 000000              	halt				; ..
153234: 000000              	halt				; ..
153236: 000000              	halt				; ..
153240: 000000              	halt				; ..
153242: 000000              	halt				; ..
153244: 000000              	halt				; ..
153246: 000000              	halt				; ..
153250: 000000              	halt				; ..
153252: 000000              	halt				; ..
153254: 000000              	halt				; ..
153256: 000000              	halt				; ..
153260: 000000              	halt				; ..
153262: 000000              	halt				; ..
153264: 000000              	halt				; ..
153266: 000000              	halt				; ..
153270: 000000              	halt				; ..
153272: 000000              	halt				; ..
153274: 000000              	halt				; ..
153276: 000000              	halt				; ..
153300: 000000              	halt				; ..
153302: 000000              	halt				; ..
153304: 000000              	halt				; ..
153306: 000000              	halt				; ..
153310: 000000              	halt				; ..
153312: 000000              	halt				; ..
153314: 000000              	halt				; ..
153316: 000000              	halt				; ..
153320: 000000              	halt				; ..
153322: 000000              	halt				; ..
153324: 000000              	halt				; ..
153326: 000000              	halt				; ..
153330: 000000              	halt				; ..
153332: 000000              	halt				; ..
153334: 000000              	halt				; ..
153336: 000000              	halt				; ..
153340: 000000              	halt				; ..
153342: 000000              	halt				; ..
153344: 000000              	halt				; ..
153346: 000000              	halt				; ..
153350: 000000              	halt				; ..
153352: 000000              	halt				; ..
153354: 000000              	halt				; ..
153356: 000000              	halt				; ..
153360: 000000              	halt				; ..
153362: 000000              	halt				; ..
153364: 000000              	halt				; ..
153366: 000000              	halt				; ..
153370: 000000              	halt				; ..
153372: 000000              	halt				; ..
153374: 000000              	halt				; ..
153376: 000000              	halt				; ..
153400: 000000              	halt				; ..
153402: 000000              	halt				; ..
153404: 000000              	halt				; ..
153406: 000000              	halt				; ..
153410: 000000              	halt				; ..
153412: 000000              	halt				; ..
153414: 000000              	halt				; ..
153416: 000000              	halt				; ..
153420: 000000              	halt				; ..
153422: 000000              	halt				; ..
153424: 000000              	halt				; ..
153426: 000000              	halt				; ..
153430: 000000              	halt				; ..
153432: 000000              	halt				; ..
153434: 000000              	halt				; ..
153436: 000000              	halt				; ..
153440: 000000              	halt				; ..
153442: 000000              	halt				; ..
153444: 000000              	halt				; ..
153446: 000000              	halt				; ..
153450: 000000              	halt				; ..
153452: 000000              	halt				; ..
153454: 000000              	halt				; ..
153456: 000000              	halt				; ..
153460: 000000              	halt				; ..
153462: 000000              	halt				; ..
153464: 000000              	halt				; ..
153466: 000000              	halt				; ..
153470: 000000              	halt				; ..
153472: 000000              	halt				; ..
153474: 000000              	halt				; ..
153476: 000000              	halt				; ..
153500: 000000              	halt				; ..
153502: 000000              	halt				; ..
153504: 000000              	halt				; ..
153506: 000000              	halt				; ..
153510: 000000              	halt				; ..
153512: 000000              	halt				; ..
153514: 000000              	halt				; ..
153516: 000000              	halt				; ..
153520: 000000              	halt				; ..
153522: 000000              	halt				; ..
153524: 000000              	halt				; ..
153526: 000000              	halt				; ..
153530: 000000              	halt				; ..
153532: 000000              	halt				; ..
153534: 000000              	halt				; ..
153536: 000000              	halt				; ..
153540: 000000              	halt				; ..
153542: 000000              	halt				; ..
153544: 000000              	halt				; ..
153546: 000000              	halt				; ..
153550: 000000              	halt				; ..
153552: 000000              	halt				; ..
153554: 000000              	halt				; ..
153556: 000000              	halt				; ..
153560: 000000              	halt				; ..
153562: 000000              	halt				; ..
153564: 000000              	halt				; ..
153566: 000000              	halt				; ..
153570: 000000              	halt				; ..
153572: 000000              	halt				; ..
153574: 000000              	halt				; ..
153576: 000000              	halt				; ..
153600: 000000              	halt				; ..
153602: 000000              	halt				; ..
153604: 000000              	halt				; ..
153606: 000000              	halt				; ..
153610: 000000              	halt				; ..
153612: 000000              	halt				; ..
153614: 000000              	halt				; ..
153616: 000000              	halt				; ..
153620: 000000              	halt				; ..
153622: 000000              	halt				; ..
153624: 000000              	halt				; ..
153626: 000000              	halt				; ..
153630: 000000              	halt				; ..
153632: 000000              	halt				; ..
153634: 000000              	halt				; ..
153636: 000000              	halt				; ..
153640: 000000              	halt				; ..
153642: 000000              	halt				; ..
153644: 000000              	halt				; ..
153646: 000000              	halt				; ..
153650: 000000              	halt				; ..
153652: 000000              	halt				; ..
153654: 000000              	halt				; ..
153656: 000000              	halt				; ..
153660: 000000              	halt				; ..
153662: 000000              	halt				; ..
153664: 000000              	halt				; ..
153666: 000000              	halt				; ..
153670: 000000              	halt				; ..
153672: 000000              	halt				; ..
153674: 000000              	halt				; ..
153676: 000000              	halt				; ..
153700: 000000              	halt				; ..
153702: 000000              	halt				; ..
153704: 000000              	halt				; ..
153706: 000000              	halt				; ..
153710: 000000              	halt				; ..
153712: 000000              	halt				; ..
153714: 000000              	halt				; ..
153716: 000000              	halt				; ..
153720: 000000              	halt				; ..
153722: 000000              	halt				; ..
153724: 000000              	halt				; ..
153726: 000000              	halt				; ..
153730: 000000              	halt				; ..
153732: 000000              	halt				; ..
153734: 000000              	halt				; ..
153736: 000000              	halt				; ..
153740: 000000              	halt				; ..
153742: 000000              	halt				; ..
153744: 000000              	halt				; ..
153746: 000000              	halt				; ..
153750: 000000              	halt				; ..
153752: 000000              	halt				; ..
153754: 000000              	halt				; ..
153756: 000000              	halt				; ..
153760: 000000              	halt				; ..
153762: 000000              	halt				; ..
153764: 000000              	halt				; ..
153766: 000000              	halt				; ..
153770: 000000              	halt				; ..
153772: 000000              	halt				; ..
153774: 000000              	halt				; ..
153776: 000000              	halt				; ..
154000: 000000              	halt				; ..
154002: 000000              	halt				; ..
154004: 000000              	halt				; ..
154006: 000000              	halt				; ..
154010: 000000              	halt				; ..
154012: 000000              	halt				; ..
154014: 000000              	halt				; ..
154016: 000000              	halt				; ..
154020: 000000              	halt				; ..
154022: 000000              	halt				; ..
154024: 000000              	halt				; ..
154026: 000000              	halt				; ..
154030: 000000              	halt				; ..
154032: 000000              	halt				; ..
154034: 000000              	halt				; ..
154036: 000000              	halt				; ..
154040: 000000              	halt				; ..
154042: 000000              	halt				; ..
154044: 000000              	halt				; ..
154046: 000000              	halt				; ..
154050: 000000              	halt				; ..
154052: 000000              	halt				; ..
154054: 000000              	halt				; ..
154056: 000000              	halt				; ..
154060: 000000              	halt				; ..
154062: 000000              	halt				; ..
154064: 000000              	halt				; ..
154066: 000000              	halt				; ..
154070: 000000              	halt				; ..
154072: 000000              	halt				; ..
154074: 000000              	halt				; ..
154076: 000000              	halt				; ..
154100: 000000              	halt				; ..
154102: 000000              	halt				; ..
154104: 000000              	halt				; ..
154106: 000000              	halt				; ..
154110: 000000              	halt				; ..
154112: 000000              	halt				; ..
154114: 000000              	halt				; ..
154116: 000000              	halt				; ..
154120: 000000              	halt				; ..
154122: 000000              	halt				; ..
154124: 000000              	halt				; ..
154126: 000000              	halt				; ..
154130: 000000              	halt				; ..
154132: 000000              	halt				; ..
154134: 000000              	halt				; ..
154136: 000000              	halt				; ..
154140: 000000              	halt				; ..
154142: 000000              	halt				; ..
154144: 000000              	halt				; ..
154146: 000000              	halt				; ..
154150: 000000              	halt				; ..
154152: 000000              	halt				; ..
154154: 000000              	halt				; ..
154156: 000000              	halt				; ..
154160: 000000              	halt				; ..
154162: 000000              	halt				; ..
154164: 000000              	halt				; ..
154166: 000000              	halt				; ..
154170: 000000              	halt				; ..
154172: 000000              	halt				; ..
154174: 000000              	halt				; ..
154176: 000000              	halt				; ..
154200: 000000              	halt				; ..
154202: 000000              	halt				; ..
154204: 000000              	halt				; ..
154206: 000000              	halt				; ..
154210: 000000              	halt				; ..
154212: 000000              	halt				; ..
154214: 000000              	halt				; ..
154216: 000000              	halt				; ..
154220: 000000              	halt				; ..
154222: 000000              	halt				; ..
154224: 000000              	halt				; ..
154226: 000000              	halt				; ..
154230: 000000              	halt				; ..
154232: 000000              	halt				; ..
154234: 000000              	halt				; ..
154236: 000000              	halt				; ..
154240: 000000              	halt				; ..
154242: 000000              	halt				; ..
154244: 000000              	halt				; ..
154246: 000000              	halt				; ..
154250: 000000              	halt				; ..
154252: 000000              	halt				; ..
154254: 000000              	halt				; ..
154256: 000000              	halt				; ..
154260: 000000              	halt				; ..
154262: 000000              	halt				; ..
154264: 000000              	halt				; ..
154266: 000000              	halt				; ..
154270: 000000              	halt				; ..
154272: 000000              	halt				; ..
154274: 000000              	halt				; ..
154276: 000000              	halt				; ..
154300: 000000              	halt				; ..
154302: 000000              	halt				; ..
154304: 000000              	halt				; ..
154306: 000000              	halt				; ..
154310: 000000              	halt				; ..
154312: 000000              	halt				; ..
154314: 000000              	halt				; ..
154316: 000000              	halt				; ..
154320: 000000              	halt				; ..
154322: 000000              	halt				; ..
154324: 000000              	halt				; ..
154326: 000000              	halt				; ..
154330: 000000              	halt				; ..
154332: 000000              	halt				; ..
154334: 000000              	halt				; ..
154336: 000000              	halt				; ..
154340: 000000              	halt				; ..
154342: 000000              	halt				; ..
154344: 000000              	halt				; ..
154346: 000000              	halt				; ..
154350: 000000              	halt				; ..
154352: 000000              	halt				; ..
154354: 000000              	halt				; ..
154356: 000000              	halt				; ..
154360: 000000              	halt				; ..
154362: 000000              	halt				; ..
154364: 000000              	halt				; ..
154366: 000000              	halt				; ..
154370: 000000              	halt				; ..
154372: 000000              	halt				; ..
154374: 000000              	halt				; ..
154376: 000000              	halt				; ..
154400: 000000              	halt				; ..
154402: 000000              	halt				; ..
154404: 000000              	halt				; ..
154406: 000000              	halt				; ..
154410: 000000              	halt				; ..
154412: 000000              	halt				; ..
154414: 000000              	halt				; ..
154416: 000000              	halt				; ..
154420: 000000              	halt				; ..
154422: 000000              	halt				; ..
154424: 000000              	halt				; ..
154426: 000000              	halt				; ..
154430: 000000              	halt				; ..
154432: 000000              	halt				; ..
154434: 000000              	halt				; ..
154436: 000000              	halt				; ..
154440: 000000              	halt				; ..
154442: 000000              	halt				; ..
154444: 000000              	halt				; ..
154446: 000000              	halt				; ..
154450: 000000              	halt				; ..
154452: 000000              	halt				; ..
154454: 000000              	halt				; ..
154456: 000000              	halt				; ..
154460: 000000              	halt				; ..
154462: 000000              	halt				; ..
154464: 000000              	halt				; ..
154466: 000000              	halt				; ..
154470: 000000              	halt				; ..
154472: 000000              	halt				; ..
154474: 000000              	halt				; ..
154476: 000000              	halt				; ..
154500: 000000              	halt				; ..
154502: 000000              	halt				; ..
154504: 000000              	halt				; ..
154506: 000000              	halt				; ..
154510: 000000              	halt				; ..
154512: 000000              	halt				; ..
154514: 000000              	halt				; ..
154516: 000000              	halt				; ..
154520: 000000              	halt				; ..
154522: 000000              	halt				; ..
154524: 000000              	halt				; ..
154526: 000000              	halt				; ..
154530: 000000              	halt				; ..
154532: 000000              	halt				; ..
154534: 000000              	halt				; ..
154536: 000000              	halt				; ..
154540: 000000              	halt				; ..
154542: 000000              	halt				; ..
154544: 000000              	halt				; ..
154546: 000000              	halt				; ..
154550: 000000              	halt				; ..
154552: 000000              	halt				; ..
154554: 000000              	halt				; ..
154556: 000000              	halt				; ..
154560: 000000              	halt				; ..
154562: 000000              	halt				; ..
154564: 000000              	halt				; ..
154566: 000000              	halt				; ..
154570: 000000              	halt				; ..
154572: 000000              	halt				; ..
154574: 000000              	halt				; ..
154576: 000000              	halt				; ..
154600: 000000              	halt				; ..
154602: 000000              	halt				; ..
154604: 000000              	halt				; ..
154606: 000000              	halt				; ..
154610: 000000              	halt				; ..
154612: 000000              	halt				; ..
154614: 000000              	halt				; ..
154616: 000000              	halt				; ..
154620: 000000              	halt				; ..
154622: 000000              	halt				; ..
154624: 000000              	halt				; ..
154626: 000000              	halt				; ..
154630: 000000              	halt				; ..
154632: 000000              	halt				; ..
154634: 000000              	halt				; ..
154636: 000000              	halt				; ..
154640: 000000              	halt				; ..
154642: 000000              	halt				; ..
154644: 000000              	halt				; ..
154646: 000000              	halt				; ..
154650: 000000              	halt				; ..
154652: 000000              	halt				; ..
154654: 000000              	halt				; ..
154656: 000000              	halt				; ..
154660: 000000              	halt				; ..
154662: 000000              	halt				; ..
154664: 000000              	halt				; ..
154666: 000000              	halt				; ..
154670: 000000              	halt				; ..
154672: 000000              	halt				; ..
154674: 000000              	halt				; ..
154676: 000000              	halt				; ..
154700: 000000              	halt				; ..
154702: 000000              	halt				; ..
154704: 000000              	halt				; ..
154706: 000000              	halt				; ..
154710: 000000              	halt				; ..
154712: 000000              	halt				; ..
154714: 000000              	halt				; ..
154716: 000000              	halt				; ..
154720: 000000              	halt				; ..
154722: 000000              	halt				; ..
154724: 000000              	halt				; ..
154726: 000000              	halt				; ..
154730: 000000              	halt				; ..
154732: 000000              	halt				; ..
154734: 000000              	halt				; ..
154736: 000000              	halt				; ..
154740: 000000              	halt				; ..
154742: 000000              	halt				; ..
154744: 000000              	halt				; ..
154746: 000000              	halt				; ..
154750: 000000              	halt				; ..
154752: 000000              	halt				; ..
154754: 000000              	halt				; ..
154756: 000000              	halt				; ..
154760: 000000              	halt				; ..
154762: 000000              	halt				; ..
154764: 000000              	halt				; ..
154766: 000000              	halt				; ..
154770: 000000              	halt				; ..
154772: 000000              	halt				; ..
154774: 000000              	halt				; ..
154776: 000000              	halt				; ..
155000: 000000              	halt				; ..
155002: 000000              	halt				; ..
155004: 000000              	halt				; ..
155006: 000000              	halt				; ..
155010: 000000              	halt				; ..
155012: 000000              	halt				; ..
155014: 000000              	halt				; ..
155016: 000000              	halt				; ..
155020: 000000              	halt				; ..
155022: 000000              	halt				; ..
155024: 000000              	halt				; ..
155026: 000000              	halt				; ..
155030: 000000              	halt				; ..
155032: 000000              	halt				; ..
155034: 000000              	halt				; ..
155036: 000000              	halt				; ..
155040: 000000              	halt				; ..
155042: 000000              	halt				; ..
155044: 000000              	halt				; ..
155046: 000000              	halt				; ..
155050: 000000              	halt				; ..
155052: 000000              	halt				; ..
155054: 000000              	halt				; ..
155056: 000000              	halt				; ..
155060: 000000              	halt				; ..
155062: 000000              	halt				; ..
155064: 000000              	halt				; ..
155066: 000000              	halt				; ..
155070: 000000              	halt				; ..
155072: 000000              	halt				; ..
155074: 000000              	halt				; ..
155076: 000000              	halt				; ..
155100: 000000              	halt				; ..
155102: 000000              	halt				; ..
155104: 000000              	halt				; ..
155106: 000000              	halt				; ..
155110: 000000              	halt				; ..
155112: 000000              	halt				; ..
155114: 000000              	halt				; ..
155116: 000000              	halt				; ..
155120: 000000              	halt				; ..
155122: 000000              	halt				; ..
155124: 000000              	halt				; ..
155126: 000000              	halt				; ..
155130: 000000              	halt				; ..
155132: 000000              	halt				; ..
155134: 000000              	halt				; ..
155136: 000000              	halt				; ..
155140: 000000              	halt				; ..
155142: 000000              	halt				; ..
155144: 000000              	halt				; ..
155146: 000000              	halt				; ..
155150: 000000              	halt				; ..
155152: 000000              	halt				; ..
155154: 000000              	halt				; ..
155156: 000000              	halt				; ..
155160: 000000              	halt				; ..
155162: 000000              	halt				; ..
155164: 000000              	halt				; ..
155166: 000000              	halt				; ..
155170: 000000              	halt				; ..
155172: 000000              	halt				; ..
155174: 000000              	halt				; ..
155176: 000000              	halt				; ..
155200: 000000              	halt				; ..
155202: 000000              	halt				; ..
155204: 000000              	halt				; ..
155206: 000000              	halt				; ..
155210: 000000              	halt				; ..
155212: 000000              	halt				; ..
155214: 000000              	halt				; ..
155216: 000000              	halt				; ..
155220: 000000              	halt				; ..
155222: 000000              	halt				; ..
155224: 000000              	halt				; ..
155226: 000000              	halt				; ..
155230: 000000              	halt				; ..
155232: 000000              	halt				; ..
155234: 000000              	halt				; ..
155236: 000000              	halt				; ..
155240: 000000              	halt				; ..
155242: 000000              	halt				; ..
155244: 000000              	halt				; ..
155246: 000000              	halt				; ..
155250: 000000              	halt				; ..
155252: 000000              	halt				; ..
155254: 000000              	halt				; ..
155256: 000000              	halt				; ..
155260: 000000              	halt				; ..
155262: 000000              	halt				; ..
155264: 000000              	halt				; ..
155266: 000000              	halt				; ..
155270: 000000              	halt				; ..
155272: 000000              	halt				; ..
155274: 000000              	halt				; ..
155276: 000000              	halt				; ..
155300: 000000              	halt				; ..
155302: 000000              	halt				; ..
155304: 000000              	halt				; ..
155306: 000000              	halt				; ..
155310: 000000              	halt				; ..
155312: 000000              	halt				; ..
155314: 000000              	halt				; ..
155316: 000000              	halt				; ..
155320: 000000              	halt				; ..
155322: 000000              	halt				; ..
155324: 000000              	halt				; ..
155326: 000000              	halt				; ..
155330: 000000              	halt				; ..
155332: 000000              	halt				; ..
155334: 000000              	halt				; ..
155336: 000000              	halt				; ..
155340: 000000              	halt				; ..
155342: 000000              	halt				; ..
155344: 000000              	halt				; ..
155346: 000000              	halt				; ..
155350: 000000              	halt				; ..
155352: 000000              	halt				; ..
155354: 000000              	halt				; ..
155356: 000000              	halt				; ..
155360: 000000              	halt				; ..
155362: 000000              	halt				; ..
155364: 000000              	halt				; ..
155366: 000000              	halt				; ..
155370: 000000              	halt				; ..
155372: 000000              	halt				; ..
155374: 000000              	halt				; ..
155376: 000000              	halt				; ..
155400: 000000              	halt				; ..
155402: 000000              	halt				; ..
155404: 000000              	halt				; ..
155406: 000000              	halt				; ..
155410: 000000              	halt				; ..
155412: 000000              	halt				; ..
155414: 000000              	halt				; ..
155416: 000000              	halt				; ..
155420: 000000              	halt				; ..
155422: 000000              	halt				; ..
155424: 000000              	halt				; ..
155426: 000000              	halt				; ..
155430: 000000              	halt				; ..
155432: 000000              	halt				; ..
155434: 000000              	halt				; ..
155436: 000000              	halt				; ..
155440: 000000              	halt				; ..
155442: 000000              	halt				; ..
155444: 000000              	halt				; ..
155446: 000000              	halt				; ..
155450: 000000              	halt				; ..
155452: 000000              	halt				; ..
155454: 000000              	halt				; ..
155456: 000000              	halt				; ..
155460: 000000              	halt				; ..
155462: 000000              	halt				; ..
155464: 000000              	halt				; ..
155466: 000000              	halt				; ..
155470: 000000              	halt				; ..
155472: 000000              	halt				; ..
155474: 000000              	halt				; ..
155476: 000000              	halt				; ..
155500: 000000              	halt				; ..
155502: 000000              	halt				; ..
155504: 000000              	halt				; ..
155506: 000000              	halt				; ..
155510: 000000              	halt				; ..
155512: 000000              	halt				; ..
155514: 000000              	halt				; ..
155516: 000000              	halt				; ..
155520: 000000              	halt				; ..
155522: 000000              	halt				; ..
155524: 000000              	halt				; ..
155526: 000000              	halt				; ..
155530: 000000              	halt				; ..
155532: 000000              	halt				; ..
155534: 000000              	halt				; ..
155536: 000000              	halt				; ..
155540: 000000              	halt				; ..
155542: 000000              	halt				; ..
155544: 000000              	halt				; ..
155546: 000000              	halt				; ..
155550: 000000              	halt				; ..
155552: 000000              	halt				; ..
155554: 000000              	halt				; ..
155556: 000000              	halt				; ..
155560: 000000              	halt				; ..
155562: 000000              	halt				; ..
155564: 000000              	halt				; ..
155566: 000000              	halt				; ..
155570: 000000              	halt				; ..
155572: 000000              	halt				; ..
155574: 000000              	halt				; ..
155576: 000000              	halt				; ..
155600: 000000              	halt				; ..
155602: 000000              	halt				; ..
155604: 000000              	halt				; ..
155606: 000000              	halt				; ..
155610: 000000              	halt				; ..
155612: 000000              	halt				; ..
155614: 000000              	halt				; ..
155616: 000000              	halt				; ..
155620: 000000              	halt				; ..
155622: 000000              	halt				; ..
155624: 000000              	halt				; ..
155626: 000000              	halt				; ..
155630: 000000              	halt				; ..
155632: 000000              	halt				; ..
155634: 000000              	halt				; ..
155636: 000000              	halt				; ..
155640: 000000              	halt				; ..
155642: 000000              	halt				; ..
155644: 000000              	halt				; ..
155646: 000000              	halt				; ..
155650: 000000              	halt				; ..
155652: 000000              	halt				; ..
155654: 000000              	halt				; ..
155656: 000000              	halt				; ..
155660: 000000              	halt				; ..
155662: 000000              	halt				; ..
155664: 000000              	halt				; ..
155666: 000000              	halt				; ..
155670: 000000              	halt				; ..
155672: 000000              	halt				; ..
155674: 000000              	halt				; ..
155676: 000000              	halt				; ..
155700: 000000              	halt				; ..
155702: 000000              	halt				; ..
155704: 000000              	halt				; ..
155706: 000000              	halt				; ..
155710: 000000              	halt				; ..
155712: 000000              	halt				; ..
155714: 000000              	halt				; ..
155716: 000000              	halt				; ..
155720: 000000              	halt				; ..
155722: 000000              	halt				; ..
155724: 000000              	halt				; ..
155726: 000000              	halt				; ..
155730: 000000              	halt				; ..
155732: 000000              	halt				; ..
155734: 000000              	halt				; ..
155736: 000000              	halt				; ..
155740: 000000              	halt				; ..
155742: 000000              	halt				; ..
155744: 000000              	halt				; ..
155746: 000000              	halt				; ..
155750: 000000              	halt				; ..
155752: 000000              	halt				; ..
155754: 000000              	halt				; ..
155756: 000000              	halt				; ..
155760: 000000              	halt				; ..
155762: 000000              	halt				; ..
155764: 000000              	halt				; ..
155766: 000000              	halt				; ..
155770: 000000              	halt				; ..
155772: 000000              	halt				; ..
155774: 000000              	halt				; ..
155776: 000000              	halt				; ..
156000: 000000              	halt				; ..
156002: 000000              	halt				; ..
156004: 000000              	halt				; ..
156006: 000000              	halt				; ..
156010: 000000              	halt				; ..
156012: 000000              	halt				; ..
156014: 000000              	halt				; ..
156016: 000000              	halt				; ..
156020: 000000              	halt				; ..
156022: 000000              	halt				; ..
156024: 000000              	halt				; ..
156026: 000000              	halt				; ..
156030: 000000              	halt				; ..
156032: 000000              	halt				; ..
156034: 000000              	halt				; ..
156036: 000000              	halt				; ..
156040: 000000              	halt				; ..
156042: 000000              	halt				; ..
156044: 000000              	halt				; ..
156046: 000000              	halt				; ..
156050: 000000              	halt				; ..
156052: 000000              	halt				; ..
156054: 000000              	halt				; ..
156056: 000000              	halt				; ..
156060: 000000              	halt				; ..
156062: 000000              	halt				; ..
156064: 000000              	halt				; ..
156066: 000000              	halt				; ..
156070: 000000              	halt				; ..
156072: 000000              	halt				; ..
156074: 000000              	halt				; ..
156076: 000000              	halt				; ..
156100: 000000              	halt				; ..
156102: 000000              	halt				; ..
156104: 000000              	halt				; ..
156106: 000000              	halt				; ..
156110: 000000              	halt				; ..
156112: 000000              	halt				; ..
156114: 000000              	halt				; ..
156116: 000000              	halt				; ..
156120: 000000              	halt				; ..
156122: 000000              	halt				; ..
156124: 000000              	halt				; ..
156126: 000000              	halt				; ..
156130: 000000              	halt				; ..
156132: 000000              	halt				; ..
156134: 000000              	halt				; ..
156136: 000000              	halt				; ..
156140: 000000              	halt				; ..
156142: 000000              	halt				; ..
156144: 000000              	halt				; ..
156146: 000000              	halt				; ..
156150: 000000              	halt				; ..
156152: 000000              	halt				; ..
156154: 000000              	halt				; ..
156156: 000000              	halt				; ..
156160: 000000              	halt				; ..
156162: 000000              	halt				; ..
156164: 000000              	halt				; ..
156166: 000000              	halt				; ..
156170: 000000              	halt				; ..
156172: 000000              	halt				; ..
156174: 000000              	halt				; ..
156176: 000000              	halt				; ..
156200: 000000              	halt				; ..
156202: 000000              	halt				; ..
156204: 000000              	halt				; ..
156206: 000000              	halt				; ..
156210: 000000              	halt				; ..
156212: 000000              	halt				; ..
156214: 000000              	halt				; ..
156216: 000000              	halt				; ..
156220: 000000              	halt				; ..
156222: 000000              	halt				; ..
156224: 000000              	halt				; ..
156226: 000000              	halt				; ..
156230: 000000              	halt				; ..
156232: 000000              	halt				; ..
156234: 000000              	halt				; ..
156236: 000000              	halt				; ..
156240: 000000              	halt				; ..
156242: 000000              	halt				; ..
156244: 000000              	halt				; ..
156246: 000000              	halt				; ..
156250: 000000              	halt				; ..
156252: 000000              	halt				; ..
156254: 000000              	halt				; ..
156256: 000000              	halt				; ..
156260: 000000              	halt				; ..
156262: 000000              	halt				; ..
156264: 000000              	halt				; ..
156266: 000000              	halt				; ..
156270: 000000              	halt				; ..
156272: 000000              	halt				; ..
156274: 000000              	halt				; ..
156276: 000000              	halt				; ..
156300: 000000              	halt				; ..
156302: 000000              	halt				; ..
156304: 000000              	halt				; ..
156306: 000000              	halt				; ..
156310: 000000              	halt				; ..
156312: 000000              	halt				; ..
156314: 000000              	halt				; ..
156316: 000000              	halt				; ..
156320: 000000              	halt				; ..
156322: 000000              	halt				; ..
156324: 000000              	halt				; ..
156326: 000000              	halt				; ..
156330: 000000              	halt				; ..
156332: 000000              	halt				; ..
156334: 000000              	halt				; ..
156336: 000000              	halt				; ..
156340: 000000              	halt				; ..
156342: 000000              	halt				; ..
156344: 000000              	halt				; ..
156346: 000000              	halt				; ..
156350: 000000              	halt				; ..
156352: 000000              	halt				; ..
156354: 000000              	halt				; ..
156356: 000000              	halt				; ..
156360: 000000              	halt				; ..
156362: 000000              	halt				; ..
156364: 000000              	halt				; ..
156366: 000000              	halt				; ..
156370: 000000              	halt				; ..
156372: 000000              	halt				; ..
156374: 000000              	halt				; ..
156376: 000000              	halt				; ..
156400: 000000              	halt				; ..
156402: 000000              	halt				; ..
156404: 000000              	halt				; ..
156406: 000000              	halt				; ..
156410: 000000              	halt				; ..
156412: 000000              	halt				; ..
156414: 000000              	halt				; ..
156416: 000000              	halt				; ..
156420: 000000              	halt				; ..
156422: 000000              	halt				; ..
156424: 000000              	halt				; ..
156426: 000000              	halt				; ..
156430: 000000              	halt				; ..
156432: 000000              	halt				; ..
156434: 000000              	halt				; ..
156436: 000000              	halt				; ..
156440: 000000              	halt				; ..
156442: 000000              	halt				; ..
156444: 000000              	halt				; ..
156446: 000000              	halt				; ..
156450: 000000              	halt				; ..
156452: 000000              	halt				; ..
156454: 000000              	halt				; ..
156456: 000000              	halt				; ..
156460: 000000              	halt				; ..
156462: 000000              	halt				; ..
156464: 000000              	halt				; ..
156466: 000000              	halt				; ..
156470: 000000              	halt				; ..
156472: 000000              	halt				; ..
156474: 000000              	halt				; ..
156476: 000000              	halt				; ..
156500: 000000              	halt				; ..
156502: 000000              	halt				; ..
156504: 000000              	halt				; ..
156506: 000000              	halt				; ..
156510: 000000              	halt				; ..
156512: 000000              	halt				; ..
156514: 000000              	halt				; ..
156516: 000000              	halt				; ..
156520: 000000              	halt				; ..
156522: 000000              	halt				; ..
156524: 000000              	halt				; ..
156526: 000000              	halt				; ..
156530: 000000              	halt				; ..
156532: 000000              	halt				; ..
156534: 000000              	halt				; ..
156536: 000000              	halt				; ..
156540: 000000              	halt				; ..
156542: 000000              	halt				; ..
156544: 000000              	halt				; ..
156546: 000000              	halt				; ..
156550: 000000              	halt				; ..
156552: 000000              	halt				; ..
156554: 000000              	halt				; ..
156556: 000000              	halt				; ..
156560: 000000              	halt				; ..
156562: 000000              	halt				; ..
156564: 000000              	halt				; ..
156566: 000000              	halt				; ..
156570: 000000              	halt				; ..
156572: 000000              	halt				; ..
156574: 000000              	halt				; ..
156576: 000000              	halt				; ..
156600: 000000              	halt				; ..
156602: 000000              	halt				; ..
156604: 000000              	halt				; ..
156606: 000000              	halt				; ..
156610: 000000              	halt				; ..
156612: 000000              	halt				; ..
156614: 000000              	halt				; ..
156616: 000000              	halt				; ..
156620: 000000              	halt				; ..
156622: 000000              	halt				; ..
156624: 000000              	halt				; ..
156626: 000000              	halt				; ..
156630: 000000              	halt				; ..
156632: 000000              	halt				; ..
156634: 000000              	halt				; ..
156636: 000000              	halt				; ..
156640: 000000              	halt				; ..
156642: 000000              	halt				; ..
156644: 000000              	halt				; ..
156646: 000000              	halt				; ..
156650: 000000              	halt				; ..
156652: 000000              	halt				; ..
156654: 000000              	halt				; ..
156656: 000000              	halt				; ..
156660: 000000              	halt				; ..
156662: 000000              	halt				; ..
156664: 000000              	halt				; ..
156666: 000000              	halt				; ..
156670: 000000              	halt				; ..
156672: 000000              	halt				; ..
156674: 000000              	halt				; ..
156676: 000000              	halt				; ..
156700: 000000              	halt				; ..
156702: 000000              	halt				; ..
156704: 000000              	halt				; ..
156706: 000000              	halt				; ..
156710: 000000              	halt				; ..
156712: 000000              	halt				; ..
156714: 000000              	halt				; ..
156716: 000000              	halt				; ..
156720: 000000              	halt				; ..
156722: 000000              	halt				; ..
156724: 000000              	halt				; ..
156726: 000000              	halt				; ..
156730: 000000              	halt				; ..
156732: 000000              	halt				; ..
156734: 000000              	halt				; ..
156736: 000000              	halt				; ..
156740: 000000              	halt				; ..
156742: 000000              	halt				; ..
156744: 000000              	halt				; ..
156746: 000000              	halt				; ..
156750: 000000              	halt				; ..
156752: 000000              	halt				; ..
156754: 000000              	halt				; ..
156756: 000000              	halt				; ..
156760: 000000              	halt				; ..
156762: 000000              	halt				; ..
156764: 000000              	halt				; ..
156766: 000000              	halt				; ..
156770: 000000              	halt				; ..
156772: 000000              	halt				; ..
156774: 000000              	halt				; ..
156776: 000000              	halt				; ..
157000: 000000              	halt				; ..
157002: 000000              	halt				; ..
157004: 000000              	halt				; ..
157006: 000000              	halt				; ..
157010: 000000              	halt				; ..
157012: 000000              	halt				; ..
157014: 000000              	halt				; ..
157016: 000000              	halt				; ..
157020: 000000              	halt				; ..
157022: 000000              	halt				; ..
157024: 000000              	halt				; ..
157026: 000000              	halt				; ..
157030: 000000              	halt				; ..
157032: 000000              	halt				; ..
157034: 000000              	halt				; ..
157036: 000000              	halt				; ..
157040: 000000              	halt				; ..
157042: 000000              	halt				; ..
157044: 000000              	halt				; ..
157046: 000000              	halt				; ..
157050: 000000              	halt				; ..
157052: 000000              	halt				; ..
157054: 000000              	halt				; ..
157056: 000000              	halt				; ..
157060: 000000              	halt				; ..
157062: 000000              	halt				; ..
157064: 000000              	halt				; ..
157066: 000000              	halt				; ..
157070: 000000              	halt				; ..
157072: 000000              	halt				; ..
157074: 000000              	halt				; ..
157076: 000000              	halt				; ..
157100: 000000              	halt				; ..
157102: 000000              	halt				; ..
157104: 000000              	halt				; ..
157106: 000000              	halt				; ..
157110: 000000              	halt				; ..
157112: 000000              	halt				; ..
157114: 000000              	halt				; ..
157116: 000000              	halt				; ..
157120: 000000              	halt				; ..
157122: 000000              	halt				; ..
157124: 000000              	halt				; ..
157126: 000000              	halt				; ..
157130: 000000              	halt				; ..
157132: 000000              	halt				; ..
157134: 000000              	halt				; ..
157136: 000000              	halt				; ..
157140: 000000              	halt				; ..
157142: 000000              	halt				; ..
157144: 000000              	halt				; ..
157146: 000000              	halt				; ..
157150: 000000              	halt				; ..
157152: 000000              	halt				; ..
157154: 000000              	halt				; ..
157156: 000000              	halt				; ..
157160: 000000              	halt				; ..
157162: 000000              	halt				; ..
157164: 000000              	halt				; ..
157166: 000000              	halt				; ..
157170: 000000              	halt				; ..
157172: 000000              	halt				; ..
157174: 000000              	halt				; ..
157176: 000000              	halt				; ..
157200: 000000              	halt				; ..
157202: 000000              	halt				; ..
157204: 000000              	halt				; ..
157206: 000000              	halt				; ..
157210: 000000              	halt				; ..
157212: 000000              	halt				; ..
157214: 000000              	halt				; ..
157216: 000000              	halt				; ..
157220: 000000              	halt				; ..
157222: 000000              	halt				; ..
157224: 000000              	halt				; ..
157226: 000000              	halt				; ..
157230: 000000              	halt				; ..
157232: 000000              	halt				; ..
157234: 000000              	halt				; ..
157236: 000000              	halt				; ..
157240: 000000              	halt				; ..
157242: 000000              	halt				; ..
157244: 000000              	halt				; ..
157246: 000000              	halt				; ..
157250: 000000              	halt				; ..
157252: 000000              	halt				; ..
157254: 000000              	halt				; ..
157256: 000000              	halt				; ..
157260: 000000              	halt				; ..
157262: 000000              	halt				; ..
157264: 000000              	halt				; ..
157266: 000000              	halt				; ..
157270: 000000              	halt				; ..
157272: 000000              	halt				; ..
157274: 000000              	halt				; ..
157276: 000000              	halt				; ..
157300: 000000              	halt				; ..
157302: 000000              	halt				; ..
157304: 000000              	halt				; ..
157306: 000000              	halt				; ..
157310: 000000              	halt				; ..
157312: 000000              	halt				; ..
157314: 000000              	halt				; ..
157316: 000000              	halt				; ..
157320: 000000              	halt				; ..
157322: 000000              	halt				; ..
157324: 000000              	halt				; ..
157326: 000000              	halt				; ..
157330: 000000              	halt				; ..
157332: 000000              	halt				; ..
157334: 000000              	halt				; ..
157336: 000000              	halt				; ..
157340: 000000              	halt				; ..
157342: 000000              	halt				; ..
157344: 000000              	halt				; ..
157346: 000000              	halt				; ..
157350: 000000              	halt				; ..
157352: 000000              	halt				; ..
157354: 000000              	halt				; ..
157356: 000000              	halt				; ..
157360: 000000              	halt				; ..
157362: 000000              	halt				; ..
157364: 000000              	halt				; ..
157366: 000000              	halt				; ..
157370: 000000              	halt				; ..
157372: 000000              	halt				; ..
157374: 000000              	halt				; ..
157376: 000000              	halt				; ..
157400: 000000              	halt				; ..
157402: 000000              	halt				; ..
157404: 000000              	halt				; ..
157406: 000000              	halt				; ..
157410: 000000              	halt				; ..
157412: 000000              	halt				; ..
157414: 000000              	halt				; ..
157416: 000000              	halt				; ..
157420: 000000              	halt				; ..
157422: 000000              	halt				; ..
157424: 000000              	halt				; ..
157426: 000000              	halt				; ..
157430: 000000              	halt				; ..
157432: 000000              	halt				; ..
157434: 000000              	halt				; ..
157436: 000000              	halt				; ..
157440: 000000              	halt				; ..
157442: 000000              	halt				; ..
157444: 000000              	halt				; ..
157446: 000000              	halt				; ..
157450: 000000              	halt				; ..
157452: 000000              	halt				; ..
157454: 000000              	halt				; ..
157456: 000000              	halt				; ..
157460: 000000              	halt				; ..
157462: 000000              	halt				; ..
157464: 000000              	halt				; ..
157466: 000000              	halt				; ..
157470: 000000              	halt				; ..
157472: 000000              	halt				; ..
157474: 000000              	halt				; ..
157476: 000000              	halt				; ..
157500: 000000              	halt				; ..
157502: 000000              	halt				; ..
157504: 000000              	halt				; ..
157506: 000000              	halt				; ..
157510: 000000              	halt				; ..
157512: 000000              	halt				; ..
157514: 000000              	halt				; ..
157516: 000000              	halt				; ..
157520: 000000              	halt				; ..
157522: 000000              	halt				; ..
157524: 000000              	halt				; ..
157526: 000000              	halt				; ..
157530: 000000              	halt				; ..
157532: 000000              	halt				; ..
157534: 000000              	halt				; ..
157536: 000000              	halt				; ..
157540: 000000              	halt				; ..
157542: 000000              	halt				; ..
157544: 000000              	halt				; ..
157546: 000000              	halt				; ..
157550: 000000              	halt				; ..
157552: 000000              	halt				; ..
157554: 000000              	halt				; ..
157556: 000000              	halt				; ..
157560: 000000              	halt				; ..
157562: 000000              	halt				; ..
157564: 000000              	halt				; ..
157566: 000000              	halt				; ..
157570: 000000              	halt				; ..
157572: 000000              	halt				; ..
157574: 000000              	halt				; ..
157576: 000000              	halt				; ..
157600: 000000              	halt				; ..
157602: 000000              	halt				; ..
157604: 000000              	halt				; ..
157606: 000000              	halt				; ..
157610: 000000              	halt				; ..
157612: 000000              	halt				; ..
157614: 000000              	halt				; ..
157616: 000000              	halt				; ..
157620: 000000              	halt				; ..
157622: 000000              	halt				; ..
157624: 000000              	halt				; ..
157626: 000000              	halt				; ..
157630: 000000              	halt				; ..
157632: 000000              	halt				; ..
157634: 000000              	halt				; ..
157636: 000000              	halt				; ..
157640: 000000              	halt				; ..
157642: 000000              	halt				; ..
157644: 000000              	halt				; ..
157646: 000000              	halt				; ..
157650: 000000              	halt				; ..
157652: 000000              	halt				; ..
157654: 000000              	halt				; ..
157656: 000000              	halt				; ..
157660: 000000              	halt				; ..
157662: 000000              	halt				; ..
157664: 000000              	halt				; ..
157666: 000000              	halt				; ..
157670: 000000              	halt				; ..
157672: 000000              	halt				; ..
157674: 000000              	halt				; ..
157676: 000000              	halt				; ..
157700: 000000              	halt				; ..
157702: 000000              	halt				; ..
157704: 000000              	halt				; ..
157706: 000000              	halt				; ..
157710: 000000              	halt				; ..
157712: 000000              	halt				; ..
157714: 000000              	halt				; ..
157716: 000000              	halt				; ..
157720: 000000              	halt				; ..
157722: 000000              	halt				; ..
157724: 000000              	halt				; ..
157726: 000000              	halt				; ..
157730: 000000              	halt				; ..
157732: 000000              	halt				; ..
157734: 000000              	halt				; ..
157736: 000000              	halt				; ..
157740: 000000              	halt				; ..
157742: 000000              	halt				; ..
157744: 000000              	halt				; ..
157746: 000000              	halt				; ..
157750: 000000              	halt				; ..
157752: 000000              	halt				; ..
157754: 000000              	halt				; ..
157756: 000000              	halt				; ..
157760: 000000              	halt				; ..
157762: 000000              	halt				; ..
157764: 000000              	halt				; ..
157766: 000000              	halt				; ..
157770: 000000              	halt				; ..
157772: 000000              	halt				; ..
157774: 000000              	halt				; ..
157776: 000000              	halt				; ..
